
test.elf:     file format elf32-littleriscv


Disassembly of section .text:

00000000 <reset_vec>:
       0:	0040006f          	j	4 <start>

00000004 <start>:
       4:	00000093          	li	ra,0
       8:	00000113          	li	sp,0
       c:	00000193          	li	gp,0
      10:	00000213          	li	tp,0
      14:	00000293          	li	t0,0
      18:	00000313          	li	t1,0
      1c:	00000393          	li	t2,0
      20:	00000413          	li	s0,0
      24:	00000493          	li	s1,0
      28:	00000513          	li	a0,0
      2c:	00000593          	li	a1,0
      30:	00000613          	li	a2,0
      34:	00000693          	li	a3,0
      38:	00000713          	li	a4,0
      3c:	00000793          	li	a5,0
      40:	00000813          	li	a6,0
      44:	00000893          	li	a7,0
      48:	00000913          	li	s2,0
      4c:	00000993          	li	s3,0
      50:	00000a13          	li	s4,0
      54:	00000a93          	li	s5,0
      58:	00000b13          	li	s6,0
      5c:	00000b93          	li	s7,0
      60:	00000c13          	li	s8,0
      64:	00000c93          	li	s9,0
      68:	00000d13          	li	s10,0
      6c:	00000d93          	li	s11,0
      70:	00000e13          	li	t3,0
      74:	00000e93          	li	t4,0
      78:	00000f13          	li	t5,0
      7c:	00000f93          	li	t6,0
      80:	00800293          	li	t0,8
      84:	30029073          	csrw	mstatus,t0
      88:	0007f137          	lui	sp,0x7f
      8c:	1990b0ef          	jal	ba24 <main>

00000090 <insn_tests>:
      90:	30c00f93          	li	t6,780
      94:	001fa023          	sw	ra,0(t6)
      98:	002fa223          	sw	sp,4(t6)
      9c:	003fa423          	sw	gp,8(t6)
      a0:	004fa623          	sw	tp,12(t6)
      a4:	005fa823          	sw	t0,16(t6)
      a8:	006faa23          	sw	t1,20(t6)
      ac:	007fac23          	sw	t2,24(t6)
      b0:	008fae23          	sw	s0,28(t6)
      b4:	029fa023          	sw	s1,32(t6)
      b8:	02afa223          	sw	a0,36(t6)
      bc:	02bfa423          	sw	a1,40(t6)
      c0:	02cfa623          	sw	a2,44(t6)
      c4:	02dfa823          	sw	a3,48(t6)
      c8:	02efaa23          	sw	a4,52(t6)
      cc:	02ffac23          	sw	a5,56(t6)
      d0:	030fae23          	sw	a6,60(t6)
      d4:	051fa023          	sw	a7,64(t6)
      d8:	052fa223          	sw	s2,68(t6)
      dc:	053fa423          	sw	s3,72(t6)
      e0:	054fa623          	sw	s4,76(t6)
      e4:	055fa823          	sw	s5,80(t6)
      e8:	056faa23          	sw	s6,84(t6)
      ec:	057fac23          	sw	s7,88(t6)
      f0:	058fae23          	sw	s8,92(t6)
      f4:	079fa023          	sw	s9,96(t6)
      f8:	07afa223          	sw	s10,100(t6)
      fc:	07bfa423          	sw	s11,104(t6)
     100:	07cfa623          	sw	t3,108(t6)
     104:	07dfa823          	sw	t4,112(t6)
     108:	07efaa23          	sw	t5,116(t6)
     10c:	00a00093          	li	ra,10
     110:	49d0406f          	j	4dac <lui>

00000114 <lui_ret>:
     114:	00a00093          	li	ra,10
     118:	2f80206f          	j	2410 <auipc>

0000011c <auipc_ret>:
     11c:	00a00093          	li	ra,10
     120:	4bd0306f          	j	3ddc <j>

00000124 <j_ret>:
     124:	00a00093          	li	ra,10
     128:	59d0306f          	j	3ec4 <jal>

0000012c <jal_ret>:
     12c:	00a00093          	li	ra,10
     130:	6990306f          	j	3fc8 <jalr>

00000134 <jalr_ret>:
     134:	00a00093          	li	ra,10
     138:	3d00206f          	j	2508 <beq>

0000013c <beq_ret>:
     13c:	00a00093          	li	ra,10
     140:	6140306f          	j	3754 <bne>

00000144 <bne_ret>:
     144:	00a00093          	li	ra,10
     148:	6fd0206f          	j	3044 <blt>

0000014c <blt_ret>:
     14c:	00a00093          	li	ra,10
     150:	7240206f          	j	2874 <bge>

00000154 <bge_ret>:
     154:	00a00093          	li	ra,10
     158:	2580306f          	j	33b0 <bltu>

0000015c <bltu_ret>:
     15c:	00a00093          	li	ra,10
     160:	2e10206f          	j	2c40 <bgeu>

00000164 <bgeu_ret>:
     164:	00a00093          	li	ra,10
     168:	0100406f          	j	4178 <lb>

0000016c <lb_ret>:
     16c:	00a00093          	li	ra,10
     170:	5f80406f          	j	4768 <lh>

00000174 <lh_ret>:
     174:	00a00093          	li	ra,10
     178:	5410406f          	j	4eb8 <lw>

0000017c <lw_ret>:
     17c:	00a00093          	li	ra,10
     180:	2f00406f          	j	4470 <lbu>

00000184 <lbu_ret>:
     184:	00a00093          	li	ra,10
     188:	0f90406f          	j	4a80 <lhu>

0000018c <lhu_ret>:
     18c:	00a00093          	li	ra,10
     190:	3140706f          	j	74a4 <sb>

00000194 <sb_ret>:
     194:	00a00093          	li	ra,10
     198:	7ac0706f          	j	7944 <sh>

0000019c <sh_ret>:
     19c:	00a00093          	li	ra,10
     1a0:	7f80a06f          	j	a998 <sw>

000001a4 <sw_ret>:
     1a4:	00a00093          	li	ra,10
     1a8:	75c0106f          	j	1904 <addi>

000001ac <addi_ret>:
     1ac:	00a00093          	li	ra,10
     1b0:	3dd0806f          	j	8d8c <slti>

000001b4 <slti_ret>:
     1b4:	00a00093          	li	ra,10
     1b8:	27c0b06f          	j	b434 <xori>

000001bc <xori_ret>:
     1bc:	00a00093          	li	ra,10
     1c0:	37d0606f          	j	6d3c <ori>

000001c4 <ori_ret>:
     1c4:	00a00093          	li	ra,10
     1c8:	7d90106f          	j	21a0 <andi>

000001cc <andi_ret>:
     1cc:	00a00093          	li	ra,10
     1d0:	3140806f          	j	84e4 <slli>

000001d4 <slli_ret>:
     1d4:	00a00093          	li	ra,10
     1d8:	6f10906f          	j	a0c8 <srli>

000001dc <srli_ret>:
     1dc:	00a00093          	li	ra,10
     1e0:	5180906f          	j	96f8 <srai>

000001e4 <srai_ret>:
     1e4:	00a00093          	li	ra,10
     1e8:	1900106f          	j	1378 <add>

000001ec <add_ret>:
     1ec:	00a00093          	li	ra,10
     1f0:	23c0a06f          	j	a42c <sub>

000001f4 <sub_ret>:
     1f4:	00a00093          	li	ra,10
     1f8:	4d50706f          	j	7ecc <sll>

000001fc <sll_ret>:
     1fc:	00a00093          	li	ra,10
     200:	6180806f          	j	8818 <slt>

00000204 <slt_ret>:
     204:	00a00093          	li	ra,10
     208:	4c10a06f          	j	aec8 <xor>

0000020c <xor_ret>:
     20c:	00a00093          	li	ra,10
     210:	0510906f          	j	9a60 <srl>

00000214 <srl_ret>:
     214:	00a00093          	li	ra,10
     218:	6990806f          	j	90b0 <sra>

0000021c <sra_ret>:
     21c:	00a00093          	li	ra,10
     220:	5ac0606f          	j	67cc <or>

00000224 <or_ret>:
     224:	00a00093          	li	ra,10
     228:	2150106f          	j	1c3c <and>

0000022c <and_ret>:
     22c:	00a00093          	li	ra,10
     230:	4390706f          	j	7e68 <simple>

00000234 <simple_ret>:
     234:	00a00093          	li	ra,10
     238:	58d0606f          	j	6fc4 <rdwrctr>

0000023c <rdwrctr_ret>:
     23c:	0100006f          	j	24c <m_tests>

00000240 <break>:
     240:	00100073          	ebreak

00000244 <repeat>:
     244:	001fa023          	sw	ra,0(t6)
     248:	ffdff06f          	j	244 <repeat>

0000024c <m_tests>:
     24c:	00a00093          	li	ra,10
     250:	5140506f          	j	5764 <mulh>

00000254 <mulh_ret>:
     254:	00a00093          	li	ra,10
     258:	2850506f          	j	5cdc <mulhsu>

0000025c <mulhsu_ret>:
     25c:	00a00093          	li	ra,10
     260:	7f50506f          	j	6254 <mulhu>

00000264 <mulhu_ret>:
     264:	00a00093          	li	ra,10
     268:	7890406f          	j	51f0 <mul>

0000026c <mul_ret>:
     26c:	00a00093          	li	ra,10
     270:	0550306f          	j	3ac4 <div>

00000274 <div_ret>:
     274:	00a00093          	li	ra,10
     278:	1d50306f          	j	3c4c <divu>

0000027c <divu_ret>:
     27c:	00a00093          	li	ra,10
     280:	7110606f          	j	7190 <rem>

00000284 <rem_ret>:
     284:	00a00093          	li	ra,10
     288:	0900706f          	j	7318 <remu>

0000028c <remu_ret>:
     28c:	30c00f93          	li	t6,780
     290:	000fa083          	lw	ra,0(t6)
     294:	004fa103          	lw	sp,4(t6)
     298:	008fa183          	lw	gp,8(t6)
     29c:	00cfa203          	lw	tp,12(t6)
     2a0:	010fa283          	lw	t0,16(t6)
     2a4:	014fa303          	lw	t1,20(t6)
     2a8:	018fa383          	lw	t2,24(t6)
     2ac:	01cfa403          	lw	s0,28(t6)
     2b0:	020fa483          	lw	s1,32(t6)
     2b4:	024fa503          	lw	a0,36(t6)
     2b8:	028fa583          	lw	a1,40(t6)
     2bc:	02cfa603          	lw	a2,44(t6)
     2c0:	030fa683          	lw	a3,48(t6)
     2c4:	034fa703          	lw	a4,52(t6)
     2c8:	038fa783          	lw	a5,56(t6)
     2cc:	03cfa803          	lw	a6,60(t6)
     2d0:	040fa883          	lw	a7,64(t6)
     2d4:	044fa903          	lw	s2,68(t6)
     2d8:	048fa983          	lw	s3,72(t6)
     2dc:	04cfaa03          	lw	s4,76(t6)
     2e0:	050faa83          	lw	s5,80(t6)
     2e4:	054fab03          	lw	s6,84(t6)
     2e8:	058fab83          	lw	s7,88(t6)
     2ec:	05cfac03          	lw	s8,92(t6)
     2f0:	060fac83          	lw	s9,96(t6)
     2f4:	064fad03          	lw	s10,100(t6)
     2f8:	068fad83          	lw	s11,104(t6)
     2fc:	06cfae03          	lw	t3,108(t6)
     300:	070fae83          	lw	t4,112(t6)
     304:	074faf03          	lw	t5,116(t6)
     308:	00008067          	ret

0000030c <scratch_space>:
	...

0000040c <echo>:
     40c:	ff010113          	addi	sp,sp,-16 # 7eff0 <end+0x728f3>
     410:	0000b537          	lui	a0,0xb
     414:	00812423          	sw	s0,8(sp)
     418:	6c850513          	addi	a0,a0,1736 # b6c8 <pass+0x24>
     41c:	0000b437          	lui	s0,0xb
     420:	00112623          	sw	ra,12(sp)
     424:	71840413          	addi	s0,s0,1816 # b718 <pass+0x74>
     428:	370000ef          	jal	798 <puts>
     42c:	00040513          	mv	a0,s0
     430:	368000ef          	jal	798 <puts>
     434:	5b5000ef          	jal	11e8 <getchar>
     438:	5c9000ef          	jal	1200 <putchar>
     43c:	00a00513          	li	a0,10
     440:	5c1000ef          	jal	1200 <putchar>
     444:	5cd000ef          	jal	1210 <fflush>
     448:	fe5ff06f          	j	42c <echo+0x20>

0000044c <csr_test>:
     44c:	0000b537          	lui	a0,0xb
     450:	fc010113          	addi	sp,sp,-64
     454:	72c50513          	addi	a0,a0,1836 # b72c <pass+0x88>
     458:	02112e23          	sw	ra,60(sp)
     45c:	02812c23          	sw	s0,56(sp)
     460:	02912a23          	sw	s1,52(sp)
     464:	03212823          	sw	s2,48(sp)
     468:	03312623          	sw	s3,44(sp)
     46c:	03412423          	sw	s4,40(sp)
     470:	03512223          	sw	s5,36(sp)
     474:	03612023          	sw	s6,32(sp)
     478:	01712e23          	sw	s7,28(sp)
     47c:	31c000ef          	jal	798 <puts>
     480:	0000b537          	lui	a0,0xb
     484:	74450513          	addi	a0,a0,1860 # b744 <pass+0xa0>
     488:	deadc437          	lui	s0,0xdeadc
     48c:	30c000ef          	jal	798 <puts>
     490:	eef40413          	addi	s0,s0,-273 # deadbeef <end+0xdeacf7f2>
     494:	30541073          	csrw	mtvec,s0
     498:	305024f3          	csrr	s1,mtvec
     49c:	24848863          	beq	s1,s0,6ec <csr_test+0x2a0>
     4a0:	0000b537          	lui	a0,0xb
     4a4:	76050513          	addi	a0,a0,1888 # b760 <pass+0xbc>
     4a8:	2f0000ef          	jal	798 <puts>
     4ac:	0000b537          	lui	a0,0xb
     4b0:	00048613          	mv	a2,s1
     4b4:	00040593          	mv	a1,s0
     4b8:	76850513          	addi	a0,a0,1896 # b768 <pass+0xc4>
     4bc:	00200913          	li	s2,2
     4c0:	00100493          	li	s1,1
     4c4:	630000ef          	jal	af4 <printf>
     4c8:	00090413          	mv	s0,s2
     4cc:	00048b93          	mv	s7,s1
     4d0:	00500b13          	li	s6,5
     4d4:	00400a93          	li	s5,4
     4d8:	00300a13          	li	s4,3
     4dc:	00000993          	li	s3,0
     4e0:	0000b537          	lui	a0,0xb
     4e4:	78850513          	addi	a0,a0,1928 # b788 <pass+0xe4>
     4e8:	2b0000ef          	jal	798 <puts>
     4ec:	123455b7          	lui	a1,0x12345
     4f0:	67858593          	addi	a1,a1,1656 # 12345678 <end+0x12338f7b>
     4f4:	34159073          	csrw	mepc,a1
     4f8:	34102673          	csrr	a2,mepc
     4fc:	26b60a63          	beq	a2,a1,770 <csr_test+0x324>
     500:	0000b537          	lui	a0,0xb
     504:	76050513          	addi	a0,a0,1888 # b760 <pass+0xbc>
     508:	00c12623          	sw	a2,12(sp)
     50c:	28c000ef          	jal	798 <puts>
     510:	00c12603          	lw	a2,12(sp)
     514:	123455b7          	lui	a1,0x12345
     518:	0000b537          	lui	a0,0xb
     51c:	67858593          	addi	a1,a1,1656 # 12345678 <end+0x12338f7b>
     520:	76850513          	addi	a0,a0,1896 # b768 <pass+0xc4>
     524:	5d0000ef          	jal	af4 <printf>
     528:	0000b537          	lui	a0,0xb
     52c:	79c50513          	addi	a0,a0,1948 # b79c <pass+0xf8>
     530:	268000ef          	jal	798 <puts>
     534:	000025b7          	lui	a1,0x2
     538:	80058593          	addi	a1,a1,-2048 # 1800 <test_33+0x20>
     53c:	30059073          	csrw	mstatus,a1
     540:	30002673          	csrr	a2,mstatus
     544:	20b60663          	beq	a2,a1,750 <csr_test+0x304>
     548:	0000b537          	lui	a0,0xb
     54c:	76050513          	addi	a0,a0,1888 # b760 <pass+0xbc>
     550:	00c12623          	sw	a2,12(sp)
     554:	244000ef          	jal	798 <puts>
     558:	00c12603          	lw	a2,12(sp)
     55c:	000025b7          	lui	a1,0x2
     560:	0000b537          	lui	a0,0xb
     564:	80058593          	addi	a1,a1,-2048 # 1800 <test_33+0x20>
     568:	76850513          	addi	a0,a0,1896 # b768 <pass+0xc4>
     56c:	588000ef          	jal	af4 <printf>
     570:	00140413          	addi	s0,s0,1
     574:	00800793          	li	a5,8
     578:	30079073          	csrw	mstatus,a5
     57c:	0000b537          	lui	a0,0xb
     580:	7b050513          	addi	a0,a0,1968 # b7b0 <pass+0x10c>
     584:	facf0ab7          	lui	s5,0xfacf0
     588:	210000ef          	jal	798 <puts>
     58c:	acea8a93          	addi	s5,s5,-1330 # faceface <end+0xface33d1>
     590:	342a9073          	csrw	mcause,s5
     594:	34202673          	csrr	a2,mcause
     598:	19560e63          	beq	a2,s5,734 <csr_test+0x2e8>
     59c:	0000b537          	lui	a0,0xb
     5a0:	76050513          	addi	a0,a0,1888 # b760 <pass+0xbc>
     5a4:	00c12623          	sw	a2,12(sp)
     5a8:	1f0000ef          	jal	798 <puts>
     5ac:	00c12603          	lw	a2,12(sp)
     5b0:	0000b537          	lui	a0,0xb
     5b4:	000a8593          	mv	a1,s5
     5b8:	76850513          	addi	a0,a0,1896 # b768 <pass+0xc4>
     5bc:	538000ef          	jal	af4 <printf>
     5c0:	00140413          	addi	s0,s0,1
     5c4:	0000b537          	lui	a0,0xb
     5c8:	7c450513          	addi	a0,a0,1988 # b7c4 <pass+0x120>
     5cc:	00001ab7          	lui	s5,0x1
     5d0:	1c8000ef          	jal	798 <puts>
     5d4:	888a8a93          	addi	s5,s5,-1912 # 888 <printint+0xb4>
     5d8:	304a9073          	csrw	mie,s5
     5dc:	30402a73          	csrr	s4,mie
     5e0:	135a0e63          	beq	s4,s5,71c <csr_test+0x2d0>
     5e4:	0000b537          	lui	a0,0xb
     5e8:	76050513          	addi	a0,a0,1888 # b760 <pass+0xbc>
     5ec:	1ac000ef          	jal	798 <puts>
     5f0:	0000b537          	lui	a0,0xb
     5f4:	000a0613          	mv	a2,s4
     5f8:	000a8593          	mv	a1,s5
     5fc:	76850513          	addi	a0,a0,1896 # b768 <pass+0xc4>
     600:	4f4000ef          	jal	af4 <printf>
     604:	00140413          	addi	s0,s0,1
     608:	0000b537          	lui	a0,0xb
     60c:	7d450513          	addi	a0,a0,2004 # b7d4 <pass+0x130>
     610:	188000ef          	jal	798 <puts>
     614:	08000913          	li	s2,128
     618:	34491073          	csrw	mip,s2
     61c:	34402a73          	csrr	s4,mip
     620:	092a0263          	beq	s4,s2,6a4 <csr_test+0x258>
     624:	0000b537          	lui	a0,0xb
     628:	76050513          	addi	a0,a0,1888 # b760 <pass+0xbc>
     62c:	16c000ef          	jal	798 <puts>
     630:	0000b537          	lui	a0,0xb
     634:	000a0613          	mv	a2,s4
     638:	00090593          	mv	a1,s2
     63c:	76850513          	addi	a0,a0,1896 # b768 <pass+0xc4>
     640:	4b4000ef          	jal	af4 <printf>
     644:	0000b537          	lui	a0,0xb
     648:	7e450513          	addi	a0,a0,2020 # b7e4 <pass+0x140>
     64c:	14c000ef          	jal	798 <puts>
     650:	0000c537          	lui	a0,0xc
     654:	00098593          	mv	a1,s3
     658:	80050513          	addi	a0,a0,-2048 # b800 <pass+0x15c>
     65c:	498000ef          	jal	af4 <printf>
     660:	0000c537          	lui	a0,0xc
     664:	00140593          	addi	a1,s0,1
     668:	80c50513          	addi	a0,a0,-2036 # b80c <pass+0x168>
     66c:	488000ef          	jal	af4 <printf>
     670:	0000c537          	lui	a0,0xc
     674:	83050513          	addi	a0,a0,-2000 # b830 <pass+0x18c>
     678:	03812403          	lw	s0,56(sp)
     67c:	03c12083          	lw	ra,60(sp)
     680:	03412483          	lw	s1,52(sp)
     684:	03012903          	lw	s2,48(sp)
     688:	02c12983          	lw	s3,44(sp)
     68c:	02812a03          	lw	s4,40(sp)
     690:	02412a83          	lw	s5,36(sp)
     694:	02012b03          	lw	s6,32(sp)
     698:	01c12b83          	lw	s7,28(sp)
     69c:	04010113          	addi	sp,sp,64
     6a0:	0f80006f          	j	798 <puts>
     6a4:	0000b537          	lui	a0,0xb
     6a8:	75850513          	addi	a0,a0,1880 # b758 <pass+0xb4>
     6ac:	0ec000ef          	jal	798 <puts>
     6b0:	0000b537          	lui	a0,0xb
     6b4:	7e450513          	addi	a0,a0,2020 # b7e4 <pass+0x140>
     6b8:	0e0000ef          	jal	798 <puts>
     6bc:	0000c537          	lui	a0,0xc
     6c0:	00048593          	mv	a1,s1
     6c4:	80050513          	addi	a0,a0,-2048 # b800 <pass+0x15c>
     6c8:	42c000ef          	jal	af4 <printf>
     6cc:	0000c537          	lui	a0,0xc
     6d0:	00040593          	mv	a1,s0
     6d4:	80c50513          	addi	a0,a0,-2036 # b80c <pass+0x168>
     6d8:	41c000ef          	jal	af4 <printf>
     6dc:	f8041ae3          	bnez	s0,670 <csr_test+0x224>
     6e0:	0000c537          	lui	a0,0xc
     6e4:	81850513          	addi	a0,a0,-2024 # b818 <pass+0x174>
     6e8:	f91ff06f          	j	678 <csr_test+0x22c>
     6ec:	0000b537          	lui	a0,0xb
     6f0:	75850513          	addi	a0,a0,1880 # b758 <pass+0xb4>
     6f4:	00100413          	li	s0,1
     6f8:	0a0000ef          	jal	798 <puts>
     6fc:	00040993          	mv	s3,s0
     700:	00600b13          	li	s6,6
     704:	00500a93          	li	s5,5
     708:	00400a13          	li	s4,4
     70c:	00300913          	li	s2,3
     710:	00200493          	li	s1,2
     714:	00000b93          	li	s7,0
     718:	dc9ff06f          	j	4e0 <csr_test+0x94>
     71c:	0000b537          	lui	a0,0xb
     720:	75850513          	addi	a0,a0,1880 # b758 <pass+0xb4>
     724:	00048993          	mv	s3,s1
     728:	070000ef          	jal	798 <puts>
     72c:	00090493          	mv	s1,s2
     730:	ed9ff06f          	j	608 <csr_test+0x1bc>
     734:	0000b537          	lui	a0,0xb
     738:	75850513          	addi	a0,a0,1880 # b758 <pass+0xb4>
     73c:	00048993          	mv	s3,s1
     740:	058000ef          	jal	798 <puts>
     744:	00090493          	mv	s1,s2
     748:	000a0913          	mv	s2,s4
     74c:	e79ff06f          	j	5c4 <csr_test+0x178>
     750:	0000b537          	lui	a0,0xb
     754:	75850513          	addi	a0,a0,1880 # b758 <pass+0xb4>
     758:	00048993          	mv	s3,s1
     75c:	03c000ef          	jal	798 <puts>
     760:	00090493          	mv	s1,s2
     764:	000a0913          	mv	s2,s4
     768:	000a8a13          	mv	s4,s5
     76c:	e09ff06f          	j	574 <csr_test+0x128>
     770:	0000b537          	lui	a0,0xb
     774:	75850513          	addi	a0,a0,1880 # b758 <pass+0xb4>
     778:	00048993          	mv	s3,s1
     77c:	01c000ef          	jal	798 <puts>
     780:	00090493          	mv	s1,s2
     784:	000b8413          	mv	s0,s7
     788:	000a0913          	mv	s2,s4
     78c:	000a8a13          	mv	s4,s5
     790:	000b0a93          	mv	s5,s6
     794:	d95ff06f          	j	528 <csr_test+0xdc>

00000798 <puts>:
     798:	ff010113          	addi	sp,sp,-16
     79c:	00812423          	sw	s0,8(sp)
     7a0:	00112623          	sw	ra,12(sp)
     7a4:	00050413          	mv	s0,a0
     7a8:	00054503          	lbu	a0,0(a0)
     7ac:	00050a63          	beqz	a0,7c0 <puts+0x28>
     7b0:	251000ef          	jal	1200 <putchar>
     7b4:	00144503          	lbu	a0,1(s0)
     7b8:	00140413          	addi	s0,s0,1
     7bc:	fe051ae3          	bnez	a0,7b0 <puts+0x18>
     7c0:	00812403          	lw	s0,8(sp)
     7c4:	00c12083          	lw	ra,12(sp)
     7c8:	00a00513          	li	a0,10
     7cc:	01010113          	addi	sp,sp,16
     7d0:	2310006f          	j	1200 <putchar>

000007d4 <printint>:
     7d4:	fe010113          	addi	sp,sp,-32
     7d8:	00112e23          	sw	ra,28(sp)
     7dc:	00812c23          	sw	s0,24(sp)
     7e0:	00912a23          	sw	s1,20(sp)
     7e4:	06060663          	beqz	a2,850 <printint+0x7c>
     7e8:	06055463          	bgez	a0,850 <printint+0x7c>
     7ec:	40a00433          	neg	s0,a0
     7f0:	02b46733          	rem	a4,s0,a1
     7f4:	0000c7b7          	lui	a5,0xc
     7f8:	c1478793          	addi	a5,a5,-1004 # bc14 <digits.0>
     7fc:	02b44433          	div	s0,s0,a1
     800:	00e78733          	add	a4,a5,a4
     804:	00074703          	lbu	a4,0(a4)
     808:	00e10023          	sb	a4,0(sp)
     80c:	00100713          	li	a4,1
     810:	1c040863          	beqz	s0,9e0 <printint+0x20c>
     814:	02b46733          	rem	a4,s0,a1
     818:	02b44433          	div	s0,s0,a1
     81c:	00e78733          	add	a4,a5,a4
     820:	00074703          	lbu	a4,0(a4)
     824:	00e100a3          	sb	a4,1(sp)
     828:	00200713          	li	a4,2
     82c:	1a040a63          	beqz	s0,9e0 <printint+0x20c>
     830:	02b46733          	rem	a4,s0,a1
     834:	02b44433          	div	s0,s0,a1
     838:	00e78733          	add	a4,a5,a4
     83c:	00074703          	lbu	a4,0(a4)
     840:	00e10123          	sb	a4,2(sp)
     844:	24040063          	beqz	s0,a84 <printint+0x2b0>
     848:	00100693          	li	a3,1
     84c:	0580006f          	j	8a4 <printint+0xd0>
     850:	02b56733          	rem	a4,a0,a1
     854:	0000c7b7          	lui	a5,0xc
     858:	c1478793          	addi	a5,a5,-1004 # bc14 <digits.0>
     85c:	02b54433          	div	s0,a0,a1
     860:	00e78733          	add	a4,a5,a4
     864:	00074703          	lbu	a4,0(a4)
     868:	00e10023          	sb	a4,0(sp)
     86c:	18040263          	beqz	s0,9f0 <printint+0x21c>
     870:	02b46733          	rem	a4,s0,a1
     874:	02b44433          	div	s0,s0,a1
     878:	00e78733          	add	a4,a5,a4
     87c:	00074703          	lbu	a4,0(a4)
     880:	00e100a3          	sb	a4,1(sp)
     884:	1e040463          	beqz	s0,a6c <printint+0x298>
     888:	02b46733          	rem	a4,s0,a1
     88c:	00000693          	li	a3,0
     890:	02b44433          	div	s0,s0,a1
     894:	00e78733          	add	a4,a5,a4
     898:	00074703          	lbu	a4,0(a4)
     89c:	00e10123          	sb	a4,2(sp)
     8a0:	1e040663          	beqz	s0,a8c <printint+0x2b8>
     8a4:	02b46733          	rem	a4,s0,a1
     8a8:	02b44433          	div	s0,s0,a1
     8ac:	00e78733          	add	a4,a5,a4
     8b0:	00074703          	lbu	a4,0(a4)
     8b4:	00e101a3          	sb	a4,3(sp)
     8b8:	16040263          	beqz	s0,a1c <printint+0x248>
     8bc:	02b46733          	rem	a4,s0,a1
     8c0:	02b44433          	div	s0,s0,a1
     8c4:	00e78733          	add	a4,a5,a4
     8c8:	00074703          	lbu	a4,0(a4)
     8cc:	00e10223          	sb	a4,4(sp)
     8d0:	14040e63          	beqz	s0,a2c <printint+0x258>
     8d4:	02b46733          	rem	a4,s0,a1
     8d8:	02b44433          	div	s0,s0,a1
     8dc:	00e78733          	add	a4,a5,a4
     8e0:	00074703          	lbu	a4,0(a4)
     8e4:	00e102a3          	sb	a4,5(sp)
     8e8:	14040a63          	beqz	s0,a3c <printint+0x268>
     8ec:	02b46733          	rem	a4,s0,a1
     8f0:	02b44433          	div	s0,s0,a1
     8f4:	00e78733          	add	a4,a5,a4
     8f8:	00074703          	lbu	a4,0(a4)
     8fc:	00e10323          	sb	a4,6(sp)
     900:	14040663          	beqz	s0,a4c <printint+0x278>
     904:	02b46733          	rem	a4,s0,a1
     908:	02b44433          	div	s0,s0,a1
     90c:	00e78733          	add	a4,a5,a4
     910:	00074703          	lbu	a4,0(a4)
     914:	00e103a3          	sb	a4,7(sp)
     918:	14040e63          	beqz	s0,a74 <printint+0x2a0>
     91c:	02b46733          	rem	a4,s0,a1
     920:	02b44433          	div	s0,s0,a1
     924:	00e78733          	add	a4,a5,a4
     928:	00074703          	lbu	a4,0(a4)
     92c:	00e10423          	sb	a4,8(sp)
     930:	16040263          	beqz	s0,a94 <printint+0x2c0>
     934:	02b46733          	rem	a4,s0,a1
     938:	02b44433          	div	s0,s0,a1
     93c:	00e78733          	add	a4,a5,a4
     940:	00074703          	lbu	a4,0(a4)
     944:	00e104a3          	sb	a4,9(sp)
     948:	14040e63          	beqz	s0,aa4 <printint+0x2d0>
     94c:	02b46733          	rem	a4,s0,a1
     950:	02b44433          	div	s0,s0,a1
     954:	00e78733          	add	a4,a5,a4
     958:	00074703          	lbu	a4,0(a4)
     95c:	00e10523          	sb	a4,10(sp)
     960:	14040a63          	beqz	s0,ab4 <printint+0x2e0>
     964:	02b46733          	rem	a4,s0,a1
     968:	02b44433          	div	s0,s0,a1
     96c:	00e78733          	add	a4,a5,a4
     970:	00074703          	lbu	a4,0(a4)
     974:	00e105a3          	sb	a4,11(sp)
     978:	14040663          	beqz	s0,ac4 <printint+0x2f0>
     97c:	02b46733          	rem	a4,s0,a1
     980:	02b44433          	div	s0,s0,a1
     984:	00e78733          	add	a4,a5,a4
     988:	00074703          	lbu	a4,0(a4)
     98c:	00e10623          	sb	a4,12(sp)
     990:	14040263          	beqz	s0,ad4 <printint+0x300>
     994:	02b46733          	rem	a4,s0,a1
     998:	02b44433          	div	s0,s0,a1
     99c:	00e78733          	add	a4,a5,a4
     9a0:	00074703          	lbu	a4,0(a4)
     9a4:	00e106a3          	sb	a4,13(sp)
     9a8:	0a040a63          	beqz	s0,a5c <printint+0x288>
     9ac:	02b46633          	rem	a2,s0,a1
     9b0:	02b44733          	div	a4,s0,a1
     9b4:	00c78633          	add	a2,a5,a2
     9b8:	00064603          	lbu	a2,0(a2)
     9bc:	00c10723          	sb	a2,14(sp)
     9c0:	12070263          	beqz	a4,ae4 <printint+0x310>
     9c4:	02b76633          	rem	a2,a4,a1
     9c8:	00f00413          	li	s0,15
     9cc:	01000713          	li	a4,16
     9d0:	00c787b3          	add	a5,a5,a2
     9d4:	0007c783          	lbu	a5,0(a5)
     9d8:	00f107a3          	sb	a5,15(sp)
     9dc:	00068a63          	beqz	a3,9f0 <printint+0x21c>
     9e0:	002707b3          	add	a5,a4,sp
     9e4:	02d00693          	li	a3,45
     9e8:	00070413          	mv	s0,a4
     9ec:	00d78023          	sb	a3,0(a5)
     9f0:	00810433          	add	s0,sp,s0
     9f4:	fff10493          	addi	s1,sp,-1
     9f8:	00044503          	lbu	a0,0(s0)
     9fc:	fff40413          	addi	s0,s0,-1
     a00:	001000ef          	jal	1200 <putchar>
     a04:	fe849ae3          	bne	s1,s0,9f8 <printint+0x224>
     a08:	01c12083          	lw	ra,28(sp)
     a0c:	01812403          	lw	s0,24(sp)
     a10:	01412483          	lw	s1,20(sp)
     a14:	02010113          	addi	sp,sp,32
     a18:	00008067          	ret
     a1c:	00400713          	li	a4,4
     a20:	00300413          	li	s0,3
     a24:	fc0686e3          	beqz	a3,9f0 <printint+0x21c>
     a28:	fb9ff06f          	j	9e0 <printint+0x20c>
     a2c:	00500713          	li	a4,5
     a30:	00400413          	li	s0,4
     a34:	fa068ee3          	beqz	a3,9f0 <printint+0x21c>
     a38:	fa9ff06f          	j	9e0 <printint+0x20c>
     a3c:	00600713          	li	a4,6
     a40:	00500413          	li	s0,5
     a44:	fa0686e3          	beqz	a3,9f0 <printint+0x21c>
     a48:	f99ff06f          	j	9e0 <printint+0x20c>
     a4c:	00700713          	li	a4,7
     a50:	00600413          	li	s0,6
     a54:	f8068ee3          	beqz	a3,9f0 <printint+0x21c>
     a58:	f89ff06f          	j	9e0 <printint+0x20c>
     a5c:	00e00713          	li	a4,14
     a60:	00d00413          	li	s0,13
     a64:	f80686e3          	beqz	a3,9f0 <printint+0x21c>
     a68:	f79ff06f          	j	9e0 <printint+0x20c>
     a6c:	00100413          	li	s0,1
     a70:	f81ff06f          	j	9f0 <printint+0x21c>
     a74:	00800713          	li	a4,8
     a78:	00700413          	li	s0,7
     a7c:	f6068ae3          	beqz	a3,9f0 <printint+0x21c>
     a80:	f61ff06f          	j	9e0 <printint+0x20c>
     a84:	00300713          	li	a4,3
     a88:	f59ff06f          	j	9e0 <printint+0x20c>
     a8c:	00200413          	li	s0,2
     a90:	f61ff06f          	j	9f0 <printint+0x21c>
     a94:	00900713          	li	a4,9
     a98:	00800413          	li	s0,8
     a9c:	f4068ae3          	beqz	a3,9f0 <printint+0x21c>
     aa0:	f41ff06f          	j	9e0 <printint+0x20c>
     aa4:	00a00713          	li	a4,10
     aa8:	00900413          	li	s0,9
     aac:	f40682e3          	beqz	a3,9f0 <printint+0x21c>
     ab0:	f31ff06f          	j	9e0 <printint+0x20c>
     ab4:	00b00713          	li	a4,11
     ab8:	00a00413          	li	s0,10
     abc:	f2068ae3          	beqz	a3,9f0 <printint+0x21c>
     ac0:	f21ff06f          	j	9e0 <printint+0x20c>
     ac4:	00c00713          	li	a4,12
     ac8:	00b00413          	li	s0,11
     acc:	f20682e3          	beqz	a3,9f0 <printint+0x21c>
     ad0:	f11ff06f          	j	9e0 <printint+0x20c>
     ad4:	00d00713          	li	a4,13
     ad8:	00c00413          	li	s0,12
     adc:	f0068ae3          	beqz	a3,9f0 <printint+0x21c>
     ae0:	f01ff06f          	j	9e0 <printint+0x20c>
     ae4:	00f00713          	li	a4,15
     ae8:	00e00413          	li	s0,14
     aec:	f00682e3          	beqz	a3,9f0 <printint+0x21c>
     af0:	ef1ff06f          	j	9e0 <printint+0x20c>

00000af4 <printf>:
     af4:	f9010113          	addi	sp,sp,-112
     af8:	03312e23          	sw	s3,60(sp)
     afc:	04112623          	sw	ra,76(sp)
     b00:	00050993          	mv	s3,a0
     b04:	00054503          	lbu	a0,0(a0)
     b08:	05410313          	addi	t1,sp,84
     b0c:	04b12a23          	sw	a1,84(sp)
     b10:	04c12c23          	sw	a2,88(sp)
     b14:	04d12e23          	sw	a3,92(sp)
     b18:	06e12023          	sw	a4,96(sp)
     b1c:	06f12223          	sw	a5,100(sp)
     b20:	07012423          	sw	a6,104(sp)
     b24:	07112623          	sw	a7,108(sp)
     b28:	00612623          	sw	t1,12(sp)
     b2c:	28050263          	beqz	a0,db0 <printf+0x2bc>
     b30:	03612823          	sw	s6,48(sp)
     b34:	0000cb37          	lui	s6,0xc
     b38:	04912223          	sw	s1,68(sp)
     b3c:	05212023          	sw	s2,64(sp)
     b40:	03412c23          	sw	s4,56(sp)
     b44:	03512a23          	sw	s5,52(sp)
     b48:	03712623          	sw	s7,44(sp)
     b4c:	03812423          	sw	s8,40(sp)
     b50:	04812423          	sw	s0,72(sp)
     b54:	00000493          	li	s1,0
     b58:	c14b0b13          	addi	s6,s6,-1004 # bc14 <digits.0>
     b5c:	02500a13          	li	s4,37
     b60:	07000a93          	li	s5,112
     b64:	01010c13          	addi	s8,sp,16
     b68:	00f10913          	addi	s2,sp,15
     b6c:	07300b93          	li	s7,115
     b70:	27451463          	bne	a0,s4,dd8 <printf+0x2e4>
     b74:	00148493          	addi	s1,s1,1
     b78:	009987b3          	add	a5,s3,s1
     b7c:	0007c403          	lbu	s0,0(a5)
     b80:	20040863          	beqz	s0,d90 <printf+0x29c>
     b84:	29540c63          	beq	s0,s5,e1c <printf+0x328>
     b88:	228aec63          	bltu	s5,s0,dc0 <printf+0x2cc>
     b8c:	41440c63          	beq	s0,s4,fa4 <printf+0x4b0>
     b90:	06400793          	li	a5,100
     b94:	22f41c63          	bne	s0,a5,dcc <printf+0x2d8>
     b98:	00c12783          	lw	a5,12(sp)
     b9c:	0007a703          	lw	a4,0(a5)
     ba0:	00478793          	addi	a5,a5,4
     ba4:	00f12623          	sw	a5,12(sp)
     ba8:	40074463          	bltz	a4,fb0 <printf+0x4bc>
     bac:	66666437          	lui	s0,0x66666
     bb0:	66740413          	addi	s0,s0,1639 # 66666667 <end+0x66659f6a>
     bb4:	02871433          	mulh	s0,a4,s0
     bb8:	41f75793          	srai	a5,a4,0x1f
     bbc:	0000c6b7          	lui	a3,0xc
     bc0:	c1468693          	addi	a3,a3,-1004 # bc14 <digits.0>
     bc4:	40245413          	srai	s0,s0,0x2
     bc8:	40f40433          	sub	s0,s0,a5
     bcc:	00241793          	slli	a5,s0,0x2
     bd0:	008787b3          	add	a5,a5,s0
     bd4:	00179793          	slli	a5,a5,0x1
     bd8:	40f70733          	sub	a4,a4,a5
     bdc:	00e68733          	add	a4,a3,a4
     be0:	00074783          	lbu	a5,0(a4)
     be4:	00f10823          	sb	a5,16(sp)
     be8:	18040263          	beqz	s0,d6c <printf+0x278>
     bec:	ccccd7b7          	lui	a5,0xccccd
     bf0:	ccd78793          	addi	a5,a5,-819 # cccccccd <end+0xcccc05d0>
     bf4:	02f43733          	mulhu	a4,s0,a5
     bf8:	00375713          	srli	a4,a4,0x3
     bfc:	00271613          	slli	a2,a4,0x2
     c00:	00e60633          	add	a2,a2,a4
     c04:	00161613          	slli	a2,a2,0x1
     c08:	40c40433          	sub	s0,s0,a2
     c0c:	00868433          	add	s0,a3,s0
     c10:	00044603          	lbu	a2,0(s0)
     c14:	00100413          	li	s0,1
     c18:	00c108a3          	sb	a2,17(sp)
     c1c:	14070863          	beqz	a4,d6c <printf+0x278>
     c20:	02f737b3          	mulhu	a5,a4,a5
     c24:	0037d793          	srli	a5,a5,0x3
     c28:	00279613          	slli	a2,a5,0x2
     c2c:	00f60633          	add	a2,a2,a5
     c30:	00161613          	slli	a2,a2,0x1
     c34:	40c70733          	sub	a4,a4,a2
     c38:	00e68733          	add	a4,a3,a4
     c3c:	00074703          	lbu	a4,0(a4)
     c40:	00e10923          	sb	a4,18(sp)
     c44:	42078063          	beqz	a5,1064 <printf+0x570>
     c48:	00000593          	li	a1,0
     c4c:	ccccd737          	lui	a4,0xccccd
     c50:	ccd70713          	addi	a4,a4,-819 # cccccccd <end+0xcccc05d0>
     c54:	02e7b633          	mulhu	a2,a5,a4
     c58:	00365613          	srli	a2,a2,0x3
     c5c:	00261513          	slli	a0,a2,0x2
     c60:	00c50533          	add	a0,a0,a2
     c64:	00151513          	slli	a0,a0,0x1
     c68:	40a787b3          	sub	a5,a5,a0
     c6c:	00f687b3          	add	a5,a3,a5
     c70:	0007c783          	lbu	a5,0(a5)
     c74:	00f109a3          	sb	a5,19(sp)
     c78:	40060663          	beqz	a2,1084 <printf+0x590>
     c7c:	02e637b3          	mulhu	a5,a2,a4
     c80:	0037d793          	srli	a5,a5,0x3
     c84:	00279513          	slli	a0,a5,0x2
     c88:	00f50533          	add	a0,a0,a5
     c8c:	00151513          	slli	a0,a0,0x1
     c90:	40a60633          	sub	a2,a2,a0
     c94:	00c68633          	add	a2,a3,a2
     c98:	00064603          	lbu	a2,0(a2)
     c9c:	00c10a23          	sb	a2,20(sp)
     ca0:	3e078863          	beqz	a5,1090 <printf+0x59c>
     ca4:	02e7b633          	mulhu	a2,a5,a4
     ca8:	00365613          	srli	a2,a2,0x3
     cac:	00261513          	slli	a0,a2,0x2
     cb0:	00c50533          	add	a0,a0,a2
     cb4:	00151513          	slli	a0,a0,0x1
     cb8:	40a787b3          	sub	a5,a5,a0
     cbc:	00f687b3          	add	a5,a3,a5
     cc0:	0007c783          	lbu	a5,0(a5)
     cc4:	00f10aa3          	sb	a5,21(sp)
     cc8:	3e060263          	beqz	a2,10ac <printf+0x5b8>
     ccc:	02e637b3          	mulhu	a5,a2,a4
     cd0:	0037d793          	srli	a5,a5,0x3
     cd4:	00279513          	slli	a0,a5,0x2
     cd8:	00f50533          	add	a0,a0,a5
     cdc:	00151513          	slli	a0,a0,0x1
     ce0:	40a60633          	sub	a2,a2,a0
     ce4:	00c68633          	add	a2,a3,a2
     ce8:	00064603          	lbu	a2,0(a2)
     cec:	00c10b23          	sb	a2,22(sp)
     cf0:	3c078863          	beqz	a5,10c0 <printf+0x5cc>
     cf4:	02e7b633          	mulhu	a2,a5,a4
     cf8:	00365613          	srli	a2,a2,0x3
     cfc:	00261513          	slli	a0,a2,0x2
     d00:	00c50533          	add	a0,a0,a2
     d04:	00151513          	slli	a0,a0,0x1
     d08:	40a787b3          	sub	a5,a5,a0
     d0c:	00f687b3          	add	a5,a3,a5
     d10:	0007c783          	lbu	a5,0(a5)
     d14:	00f10ba3          	sb	a5,23(sp)
     d18:	3c060263          	beqz	a2,10dc <printf+0x5e8>
     d1c:	02e63733          	mulhu	a4,a2,a4
     d20:	00375713          	srli	a4,a4,0x3
     d24:	00271793          	slli	a5,a4,0x2
     d28:	00e787b3          	add	a5,a5,a4
     d2c:	00179793          	slli	a5,a5,0x1
     d30:	40f60633          	sub	a2,a2,a5
     d34:	00c68633          	add	a2,a3,a2
     d38:	00064783          	lbu	a5,0(a2)
     d3c:	00f10c23          	sb	a5,24(sp)
     d40:	30070c63          	beqz	a4,1058 <printf+0x564>
     d44:	00e68733          	add	a4,a3,a4
     d48:	00074703          	lbu	a4,0(a4)
     d4c:	00a00793          	li	a5,10
     d50:	00900413          	li	s0,9
     d54:	00e10ca3          	sb	a4,25(sp)
     d58:	00058a63          	beqz	a1,d6c <printf+0x278>
     d5c:	00278733          	add	a4,a5,sp
     d60:	02d00693          	li	a3,45
     d64:	00078413          	mv	s0,a5
     d68:	00d70823          	sb	a3,16(a4)
     d6c:	01840433          	add	s0,s0,s8
     d70:	00044503          	lbu	a0,0(s0)
     d74:	fff40413          	addi	s0,s0,-1
     d78:	488000ef          	jal	1200 <putchar>
     d7c:	fe891ae3          	bne	s2,s0,d70 <printf+0x27c>
     d80:	00148493          	addi	s1,s1,1
     d84:	009987b3          	add	a5,s3,s1
     d88:	0007c503          	lbu	a0,0(a5)
     d8c:	de0512e3          	bnez	a0,b70 <printf+0x7c>
     d90:	04812403          	lw	s0,72(sp)
     d94:	04412483          	lw	s1,68(sp)
     d98:	04012903          	lw	s2,64(sp)
     d9c:	03812a03          	lw	s4,56(sp)
     da0:	03412a83          	lw	s5,52(sp)
     da4:	03012b03          	lw	s6,48(sp)
     da8:	02c12b83          	lw	s7,44(sp)
     dac:	02812c03          	lw	s8,40(sp)
     db0:	04c12083          	lw	ra,76(sp)
     db4:	03c12983          	lw	s3,60(sp)
     db8:	07010113          	addi	sp,sp,112
     dbc:	00008067          	ret
     dc0:	03740863          	beq	s0,s7,df0 <printf+0x2fc>
     dc4:	07800793          	li	a5,120
     dc8:	04f40a63          	beq	s0,a5,e1c <printf+0x328>
     dcc:	02500513          	li	a0,37
     dd0:	430000ef          	jal	1200 <putchar>
     dd4:	00040513          	mv	a0,s0
     dd8:	428000ef          	jal	1200 <putchar>
     ddc:	00148493          	addi	s1,s1,1
     de0:	009987b3          	add	a5,s3,s1
     de4:	0007c503          	lbu	a0,0(a5)
     de8:	d80514e3          	bnez	a0,b70 <printf+0x7c>
     dec:	fa5ff06f          	j	d90 <printf+0x29c>
     df0:	00c12783          	lw	a5,12(sp)
     df4:	0007a403          	lw	s0,0(a5)
     df8:	00478793          	addi	a5,a5,4
     dfc:	00f12623          	sw	a5,12(sp)
     e00:	00041863          	bnez	s0,e10 <printf+0x31c>
     e04:	2440006f          	j	1048 <printf+0x554>
     e08:	3f8000ef          	jal	1200 <putchar>
     e0c:	00140413          	addi	s0,s0,1
     e10:	00044503          	lbu	a0,0(s0)
     e14:	fe051ae3          	bnez	a0,e08 <printf+0x314>
     e18:	fc5ff06f          	j	ddc <printf+0x2e8>
     e1c:	00c12783          	lw	a5,12(sp)
     e20:	0007a683          	lw	a3,0(a5)
     e24:	00478793          	addi	a5,a5,4
     e28:	00f12623          	sw	a5,12(sp)
     e2c:	41f6d793          	srai	a5,a3,0x1f
     e30:	01c7d613          	srli	a2,a5,0x1c
     e34:	00c68733          	add	a4,a3,a2
     e38:	00f77713          	andi	a4,a4,15
     e3c:	40c70733          	sub	a4,a4,a2
     e40:	00eb0733          	add	a4,s6,a4
     e44:	00074703          	lbu	a4,0(a4)
     e48:	00f7f793          	andi	a5,a5,15
     e4c:	00d787b3          	add	a5,a5,a3
     e50:	00e10823          	sb	a4,16(sp)
     e54:	4047d413          	srai	s0,a5,0x4
     e58:	12040a63          	beqz	s0,f8c <printf+0x498>
     e5c:	41f7d793          	srai	a5,a5,0x1f
     e60:	01c7d693          	srli	a3,a5,0x1c
     e64:	00d40733          	add	a4,s0,a3
     e68:	00f77713          	andi	a4,a4,15
     e6c:	40d70733          	sub	a4,a4,a3
     e70:	00eb0733          	add	a4,s6,a4
     e74:	00074703          	lbu	a4,0(a4)
     e78:	00f7f793          	andi	a5,a5,15
     e7c:	008787b3          	add	a5,a5,s0
     e80:	00e108a3          	sb	a4,17(sp)
     e84:	4047d693          	srai	a3,a5,0x4
     e88:	1e068263          	beqz	a3,106c <printf+0x578>
     e8c:	41f7d793          	srai	a5,a5,0x1f
     e90:	01c7d613          	srli	a2,a5,0x1c
     e94:	00c68733          	add	a4,a3,a2
     e98:	00f77713          	andi	a4,a4,15
     e9c:	40c70733          	sub	a4,a4,a2
     ea0:	00eb0733          	add	a4,s6,a4
     ea4:	00074703          	lbu	a4,0(a4)
     ea8:	00f7f793          	andi	a5,a5,15
     eac:	00d787b3          	add	a5,a5,a3
     eb0:	00e10923          	sb	a4,18(sp)
     eb4:	4047d693          	srai	a3,a5,0x4
     eb8:	1a068e63          	beqz	a3,1074 <printf+0x580>
     ebc:	41f7d793          	srai	a5,a5,0x1f
     ec0:	01c7d613          	srli	a2,a5,0x1c
     ec4:	00c68733          	add	a4,a3,a2
     ec8:	00f77713          	andi	a4,a4,15
     ecc:	40c70733          	sub	a4,a4,a2
     ed0:	00eb0733          	add	a4,s6,a4
     ed4:	00074703          	lbu	a4,0(a4)
     ed8:	00f7f793          	andi	a5,a5,15
     edc:	00d787b3          	add	a5,a5,a3
     ee0:	00e109a3          	sb	a4,19(sp)
     ee4:	4047d693          	srai	a3,a5,0x4
     ee8:	18068a63          	beqz	a3,107c <printf+0x588>
     eec:	41f7d793          	srai	a5,a5,0x1f
     ef0:	01c7d613          	srli	a2,a5,0x1c
     ef4:	00c68733          	add	a4,a3,a2
     ef8:	00f77713          	andi	a4,a4,15
     efc:	40c70733          	sub	a4,a4,a2
     f00:	00eb0733          	add	a4,s6,a4
     f04:	00074703          	lbu	a4,0(a4)
     f08:	00f7f793          	andi	a5,a5,15
     f0c:	00d787b3          	add	a5,a5,a3
     f10:	00e10a23          	sb	a4,20(sp)
     f14:	4047d693          	srai	a3,a5,0x4
     f18:	18068263          	beqz	a3,109c <printf+0x5a8>
     f1c:	41f7d793          	srai	a5,a5,0x1f
     f20:	01c7d613          	srli	a2,a5,0x1c
     f24:	00c68733          	add	a4,a3,a2
     f28:	00f77713          	andi	a4,a4,15
     f2c:	40c70733          	sub	a4,a4,a2
     f30:	00eb0733          	add	a4,s6,a4
     f34:	00074703          	lbu	a4,0(a4)
     f38:	00f7f793          	andi	a5,a5,15
     f3c:	00d787b3          	add	a5,a5,a3
     f40:	00e10aa3          	sb	a4,21(sp)
     f44:	4047d693          	srai	a3,a5,0x4
     f48:	14068e63          	beqz	a3,10a4 <printf+0x5b0>
     f4c:	41f7d793          	srai	a5,a5,0x1f
     f50:	01c7d613          	srli	a2,a5,0x1c
     f54:	00c68733          	add	a4,a3,a2
     f58:	00f77713          	andi	a4,a4,15
     f5c:	40c70733          	sub	a4,a4,a2
     f60:	00eb0733          	add	a4,s6,a4
     f64:	00074703          	lbu	a4,0(a4)
     f68:	00f7f793          	andi	a5,a5,15
     f6c:	00d787b3          	add	a5,a5,a3
     f70:	00e10b23          	sb	a4,22(sp)
     f74:	4047d793          	srai	a5,a5,0x4
     f78:	14078a63          	beqz	a5,10cc <printf+0x5d8>
     f7c:	00fb07b3          	add	a5,s6,a5
     f80:	0007c783          	lbu	a5,0(a5)
     f84:	00700413          	li	s0,7
     f88:	00f10ba3          	sb	a5,23(sp)
     f8c:	01840433          	add	s0,s0,s8
     f90:	00044503          	lbu	a0,0(s0)
     f94:	fff40413          	addi	s0,s0,-1
     f98:	268000ef          	jal	1200 <putchar>
     f9c:	fe891ae3          	bne	s2,s0,f90 <printf+0x49c>
     fa0:	e3dff06f          	j	ddc <printf+0x2e8>
     fa4:	000a0513          	mv	a0,s4
     fa8:	258000ef          	jal	1200 <putchar>
     fac:	e31ff06f          	j	ddc <printf+0x2e8>
     fb0:	ccccd7b7          	lui	a5,0xccccd
     fb4:	40e00733          	neg	a4,a4
     fb8:	ccd78793          	addi	a5,a5,-819 # cccccccd <end+0xcccc05d0>
     fbc:	02f73633          	mulhu	a2,a4,a5
     fc0:	0000c6b7          	lui	a3,0xc
     fc4:	c1468693          	addi	a3,a3,-1004 # bc14 <digits.0>
     fc8:	00365613          	srli	a2,a2,0x3
     fcc:	00261593          	slli	a1,a2,0x2
     fd0:	00c585b3          	add	a1,a1,a2
     fd4:	00159593          	slli	a1,a1,0x1
     fd8:	40b70733          	sub	a4,a4,a1
     fdc:	00e68733          	add	a4,a3,a4
     fe0:	00074703          	lbu	a4,0(a4)
     fe4:	00e10823          	sb	a4,16(sp)
     fe8:	0c060863          	beqz	a2,10b8 <printf+0x5c4>
     fec:	02f63733          	mulhu	a4,a2,a5
     ff0:	00375713          	srli	a4,a4,0x3
     ff4:	00271593          	slli	a1,a4,0x2
     ff8:	00e585b3          	add	a1,a1,a4
     ffc:	00159593          	slli	a1,a1,0x1
    1000:	40b60633          	sub	a2,a2,a1
    1004:	00c68633          	add	a2,a3,a2
    1008:	00064603          	lbu	a2,0(a2)
    100c:	00c108a3          	sb	a2,17(sp)
    1010:	0c070263          	beqz	a4,10d4 <printf+0x5e0>
    1014:	02f737b3          	mulhu	a5,a4,a5
    1018:	00100593          	li	a1,1
    101c:	0037d793          	srli	a5,a5,0x3
    1020:	00279613          	slli	a2,a5,0x2
    1024:	00f60633          	add	a2,a2,a5
    1028:	00161613          	slli	a2,a2,0x1
    102c:	40c70733          	sub	a4,a4,a2
    1030:	00e68733          	add	a4,a3,a4
    1034:	00074703          	lbu	a4,0(a4)
    1038:	00e10923          	sb	a4,18(sp)
    103c:	c00798e3          	bnez	a5,c4c <printf+0x158>
    1040:	00300793          	li	a5,3
    1044:	d19ff06f          	j	d5c <printf+0x268>
    1048:	0000c437          	lui	s0,0xc
    104c:	99040413          	addi	s0,s0,-1648 # b990 <pass+0x2ec>
    1050:	02800513          	li	a0,40
    1054:	db5ff06f          	j	e08 <printf+0x314>
    1058:	00900793          	li	a5,9
    105c:	00800413          	li	s0,8
    1060:	cf9ff06f          	j	d58 <printf+0x264>
    1064:	00200413          	li	s0,2
    1068:	d05ff06f          	j	d6c <printf+0x278>
    106c:	00100413          	li	s0,1
    1070:	f1dff06f          	j	f8c <printf+0x498>
    1074:	00200413          	li	s0,2
    1078:	f15ff06f          	j	f8c <printf+0x498>
    107c:	00300413          	li	s0,3
    1080:	f0dff06f          	j	f8c <printf+0x498>
    1084:	00400793          	li	a5,4
    1088:	00300413          	li	s0,3
    108c:	ccdff06f          	j	d58 <printf+0x264>
    1090:	00500793          	li	a5,5
    1094:	00400413          	li	s0,4
    1098:	cc1ff06f          	j	d58 <printf+0x264>
    109c:	00400413          	li	s0,4
    10a0:	eedff06f          	j	f8c <printf+0x498>
    10a4:	00500413          	li	s0,5
    10a8:	ee5ff06f          	j	f8c <printf+0x498>
    10ac:	00600793          	li	a5,6
    10b0:	00500413          	li	s0,5
    10b4:	ca5ff06f          	j	d58 <printf+0x264>
    10b8:	00100793          	li	a5,1
    10bc:	ca1ff06f          	j	d5c <printf+0x268>
    10c0:	00700793          	li	a5,7
    10c4:	00600413          	li	s0,6
    10c8:	c91ff06f          	j	d58 <printf+0x264>
    10cc:	00600413          	li	s0,6
    10d0:	ebdff06f          	j	f8c <printf+0x498>
    10d4:	00200793          	li	a5,2
    10d8:	c85ff06f          	j	d5c <printf+0x268>
    10dc:	00800793          	li	a5,8
    10e0:	00700413          	li	s0,7
    10e4:	c75ff06f          	j	d58 <printf+0x264>

000010e8 <init_trap>:
    10e8:	000017b7          	lui	a5,0x1
    10ec:	26478793          	addi	a5,a5,612 # 1264 <trap_vector>
    10f0:	30579073          	csrw	mtvec,a5
    10f4:	00008067          	ret

000010f8 <trap_entry>:
    10f8:	0000c537          	lui	a0,0xc
    10fc:	ff010113          	addi	sp,sp,-16
    1100:	99850513          	addi	a0,a0,-1640 # b998 <pass+0x2f4>
    1104:	00112623          	sw	ra,12(sp)
    1108:	00812423          	sw	s0,8(sp)
    110c:	e8cff0ef          	jal	798 <puts>
    1110:	0000c537          	lui	a0,0xc
    1114:	9a850513          	addi	a0,a0,-1624 # b9a8 <pass+0x304>
    1118:	e80ff0ef          	jal	798 <puts>
    111c:	34202473          	csrr	s0,mcause
    1120:	00000613          	li	a2,0
    1124:	01000593          	li	a1,16
    1128:	00040513          	mv	a0,s0
    112c:	ea8ff0ef          	jal	7d4 <printint>
    1130:	0000c537          	lui	a0,0xc
    1134:	9b450513          	addi	a0,a0,-1612 # b9b4 <pass+0x310>
    1138:	e60ff0ef          	jal	798 <puts>
    113c:	00200793          	li	a5,2
    1140:	04f40463          	beq	s0,a5,1188 <trap_entry+0x90>
    1144:	00b00793          	li	a5,11
    1148:	04f40e63          	beq	s0,a5,11a4 <trap_entry+0xac>
    114c:	00700793          	li	a5,7
    1150:	00f40e63          	beq	s0,a5,116c <trap_entry+0x74>
    1154:	00812403          	lw	s0,8(sp)
    1158:	00c12083          	lw	ra,12(sp)
    115c:	0000c537          	lui	a0,0xc
    1160:	a0c50513          	addi	a0,a0,-1524 # ba0c <pass+0x368>
    1164:	01010113          	addi	sp,sp,16
    1168:	e30ff06f          	j	798 <puts>
    116c:	0000c537          	lui	a0,0xc
    1170:	9f050513          	addi	a0,a0,-1552 # b9f0 <pass+0x34c>
    1174:	e24ff0ef          	jal	798 <puts>
    1178:	00812403          	lw	s0,8(sp)
    117c:	00c12083          	lw	ra,12(sp)
    1180:	01010113          	addi	sp,sp,16
    1184:	0d00006f          	j	1254 <clear_timer>
    1188:	0000c537          	lui	a0,0xc
    118c:	9b850513          	addi	a0,a0,-1608 # b9b8 <pass+0x314>
    1190:	e08ff0ef          	jal	798 <puts>
    1194:	00812403          	lw	s0,8(sp)
    1198:	00c12083          	lw	ra,12(sp)
    119c:	01010113          	addi	sp,sp,16
    11a0:	0840006f          	j	1224 <ebreak>
    11a4:	00812403          	lw	s0,8(sp)
    11a8:	00c12083          	lw	ra,12(sp)
    11ac:	0000c537          	lui	a0,0xc
    11b0:	9dc50513          	addi	a0,a0,-1572 # b9dc <pass+0x338>
    11b4:	01010113          	addi	sp,sp,16
    11b8:	de0ff06f          	j	798 <puts>

000011bc <pvadd>:
    11bc:	00b5155b          	.word	0x00b5155b
    11c0:	00008067          	ret

000011c4 <pvmul>:
    11c4:	02b5155b          	.word	0x02b5155b
    11c8:	00008067          	ret

000011cc <pvmul_upper>:
    11cc:	06b5155b          	.word	0x06b5155b
    11d0:	00008067          	ret

000011d4 <pvmac>:
    11d4:	04b5155b          	.word	0x04b5155b
    11d8:	00008067          	ret

000011dc <illegal_instruction>:
    11dc:	00000000          	.word	0x00000000

000011e0 <write_cycle_counter>:
    11e0:	00008067          	ret

000011e4 <read_cycle_counter>:
    11e4:	00008067          	ret

000011e8 <getchar>:
    11e8:	10000fb7          	lui	t6,0x10000

000011ec <getchar_wait>:
    11ec:	004f9283          	lh	t0,4(t6) # 10000004 <end+0xfff3907>
    11f0:	4082d313          	srai	t1,t0,0x8
    11f4:	fe030ce3          	beqz	t1,11ec <getchar_wait>
    11f8:	0ff2f513          	zext.b	a0,t0
    11fc:	00008067          	ret

00001200 <putchar>:
    1200:	10000fb7          	lui	t6,0x10000
    1204:	00af8023          	sb	a0,0(t6) # 10000000 <end+0xfff3903>
    1208:	00000513          	li	a0,0
    120c:	00008067          	ret

00001210 <fflush>:
    1210:	10000fb7          	lui	t6,0x10000

00001214 <fflush_wait>:
    1214:	008f8283          	lb	t0,8(t6) # 10000008 <end+0xfff390b>
    1218:	fe029ee3          	bnez	t0,1214 <fflush_wait>
    121c:	00000513          	li	a0,0
    1220:	00008067          	ret

00001224 <ebreak>:
    1224:	00100073          	ebreak

00001228 <halt>:
    1228:	0000006f          	j	1228 <halt>

0000122c <set_timer>:
    122c:	200002b7          	lui	t0,0x20000
    1230:	00a2a423          	sw	a0,8(t0) # 20000008 <end+0x1fff390b>
    1234:	00b2a623          	sw	a1,12(t0)
    1238:	00008067          	ret

0000123c <read_timer>:
    123c:	200002b7          	lui	t0,0x20000
    1240:	0082a303          	lw	t1,8(t0) # 20000008 <end+0x1fff390b>
    1244:	00c2a383          	lw	t2,12(t0)
    1248:	00652023          	sw	t1,0(a0)
    124c:	0075a023          	sw	t2,0(a1)
    1250:	00008067          	ret

00001254 <clear_timer>:
    1254:	200002b7          	lui	t0,0x20000
    1258:	0002a423          	sw	zero,8(t0) # 20000008 <end+0x1fff390b>
    125c:	0002a623          	sw	zero,12(t0)
    1260:	00008067          	ret

00001264 <trap_vector>:
    1264:	f8410113          	addi	sp,sp,-124
    1268:	00112023          	sw	ra,0(sp)
    126c:	00312423          	sw	gp,8(sp)
    1270:	00412623          	sw	tp,12(sp)
    1274:	00512823          	sw	t0,16(sp)
    1278:	00612a23          	sw	t1,20(sp)
    127c:	00712c23          	sw	t2,24(sp)
    1280:	00812e23          	sw	s0,28(sp)
    1284:	02912023          	sw	s1,32(sp)
    1288:	02a12223          	sw	a0,36(sp)
    128c:	02b12423          	sw	a1,40(sp)
    1290:	02c12623          	sw	a2,44(sp)
    1294:	02d12823          	sw	a3,48(sp)
    1298:	02e12a23          	sw	a4,52(sp)
    129c:	02f12c23          	sw	a5,56(sp)
    12a0:	03012e23          	sw	a6,60(sp)
    12a4:	05112023          	sw	a7,64(sp)
    12a8:	05212223          	sw	s2,68(sp)
    12ac:	05312423          	sw	s3,72(sp)
    12b0:	05412623          	sw	s4,76(sp)
    12b4:	05512823          	sw	s5,80(sp)
    12b8:	05612a23          	sw	s6,84(sp)
    12bc:	05712c23          	sw	s7,88(sp)
    12c0:	05812e23          	sw	s8,92(sp)
    12c4:	07912023          	sw	s9,96(sp)
    12c8:	07a12223          	sw	s10,100(sp)
    12cc:	07b12423          	sw	s11,104(sp)
    12d0:	07c12623          	sw	t3,108(sp)
    12d4:	07d12823          	sw	t4,112(sp)
    12d8:	07e12a23          	sw	t5,116(sp)
    12dc:	07f12c23          	sw	t6,120(sp)
    12e0:	07c10293          	addi	t0,sp,124
    12e4:	00512223          	sw	t0,4(sp)
    12e8:	e11ff0ef          	jal	10f8 <trap_entry>

000012ec <trap_return>:
    12ec:	00812183          	lw	gp,8(sp)
    12f0:	00c12203          	lw	tp,12(sp)
    12f4:	01012283          	lw	t0,16(sp)
    12f8:	01412303          	lw	t1,20(sp)
    12fc:	01812383          	lw	t2,24(sp)
    1300:	01c12403          	lw	s0,28(sp)
    1304:	02012483          	lw	s1,32(sp)
    1308:	02412503          	lw	a0,36(sp)
    130c:	02812583          	lw	a1,40(sp)
    1310:	02c12603          	lw	a2,44(sp)
    1314:	03012683          	lw	a3,48(sp)
    1318:	03412703          	lw	a4,52(sp)
    131c:	03812783          	lw	a5,56(sp)
    1320:	03c12803          	lw	a6,60(sp)
    1324:	04012883          	lw	a7,64(sp)
    1328:	04412903          	lw	s2,68(sp)
    132c:	04812983          	lw	s3,72(sp)
    1330:	04c12a03          	lw	s4,76(sp)
    1334:	05012a83          	lw	s5,80(sp)
    1338:	05412b03          	lw	s6,84(sp)
    133c:	05812b83          	lw	s7,88(sp)
    1340:	05c12c03          	lw	s8,92(sp)
    1344:	06012c83          	lw	s9,96(sp)
    1348:	06412d03          	lw	s10,100(sp)
    134c:	06812d83          	lw	s11,104(sp)
    1350:	06c12e03          	lw	t3,108(sp)
    1354:	07012e83          	lw	t4,112(sp)
    1358:	07412f03          	lw	t5,116(sp)
    135c:	00800293          	li	t0,8
    1360:	30029073          	csrw	mstatus,t0
    1364:	07812f83          	lw	t6,120(sp)
    1368:	00012083          	lw	ra,0(sp)
    136c:	07c10113          	addi	sp,sp,124
    1370:	30200073          	mret

00001374 <ecall>:
    1374:	00000073          	ecall

00001378 <add>:
    1378:	00001537          	lui	a0,0x1
    137c:	39c50513          	addi	a0,a0,924 # 139c <.test_name>
    1380:	00000613          	li	a2,0
    1384:	10000637          	lui	a2,0x10000

00001388 <.prname_next>:
    1388:	00050583          	lb	a1,0(a0)
    138c:	00058a63          	beqz	a1,13a0 <.prname_done>
    1390:	00b62023          	sw	a1,0(a2) # 10000000 <end+0xfff3903>
    1394:	00150513          	addi	a0,a0,1
    1398:	ff1ff06f          	j	1388 <.prname_next>

0000139c <.test_name>:
    139c:	00646461          	.word	0x00646461

000013a0 <.prname_done>:
    13a0:	00000613          	li	a2,0
    13a4:	10000637          	lui	a2,0x10000
    13a8:	02e00593          	li	a1,46
    13ac:	00b62023          	sw	a1,0(a2) # 10000000 <end+0xfff3903>
    13b0:	00b62023          	sw	a1,0(a2)

000013b4 <test_2>:
    13b4:	00000093          	li	ra,0
    13b8:	00000113          	li	sp,0
    13bc:	002081b3          	add	gp,ra,sp
    13c0:	00000e93          	li	t4,0
    13c4:	00200e13          	li	t3,2
    13c8:	4dd19663          	bne	gp,t4,1894 <fail>

000013cc <test_3>:
    13cc:	00100093          	li	ra,1
    13d0:	00100113          	li	sp,1
    13d4:	002081b3          	add	gp,ra,sp
    13d8:	00200e93          	li	t4,2
    13dc:	00300e13          	li	t3,3
    13e0:	4bd19a63          	bne	gp,t4,1894 <fail>

000013e4 <test_4>:
    13e4:	00300093          	li	ra,3
    13e8:	00700113          	li	sp,7
    13ec:	002081b3          	add	gp,ra,sp
    13f0:	00a00e93          	li	t4,10
    13f4:	00400e13          	li	t3,4
    13f8:	49d19e63          	bne	gp,t4,1894 <fail>

000013fc <test_5>:
    13fc:	00000093          	li	ra,0
    1400:	ffff8137          	lui	sp,0xffff8
    1404:	002081b3          	add	gp,ra,sp
    1408:	ffff8eb7          	lui	t4,0xffff8
    140c:	00500e13          	li	t3,5
    1410:	49d19263          	bne	gp,t4,1894 <fail>

00001414 <test_6>:
    1414:	800000b7          	lui	ra,0x80000
    1418:	00000113          	li	sp,0
    141c:	002081b3          	add	gp,ra,sp
    1420:	80000eb7          	lui	t4,0x80000
    1424:	00600e13          	li	t3,6
    1428:	47d19663          	bne	gp,t4,1894 <fail>

0000142c <test_7>:
    142c:	800000b7          	lui	ra,0x80000
    1430:	ffff8137          	lui	sp,0xffff8
    1434:	002081b3          	add	gp,ra,sp
    1438:	7fff8eb7          	lui	t4,0x7fff8
    143c:	00700e13          	li	t3,7
    1440:	45d19a63          	bne	gp,t4,1894 <fail>

00001444 <test_8>:
    1444:	00000093          	li	ra,0
    1448:	00008137          	lui	sp,0x8
    144c:	fff10113          	addi	sp,sp,-1 # 7fff <test_12+0x7>
    1450:	002081b3          	add	gp,ra,sp
    1454:	00008eb7          	lui	t4,0x8
    1458:	fffe8e93          	addi	t4,t4,-1 # 7fff <test_12+0x7>
    145c:	00800e13          	li	t3,8
    1460:	43d19a63          	bne	gp,t4,1894 <fail>

00001464 <test_9>:
    1464:	800000b7          	lui	ra,0x80000
    1468:	fff08093          	addi	ra,ra,-1 # 7fffffff <end+0x7fff3902>
    146c:	00000113          	li	sp,0
    1470:	002081b3          	add	gp,ra,sp
    1474:	80000eb7          	lui	t4,0x80000
    1478:	fffe8e93          	addi	t4,t4,-1 # 7fffffff <end+0x7fff3902>
    147c:	00900e13          	li	t3,9
    1480:	41d19a63          	bne	gp,t4,1894 <fail>

00001484 <test_10>:
    1484:	800000b7          	lui	ra,0x80000
    1488:	fff08093          	addi	ra,ra,-1 # 7fffffff <end+0x7fff3902>
    148c:	00008137          	lui	sp,0x8
    1490:	fff10113          	addi	sp,sp,-1 # 7fff <test_12+0x7>
    1494:	002081b3          	add	gp,ra,sp
    1498:	80008eb7          	lui	t4,0x80008
    149c:	ffee8e93          	addi	t4,t4,-2 # 80007ffe <end+0x7fffb901>
    14a0:	00a00e13          	li	t3,10
    14a4:	3fd19863          	bne	gp,t4,1894 <fail>

000014a8 <test_11>:
    14a8:	800000b7          	lui	ra,0x80000
    14ac:	00008137          	lui	sp,0x8
    14b0:	fff10113          	addi	sp,sp,-1 # 7fff <test_12+0x7>
    14b4:	002081b3          	add	gp,ra,sp
    14b8:	80008eb7          	lui	t4,0x80008
    14bc:	fffe8e93          	addi	t4,t4,-1 # 80007fff <end+0x7fffb902>
    14c0:	00b00e13          	li	t3,11
    14c4:	3dd19863          	bne	gp,t4,1894 <fail>

000014c8 <test_12>:
    14c8:	800000b7          	lui	ra,0x80000
    14cc:	fff08093          	addi	ra,ra,-1 # 7fffffff <end+0x7fff3902>
    14d0:	ffff8137          	lui	sp,0xffff8
    14d4:	002081b3          	add	gp,ra,sp
    14d8:	7fff8eb7          	lui	t4,0x7fff8
    14dc:	fffe8e93          	addi	t4,t4,-1 # 7fff7fff <end+0x7ffeb902>
    14e0:	00c00e13          	li	t3,12
    14e4:	3bd19863          	bne	gp,t4,1894 <fail>

000014e8 <test_13>:
    14e8:	00000093          	li	ra,0
    14ec:	fff00113          	li	sp,-1
    14f0:	002081b3          	add	gp,ra,sp
    14f4:	fff00e93          	li	t4,-1
    14f8:	00d00e13          	li	t3,13
    14fc:	39d19c63          	bne	gp,t4,1894 <fail>

00001500 <test_14>:
    1500:	fff00093          	li	ra,-1
    1504:	00100113          	li	sp,1
    1508:	002081b3          	add	gp,ra,sp
    150c:	00000e93          	li	t4,0
    1510:	00e00e13          	li	t3,14
    1514:	39d19063          	bne	gp,t4,1894 <fail>

00001518 <test_15>:
    1518:	fff00093          	li	ra,-1
    151c:	fff00113          	li	sp,-1
    1520:	002081b3          	add	gp,ra,sp
    1524:	ffe00e93          	li	t4,-2
    1528:	00f00e13          	li	t3,15
    152c:	37d19463          	bne	gp,t4,1894 <fail>

00001530 <test_16>:
    1530:	00100093          	li	ra,1
    1534:	80000137          	lui	sp,0x80000
    1538:	fff10113          	addi	sp,sp,-1 # 7fffffff <end+0x7fff3902>
    153c:	002081b3          	add	gp,ra,sp
    1540:	80000eb7          	lui	t4,0x80000
    1544:	01000e13          	li	t3,16
    1548:	35d19663          	bne	gp,t4,1894 <fail>

0000154c <test_17>:
    154c:	00d00093          	li	ra,13
    1550:	00b00113          	li	sp,11
    1554:	002080b3          	add	ra,ra,sp
    1558:	01800e93          	li	t4,24
    155c:	01100e13          	li	t3,17
    1560:	33d09a63          	bne	ra,t4,1894 <fail>

00001564 <test_18>:
    1564:	00e00093          	li	ra,14
    1568:	00b00113          	li	sp,11
    156c:	00208133          	add	sp,ra,sp
    1570:	01900e93          	li	t4,25
    1574:	01200e13          	li	t3,18
    1578:	31d11e63          	bne	sp,t4,1894 <fail>

0000157c <test_19>:
    157c:	00d00093          	li	ra,13
    1580:	001080b3          	add	ra,ra,ra
    1584:	01a00e93          	li	t4,26
    1588:	01300e13          	li	t3,19
    158c:	31d09463          	bne	ra,t4,1894 <fail>

00001590 <test_20>:
    1590:	00000213          	li	tp,0
    1594:	00d00093          	li	ra,13
    1598:	00b00113          	li	sp,11
    159c:	002081b3          	add	gp,ra,sp
    15a0:	00018313          	mv	t1,gp
    15a4:	00120213          	addi	tp,tp,1 # 1 <reset_vec+0x1>
    15a8:	00200293          	li	t0,2
    15ac:	fe5214e3          	bne	tp,t0,1594 <test_20+0x4>
    15b0:	01800e93          	li	t4,24
    15b4:	01400e13          	li	t3,20
    15b8:	2dd31e63          	bne	t1,t4,1894 <fail>

000015bc <test_21>:
    15bc:	00000213          	li	tp,0
    15c0:	00e00093          	li	ra,14
    15c4:	00b00113          	li	sp,11
    15c8:	002081b3          	add	gp,ra,sp
    15cc:	00000013          	nop
    15d0:	00018313          	mv	t1,gp
    15d4:	00120213          	addi	tp,tp,1 # 1 <reset_vec+0x1>
    15d8:	00200293          	li	t0,2
    15dc:	fe5212e3          	bne	tp,t0,15c0 <test_21+0x4>
    15e0:	01900e93          	li	t4,25
    15e4:	01500e13          	li	t3,21
    15e8:	2bd31663          	bne	t1,t4,1894 <fail>

000015ec <test_22>:
    15ec:	00000213          	li	tp,0
    15f0:	00f00093          	li	ra,15
    15f4:	00b00113          	li	sp,11
    15f8:	002081b3          	add	gp,ra,sp
    15fc:	00000013          	nop
    1600:	00000013          	nop
    1604:	00018313          	mv	t1,gp
    1608:	00120213          	addi	tp,tp,1 # 1 <reset_vec+0x1>
    160c:	00200293          	li	t0,2
    1610:	fe5210e3          	bne	tp,t0,15f0 <test_22+0x4>
    1614:	01a00e93          	li	t4,26
    1618:	01600e13          	li	t3,22
    161c:	27d31c63          	bne	t1,t4,1894 <fail>

00001620 <test_23>:
    1620:	00000213          	li	tp,0
    1624:	00d00093          	li	ra,13
    1628:	00b00113          	li	sp,11
    162c:	002081b3          	add	gp,ra,sp
    1630:	00120213          	addi	tp,tp,1 # 1 <reset_vec+0x1>
    1634:	00200293          	li	t0,2
    1638:	fe5216e3          	bne	tp,t0,1624 <test_23+0x4>
    163c:	01800e93          	li	t4,24
    1640:	01700e13          	li	t3,23
    1644:	25d19863          	bne	gp,t4,1894 <fail>

00001648 <test_24>:
    1648:	00000213          	li	tp,0
    164c:	00e00093          	li	ra,14
    1650:	00b00113          	li	sp,11
    1654:	00000013          	nop
    1658:	002081b3          	add	gp,ra,sp
    165c:	00120213          	addi	tp,tp,1 # 1 <reset_vec+0x1>
    1660:	00200293          	li	t0,2
    1664:	fe5214e3          	bne	tp,t0,164c <test_24+0x4>
    1668:	01900e93          	li	t4,25
    166c:	01800e13          	li	t3,24
    1670:	23d19263          	bne	gp,t4,1894 <fail>

00001674 <test_25>:
    1674:	00000213          	li	tp,0
    1678:	00f00093          	li	ra,15
    167c:	00b00113          	li	sp,11
    1680:	00000013          	nop
    1684:	00000013          	nop
    1688:	002081b3          	add	gp,ra,sp
    168c:	00120213          	addi	tp,tp,1 # 1 <reset_vec+0x1>
    1690:	00200293          	li	t0,2
    1694:	fe5212e3          	bne	tp,t0,1678 <test_25+0x4>
    1698:	01a00e93          	li	t4,26
    169c:	01900e13          	li	t3,25
    16a0:	1fd19a63          	bne	gp,t4,1894 <fail>

000016a4 <test_26>:
    16a4:	00000213          	li	tp,0
    16a8:	00d00093          	li	ra,13
    16ac:	00000013          	nop
    16b0:	00b00113          	li	sp,11
    16b4:	002081b3          	add	gp,ra,sp
    16b8:	00120213          	addi	tp,tp,1 # 1 <reset_vec+0x1>
    16bc:	00200293          	li	t0,2
    16c0:	fe5214e3          	bne	tp,t0,16a8 <test_26+0x4>
    16c4:	01800e93          	li	t4,24
    16c8:	01a00e13          	li	t3,26
    16cc:	1dd19463          	bne	gp,t4,1894 <fail>

000016d0 <test_27>:
    16d0:	00000213          	li	tp,0
    16d4:	00e00093          	li	ra,14
    16d8:	00000013          	nop
    16dc:	00b00113          	li	sp,11
    16e0:	00000013          	nop
    16e4:	002081b3          	add	gp,ra,sp
    16e8:	00120213          	addi	tp,tp,1 # 1 <reset_vec+0x1>
    16ec:	00200293          	li	t0,2
    16f0:	fe5212e3          	bne	tp,t0,16d4 <test_27+0x4>
    16f4:	01900e93          	li	t4,25
    16f8:	01b00e13          	li	t3,27
    16fc:	19d19c63          	bne	gp,t4,1894 <fail>

00001700 <test_28>:
    1700:	00000213          	li	tp,0
    1704:	00f00093          	li	ra,15
    1708:	00000013          	nop
    170c:	00000013          	nop
    1710:	00b00113          	li	sp,11
    1714:	002081b3          	add	gp,ra,sp
    1718:	00120213          	addi	tp,tp,1 # 1 <reset_vec+0x1>
    171c:	00200293          	li	t0,2
    1720:	fe5212e3          	bne	tp,t0,1704 <test_28+0x4>
    1724:	01a00e93          	li	t4,26
    1728:	01c00e13          	li	t3,28
    172c:	17d19463          	bne	gp,t4,1894 <fail>

00001730 <test_29>:
    1730:	00000213          	li	tp,0
    1734:	00b00113          	li	sp,11
    1738:	00d00093          	li	ra,13
    173c:	002081b3          	add	gp,ra,sp
    1740:	00120213          	addi	tp,tp,1 # 1 <reset_vec+0x1>
    1744:	00200293          	li	t0,2
    1748:	fe5216e3          	bne	tp,t0,1734 <test_29+0x4>
    174c:	01800e93          	li	t4,24
    1750:	01d00e13          	li	t3,29
    1754:	15d19063          	bne	gp,t4,1894 <fail>

00001758 <test_30>:
    1758:	00000213          	li	tp,0
    175c:	00b00113          	li	sp,11
    1760:	00e00093          	li	ra,14
    1764:	00000013          	nop
    1768:	002081b3          	add	gp,ra,sp
    176c:	00120213          	addi	tp,tp,1 # 1 <reset_vec+0x1>
    1770:	00200293          	li	t0,2
    1774:	fe5214e3          	bne	tp,t0,175c <test_30+0x4>
    1778:	01900e93          	li	t4,25
    177c:	01e00e13          	li	t3,30
    1780:	11d19a63          	bne	gp,t4,1894 <fail>

00001784 <test_31>:
    1784:	00000213          	li	tp,0
    1788:	00b00113          	li	sp,11
    178c:	00f00093          	li	ra,15
    1790:	00000013          	nop
    1794:	00000013          	nop
    1798:	002081b3          	add	gp,ra,sp
    179c:	00120213          	addi	tp,tp,1 # 1 <reset_vec+0x1>
    17a0:	00200293          	li	t0,2
    17a4:	fe5212e3          	bne	tp,t0,1788 <test_31+0x4>
    17a8:	01a00e93          	li	t4,26
    17ac:	01f00e13          	li	t3,31
    17b0:	0fd19263          	bne	gp,t4,1894 <fail>

000017b4 <test_32>:
    17b4:	00000213          	li	tp,0
    17b8:	00b00113          	li	sp,11
    17bc:	00000013          	nop
    17c0:	00d00093          	li	ra,13
    17c4:	002081b3          	add	gp,ra,sp
    17c8:	00120213          	addi	tp,tp,1 # 1 <reset_vec+0x1>
    17cc:	00200293          	li	t0,2
    17d0:	fe5214e3          	bne	tp,t0,17b8 <test_32+0x4>
    17d4:	01800e93          	li	t4,24
    17d8:	02000e13          	li	t3,32
    17dc:	0bd19c63          	bne	gp,t4,1894 <fail>

000017e0 <test_33>:
    17e0:	00000213          	li	tp,0
    17e4:	00b00113          	li	sp,11
    17e8:	00000013          	nop
    17ec:	00e00093          	li	ra,14
    17f0:	00000013          	nop
    17f4:	002081b3          	add	gp,ra,sp
    17f8:	00120213          	addi	tp,tp,1 # 1 <reset_vec+0x1>
    17fc:	00200293          	li	t0,2
    1800:	fe5212e3          	bne	tp,t0,17e4 <test_33+0x4>
    1804:	01900e93          	li	t4,25
    1808:	02100e13          	li	t3,33
    180c:	09d19463          	bne	gp,t4,1894 <fail>

00001810 <test_34>:
    1810:	00000213          	li	tp,0
    1814:	00b00113          	li	sp,11
    1818:	00000013          	nop
    181c:	00000013          	nop
    1820:	00f00093          	li	ra,15
    1824:	002081b3          	add	gp,ra,sp
    1828:	00120213          	addi	tp,tp,1 # 1 <reset_vec+0x1>
    182c:	00200293          	li	t0,2
    1830:	fe5212e3          	bne	tp,t0,1814 <test_34+0x4>
    1834:	01a00e93          	li	t4,26
    1838:	02200e13          	li	t3,34
    183c:	05d19c63          	bne	gp,t4,1894 <fail>

00001840 <test_35>:
    1840:	00f00093          	li	ra,15
    1844:	00100133          	add	sp,zero,ra
    1848:	00f00e93          	li	t4,15
    184c:	02300e13          	li	t3,35
    1850:	05d11263          	bne	sp,t4,1894 <fail>

00001854 <test_36>:
    1854:	02000093          	li	ra,32
    1858:	00008133          	add	sp,ra,zero
    185c:	02000e93          	li	t4,32
    1860:	02400e13          	li	t3,36
    1864:	03d11863          	bne	sp,t4,1894 <fail>

00001868 <test_37>:
    1868:	000000b3          	add	ra,zero,zero
    186c:	00000e93          	li	t4,0
    1870:	02500e13          	li	t3,37
    1874:	03d09063          	bne	ra,t4,1894 <fail>

00001878 <test_38>:
    1878:	01000093          	li	ra,16
    187c:	01e00113          	li	sp,30
    1880:	00208033          	add	zero,ra,sp
    1884:	00000e93          	li	t4,0
    1888:	02600e13          	li	t3,38
    188c:	01d01463          	bne	zero,t4,1894 <fail>
    1890:	05c01863          	bne	zero,t3,18e0 <pass>

00001894 <fail>:
    1894:	00000513          	li	a0,0
    1898:	10000537          	lui	a0,0x10000
    189c:	04500593          	li	a1,69
    18a0:	05200613          	li	a2,82
    18a4:	04f00693          	li	a3,79
    18a8:	00b52023          	sw	a1,0(a0) # 10000000 <end+0xfff3903>
    18ac:	00c52023          	sw	a2,0(a0)
    18b0:	00c52023          	sw	a2,0(a0)
    18b4:	00d52023          	sw	a3,0(a0)
    18b8:	00c52023          	sw	a2,0(a0)
    18bc:	030e0593          	addi	a1,t3,48
    18c0:	02000613          	li	a2,32
    18c4:	03a00693          	li	a3,58
    18c8:	00d52023          	sw	a3,0(a0)
    18cc:	00c52023          	sw	a2,0(a0)
    18d0:	00b52023          	sw	a1,0(a0)
    18d4:	00a00713          	li	a4,10
    18d8:	00e52023          	sw	a4,0(a0)
    18dc:	911fe06f          	j	1ec <add_ret>

000018e0 <pass>:
    18e0:	00000513          	li	a0,0
    18e4:	10000537          	lui	a0,0x10000
    18e8:	04f00593          	li	a1,79
    18ec:	04b00613          	li	a2,75
    18f0:	00a00693          	li	a3,10
    18f4:	00b52023          	sw	a1,0(a0) # 10000000 <end+0xfff3903>
    18f8:	00c52023          	sw	a2,0(a0)
    18fc:	00d52023          	sw	a3,0(a0)
    1900:	8edfe06f          	j	1ec <add_ret>

00001904 <addi>:
    1904:	00002537          	lui	a0,0x2
    1908:	92850513          	addi	a0,a0,-1752 # 1928 <.test_name>
    190c:	00000613          	li	a2,0
    1910:	10000637          	lui	a2,0x10000

00001914 <.prname_next>:
    1914:	00050583          	lb	a1,0(a0)
    1918:	00058c63          	beqz	a1,1930 <.prname_done>
    191c:	00b62023          	sw	a1,0(a2) # 10000000 <end+0xfff3903>
    1920:	00150513          	addi	a0,a0,1
    1924:	ff1ff06f          	j	1914 <.prname_next>

00001928 <.test_name>:
    1928:	69646461          	.word	0x69646461
    192c:	00000000          	.word	0x00000000

00001930 <.prname_done>:
    1930:	00000613          	li	a2,0
    1934:	10000637          	lui	a2,0x10000
    1938:	02e00593          	li	a1,46
    193c:	00b62023          	sw	a1,0(a2) # 10000000 <end+0xfff3903>
    1940:	00b62023          	sw	a1,0(a2)

00001944 <test_2>:
    1944:	00000093          	li	ra,0
    1948:	00008193          	mv	gp,ra
    194c:	00000e93          	li	t4,0
    1950:	00200e13          	li	t3,2
    1954:	27d19c63          	bne	gp,t4,1bcc <fail>

00001958 <test_3>:
    1958:	00100093          	li	ra,1
    195c:	00108193          	addi	gp,ra,1
    1960:	00200e93          	li	t4,2
    1964:	00300e13          	li	t3,3
    1968:	27d19263          	bne	gp,t4,1bcc <fail>

0000196c <test_4>:
    196c:	00300093          	li	ra,3
    1970:	00708193          	addi	gp,ra,7
    1974:	00a00e93          	li	t4,10
    1978:	00400e13          	li	t3,4
    197c:	25d19863          	bne	gp,t4,1bcc <fail>

00001980 <test_5>:
    1980:	00000093          	li	ra,0
    1984:	80008193          	addi	gp,ra,-2048
    1988:	80000e93          	li	t4,-2048
    198c:	00500e13          	li	t3,5
    1990:	23d19e63          	bne	gp,t4,1bcc <fail>

00001994 <test_6>:
    1994:	800000b7          	lui	ra,0x80000
    1998:	00008193          	mv	gp,ra
    199c:	80000eb7          	lui	t4,0x80000
    19a0:	00600e13          	li	t3,6
    19a4:	23d19463          	bne	gp,t4,1bcc <fail>

000019a8 <test_7>:
    19a8:	800000b7          	lui	ra,0x80000
    19ac:	80008193          	addi	gp,ra,-2048 # 7ffff800 <end+0x7fff3103>
    19b0:	80000eb7          	lui	t4,0x80000
    19b4:	800e8e93          	addi	t4,t4,-2048 # 7ffff800 <end+0x7fff3103>
    19b8:	00700e13          	li	t3,7
    19bc:	21d19863          	bne	gp,t4,1bcc <fail>

000019c0 <test_8>:
    19c0:	00000093          	li	ra,0
    19c4:	7ff08193          	addi	gp,ra,2047
    19c8:	7ff00e93          	li	t4,2047
    19cc:	00800e13          	li	t3,8
    19d0:	1fd19e63          	bne	gp,t4,1bcc <fail>

000019d4 <test_9>:
    19d4:	800000b7          	lui	ra,0x80000
    19d8:	fff08093          	addi	ra,ra,-1 # 7fffffff <end+0x7fff3902>
    19dc:	00008193          	mv	gp,ra
    19e0:	80000eb7          	lui	t4,0x80000
    19e4:	fffe8e93          	addi	t4,t4,-1 # 7fffffff <end+0x7fff3902>
    19e8:	00900e13          	li	t3,9
    19ec:	1fd19063          	bne	gp,t4,1bcc <fail>

000019f0 <test_10>:
    19f0:	800000b7          	lui	ra,0x80000
    19f4:	fff08093          	addi	ra,ra,-1 # 7fffffff <end+0x7fff3902>
    19f8:	7ff08193          	addi	gp,ra,2047
    19fc:	80000eb7          	lui	t4,0x80000
    1a00:	7fee8e93          	addi	t4,t4,2046 # 800007fe <end+0x7fff4101>
    1a04:	00a00e13          	li	t3,10
    1a08:	1dd19263          	bne	gp,t4,1bcc <fail>

00001a0c <test_11>:
    1a0c:	800000b7          	lui	ra,0x80000
    1a10:	7ff08193          	addi	gp,ra,2047 # 800007ff <end+0x7fff4102>
    1a14:	80000eb7          	lui	t4,0x80000
    1a18:	7ffe8e93          	addi	t4,t4,2047 # 800007ff <end+0x7fff4102>
    1a1c:	00b00e13          	li	t3,11
    1a20:	1bd19663          	bne	gp,t4,1bcc <fail>

00001a24 <test_12>:
    1a24:	800000b7          	lui	ra,0x80000
    1a28:	fff08093          	addi	ra,ra,-1 # 7fffffff <end+0x7fff3902>
    1a2c:	80008193          	addi	gp,ra,-2048
    1a30:	7ffffeb7          	lui	t4,0x7ffff
    1a34:	7ffe8e93          	addi	t4,t4,2047 # 7ffff7ff <end+0x7fff3102>
    1a38:	00c00e13          	li	t3,12
    1a3c:	19d19863          	bne	gp,t4,1bcc <fail>

00001a40 <test_13>:
    1a40:	00000093          	li	ra,0
    1a44:	fff08193          	addi	gp,ra,-1
    1a48:	fff00e93          	li	t4,-1
    1a4c:	00d00e13          	li	t3,13
    1a50:	17d19e63          	bne	gp,t4,1bcc <fail>

00001a54 <test_14>:
    1a54:	fff00093          	li	ra,-1
    1a58:	00108193          	addi	gp,ra,1
    1a5c:	00000e93          	li	t4,0
    1a60:	00e00e13          	li	t3,14
    1a64:	17d19463          	bne	gp,t4,1bcc <fail>

00001a68 <test_15>:
    1a68:	fff00093          	li	ra,-1
    1a6c:	fff08193          	addi	gp,ra,-1
    1a70:	ffe00e93          	li	t4,-2
    1a74:	00f00e13          	li	t3,15
    1a78:	15d19a63          	bne	gp,t4,1bcc <fail>

00001a7c <test_16>:
    1a7c:	800000b7          	lui	ra,0x80000
    1a80:	fff08093          	addi	ra,ra,-1 # 7fffffff <end+0x7fff3902>
    1a84:	00108193          	addi	gp,ra,1
    1a88:	80000eb7          	lui	t4,0x80000
    1a8c:	01000e13          	li	t3,16
    1a90:	13d19e63          	bne	gp,t4,1bcc <fail>

00001a94 <test_17>:
    1a94:	00d00093          	li	ra,13
    1a98:	00b08093          	addi	ra,ra,11
    1a9c:	01800e93          	li	t4,24
    1aa0:	01100e13          	li	t3,17
    1aa4:	13d09463          	bne	ra,t4,1bcc <fail>

00001aa8 <test_18>:
    1aa8:	00000213          	li	tp,0
    1aac:	00d00093          	li	ra,13
    1ab0:	00b08193          	addi	gp,ra,11
    1ab4:	00018313          	mv	t1,gp
    1ab8:	00120213          	addi	tp,tp,1 # 1 <reset_vec+0x1>
    1abc:	00200293          	li	t0,2
    1ac0:	fe5216e3          	bne	tp,t0,1aac <test_18+0x4>
    1ac4:	01800e93          	li	t4,24
    1ac8:	01200e13          	li	t3,18
    1acc:	11d31063          	bne	t1,t4,1bcc <fail>

00001ad0 <test_19>:
    1ad0:	00000213          	li	tp,0
    1ad4:	00d00093          	li	ra,13
    1ad8:	00a08193          	addi	gp,ra,10
    1adc:	00000013          	nop
    1ae0:	00018313          	mv	t1,gp
    1ae4:	00120213          	addi	tp,tp,1 # 1 <reset_vec+0x1>
    1ae8:	00200293          	li	t0,2
    1aec:	fe5214e3          	bne	tp,t0,1ad4 <test_19+0x4>
    1af0:	01700e93          	li	t4,23
    1af4:	01300e13          	li	t3,19
    1af8:	0dd31a63          	bne	t1,t4,1bcc <fail>

00001afc <test_20>:
    1afc:	00000213          	li	tp,0
    1b00:	00d00093          	li	ra,13
    1b04:	00908193          	addi	gp,ra,9
    1b08:	00000013          	nop
    1b0c:	00000013          	nop
    1b10:	00018313          	mv	t1,gp
    1b14:	00120213          	addi	tp,tp,1 # 1 <reset_vec+0x1>
    1b18:	00200293          	li	t0,2
    1b1c:	fe5212e3          	bne	tp,t0,1b00 <test_20+0x4>
    1b20:	01600e93          	li	t4,22
    1b24:	01400e13          	li	t3,20
    1b28:	0bd31263          	bne	t1,t4,1bcc <fail>

00001b2c <test_21>:
    1b2c:	00000213          	li	tp,0
    1b30:	00d00093          	li	ra,13
    1b34:	00b08193          	addi	gp,ra,11
    1b38:	00120213          	addi	tp,tp,1 # 1 <reset_vec+0x1>
    1b3c:	00200293          	li	t0,2
    1b40:	fe5218e3          	bne	tp,t0,1b30 <test_21+0x4>
    1b44:	01800e93          	li	t4,24
    1b48:	01500e13          	li	t3,21
    1b4c:	09d19063          	bne	gp,t4,1bcc <fail>

00001b50 <test_22>:
    1b50:	00000213          	li	tp,0
    1b54:	00d00093          	li	ra,13
    1b58:	00000013          	nop
    1b5c:	00a08193          	addi	gp,ra,10
    1b60:	00120213          	addi	tp,tp,1 # 1 <reset_vec+0x1>
    1b64:	00200293          	li	t0,2
    1b68:	fe5216e3          	bne	tp,t0,1b54 <test_22+0x4>
    1b6c:	01700e93          	li	t4,23
    1b70:	01600e13          	li	t3,22
    1b74:	05d19c63          	bne	gp,t4,1bcc <fail>

00001b78 <test_23>:
    1b78:	00000213          	li	tp,0
    1b7c:	00d00093          	li	ra,13
    1b80:	00000013          	nop
    1b84:	00000013          	nop
    1b88:	00908193          	addi	gp,ra,9
    1b8c:	00120213          	addi	tp,tp,1 # 1 <reset_vec+0x1>
    1b90:	00200293          	li	t0,2
    1b94:	fe5214e3          	bne	tp,t0,1b7c <test_23+0x4>
    1b98:	01600e93          	li	t4,22
    1b9c:	01700e13          	li	t3,23
    1ba0:	03d19663          	bne	gp,t4,1bcc <fail>

00001ba4 <test_24>:
    1ba4:	02000093          	li	ra,32
    1ba8:	02000e93          	li	t4,32
    1bac:	01800e13          	li	t3,24
    1bb0:	01d09e63          	bne	ra,t4,1bcc <fail>

00001bb4 <test_25>:
    1bb4:	02100093          	li	ra,33
    1bb8:	03208013          	addi	zero,ra,50
    1bbc:	00000e93          	li	t4,0
    1bc0:	01900e13          	li	t3,25
    1bc4:	01d01463          	bne	zero,t4,1bcc <fail>
    1bc8:	05c01863          	bne	zero,t3,1c18 <pass>

00001bcc <fail>:
    1bcc:	00000513          	li	a0,0
    1bd0:	10000537          	lui	a0,0x10000
    1bd4:	04500593          	li	a1,69
    1bd8:	05200613          	li	a2,82
    1bdc:	04f00693          	li	a3,79
    1be0:	00b52023          	sw	a1,0(a0) # 10000000 <end+0xfff3903>
    1be4:	00c52023          	sw	a2,0(a0)
    1be8:	00c52023          	sw	a2,0(a0)
    1bec:	00d52023          	sw	a3,0(a0)
    1bf0:	00c52023          	sw	a2,0(a0)
    1bf4:	030e0593          	addi	a1,t3,48
    1bf8:	02000613          	li	a2,32
    1bfc:	03a00693          	li	a3,58
    1c00:	00d52023          	sw	a3,0(a0)
    1c04:	00c52023          	sw	a2,0(a0)
    1c08:	00b52023          	sw	a1,0(a0)
    1c0c:	00a00713          	li	a4,10
    1c10:	00e52023          	sw	a4,0(a0)
    1c14:	d98fe06f          	j	1ac <addi_ret>

00001c18 <pass>:
    1c18:	00000513          	li	a0,0
    1c1c:	10000537          	lui	a0,0x10000
    1c20:	04f00593          	li	a1,79
    1c24:	04b00613          	li	a2,75
    1c28:	00a00693          	li	a3,10
    1c2c:	00b52023          	sw	a1,0(a0) # 10000000 <end+0xfff3903>
    1c30:	00c52023          	sw	a2,0(a0)
    1c34:	00d52023          	sw	a3,0(a0)
    1c38:	d74fe06f          	j	1ac <addi_ret>

00001c3c <and>:
    1c3c:	00002537          	lui	a0,0x2
    1c40:	c6050513          	addi	a0,a0,-928 # 1c60 <.test_name>
    1c44:	00000613          	li	a2,0
    1c48:	10000637          	lui	a2,0x10000

00001c4c <.prname_next>:
    1c4c:	00050583          	lb	a1,0(a0)
    1c50:	00058a63          	beqz	a1,1c64 <.prname_done>
    1c54:	00b62023          	sw	a1,0(a2) # 10000000 <end+0xfff3903>
    1c58:	00150513          	addi	a0,a0,1
    1c5c:	ff1ff06f          	j	1c4c <.prname_next>

00001c60 <.test_name>:
    1c60:	00646e61          	.word	0x00646e61

00001c64 <.prname_done>:
    1c64:	00000613          	li	a2,0
    1c68:	10000637          	lui	a2,0x10000
    1c6c:	02e00593          	li	a1,46
    1c70:	00b62023          	sw	a1,0(a2) # 10000000 <end+0xfff3903>
    1c74:	00b62023          	sw	a1,0(a2)

00001c78 <test_2>:
    1c78:	ff0100b7          	lui	ra,0xff010
    1c7c:	f0008093          	addi	ra,ra,-256 # ff00ff00 <end+0xff003803>
    1c80:	0f0f1137          	lui	sp,0xf0f1
    1c84:	f0f10113          	addi	sp,sp,-241 # f0f0f0f <end+0xf0e4812>
    1c88:	0020f1b3          	and	gp,ra,sp
    1c8c:	0f001eb7          	lui	t4,0xf001
    1c90:	f00e8e93          	addi	t4,t4,-256 # f000f00 <end+0xeff4803>
    1c94:	00200e13          	li	t3,2
    1c98:	49d19c63          	bne	gp,t4,2130 <fail>

00001c9c <test_3>:
    1c9c:	0ff010b7          	lui	ra,0xff01
    1ca0:	ff008093          	addi	ra,ra,-16 # ff00ff0 <end+0xfef48f3>
    1ca4:	f0f0f137          	lui	sp,0xf0f0f
    1ca8:	0f010113          	addi	sp,sp,240 # f0f0f0f0 <end+0xf0f029f3>
    1cac:	0020f1b3          	and	gp,ra,sp
    1cb0:	00f00eb7          	lui	t4,0xf00
    1cb4:	0f0e8e93          	addi	t4,t4,240 # f000f0 <end+0xef39f3>
    1cb8:	00300e13          	li	t3,3
    1cbc:	47d19a63          	bne	gp,t4,2130 <fail>

00001cc0 <test_4>:
    1cc0:	00ff00b7          	lui	ra,0xff0
    1cc4:	0ff08093          	addi	ra,ra,255 # ff00ff <end+0xfe3a02>
    1cc8:	0f0f1137          	lui	sp,0xf0f1
    1ccc:	f0f10113          	addi	sp,sp,-241 # f0f0f0f <end+0xf0e4812>
    1cd0:	0020f1b3          	and	gp,ra,sp
    1cd4:	000f0eb7          	lui	t4,0xf0
    1cd8:	00fe8e93          	addi	t4,t4,15 # f000f <end+0xe3912>
    1cdc:	00400e13          	li	t3,4
    1ce0:	45d19863          	bne	gp,t4,2130 <fail>

00001ce4 <test_5>:
    1ce4:	f00ff0b7          	lui	ra,0xf00ff
    1ce8:	00f08093          	addi	ra,ra,15 # f00ff00f <end+0xf00f2912>
    1cec:	f0f0f137          	lui	sp,0xf0f0f
    1cf0:	0f010113          	addi	sp,sp,240 # f0f0f0f0 <end+0xf0f029f3>
    1cf4:	0020f1b3          	and	gp,ra,sp
    1cf8:	f000feb7          	lui	t4,0xf000f
    1cfc:	00500e13          	li	t3,5
    1d00:	43d19863          	bne	gp,t4,2130 <fail>

00001d04 <test_6>:
    1d04:	ff0100b7          	lui	ra,0xff010
    1d08:	f0008093          	addi	ra,ra,-256 # ff00ff00 <end+0xff003803>
    1d0c:	0f0f1137          	lui	sp,0xf0f1
    1d10:	f0f10113          	addi	sp,sp,-241 # f0f0f0f <end+0xf0e4812>
    1d14:	0020f0b3          	and	ra,ra,sp
    1d18:	0f001eb7          	lui	t4,0xf001
    1d1c:	f00e8e93          	addi	t4,t4,-256 # f000f00 <end+0xeff4803>
    1d20:	00600e13          	li	t3,6
    1d24:	41d09663          	bne	ra,t4,2130 <fail>

00001d28 <test_7>:
    1d28:	0ff010b7          	lui	ra,0xff01
    1d2c:	ff008093          	addi	ra,ra,-16 # ff00ff0 <end+0xfef48f3>
    1d30:	f0f0f137          	lui	sp,0xf0f0f
    1d34:	0f010113          	addi	sp,sp,240 # f0f0f0f0 <end+0xf0f029f3>
    1d38:	0020f133          	and	sp,ra,sp
    1d3c:	00f00eb7          	lui	t4,0xf00
    1d40:	0f0e8e93          	addi	t4,t4,240 # f000f0 <end+0xef39f3>
    1d44:	00700e13          	li	t3,7
    1d48:	3fd11463          	bne	sp,t4,2130 <fail>

00001d4c <test_8>:
    1d4c:	ff0100b7          	lui	ra,0xff010
    1d50:	f0008093          	addi	ra,ra,-256 # ff00ff00 <end+0xff003803>
    1d54:	0010f0b3          	and	ra,ra,ra
    1d58:	ff010eb7          	lui	t4,0xff010
    1d5c:	f00e8e93          	addi	t4,t4,-256 # ff00ff00 <end+0xff003803>
    1d60:	00800e13          	li	t3,8
    1d64:	3dd09663          	bne	ra,t4,2130 <fail>

00001d68 <test_9>:
    1d68:	00000213          	li	tp,0
    1d6c:	ff0100b7          	lui	ra,0xff010
    1d70:	f0008093          	addi	ra,ra,-256 # ff00ff00 <end+0xff003803>
    1d74:	0f0f1137          	lui	sp,0xf0f1
    1d78:	f0f10113          	addi	sp,sp,-241 # f0f0f0f <end+0xf0e4812>
    1d7c:	0020f1b3          	and	gp,ra,sp
    1d80:	00018313          	mv	t1,gp
    1d84:	00120213          	addi	tp,tp,1 # 1 <reset_vec+0x1>
    1d88:	00200293          	li	t0,2
    1d8c:	fe5210e3          	bne	tp,t0,1d6c <test_9+0x4>
    1d90:	0f001eb7          	lui	t4,0xf001
    1d94:	f00e8e93          	addi	t4,t4,-256 # f000f00 <end+0xeff4803>
    1d98:	00900e13          	li	t3,9
    1d9c:	39d31a63          	bne	t1,t4,2130 <fail>

00001da0 <test_10>:
    1da0:	00000213          	li	tp,0
    1da4:	0ff010b7          	lui	ra,0xff01
    1da8:	ff008093          	addi	ra,ra,-16 # ff00ff0 <end+0xfef48f3>
    1dac:	f0f0f137          	lui	sp,0xf0f0f
    1db0:	0f010113          	addi	sp,sp,240 # f0f0f0f0 <end+0xf0f029f3>
    1db4:	0020f1b3          	and	gp,ra,sp
    1db8:	00000013          	nop
    1dbc:	00018313          	mv	t1,gp
    1dc0:	00120213          	addi	tp,tp,1 # 1 <reset_vec+0x1>
    1dc4:	00200293          	li	t0,2
    1dc8:	fc521ee3          	bne	tp,t0,1da4 <test_10+0x4>
    1dcc:	00f00eb7          	lui	t4,0xf00
    1dd0:	0f0e8e93          	addi	t4,t4,240 # f000f0 <end+0xef39f3>
    1dd4:	00a00e13          	li	t3,10
    1dd8:	35d31c63          	bne	t1,t4,2130 <fail>

00001ddc <test_11>:
    1ddc:	00000213          	li	tp,0
    1de0:	00ff00b7          	lui	ra,0xff0
    1de4:	0ff08093          	addi	ra,ra,255 # ff00ff <end+0xfe3a02>
    1de8:	0f0f1137          	lui	sp,0xf0f1
    1dec:	f0f10113          	addi	sp,sp,-241 # f0f0f0f <end+0xf0e4812>
    1df0:	0020f1b3          	and	gp,ra,sp
    1df4:	00000013          	nop
    1df8:	00000013          	nop
    1dfc:	00018313          	mv	t1,gp
    1e00:	00120213          	addi	tp,tp,1 # 1 <reset_vec+0x1>
    1e04:	00200293          	li	t0,2
    1e08:	fc521ce3          	bne	tp,t0,1de0 <test_11+0x4>
    1e0c:	000f0eb7          	lui	t4,0xf0
    1e10:	00fe8e93          	addi	t4,t4,15 # f000f <end+0xe3912>
    1e14:	00b00e13          	li	t3,11
    1e18:	31d31c63          	bne	t1,t4,2130 <fail>

00001e1c <test_12>:
    1e1c:	00000213          	li	tp,0
    1e20:	ff0100b7          	lui	ra,0xff010
    1e24:	f0008093          	addi	ra,ra,-256 # ff00ff00 <end+0xff003803>
    1e28:	0f0f1137          	lui	sp,0xf0f1
    1e2c:	f0f10113          	addi	sp,sp,-241 # f0f0f0f <end+0xf0e4812>
    1e30:	0020f1b3          	and	gp,ra,sp
    1e34:	00120213          	addi	tp,tp,1 # 1 <reset_vec+0x1>
    1e38:	00200293          	li	t0,2
    1e3c:	fe5212e3          	bne	tp,t0,1e20 <test_12+0x4>
    1e40:	0f001eb7          	lui	t4,0xf001
    1e44:	f00e8e93          	addi	t4,t4,-256 # f000f00 <end+0xeff4803>
    1e48:	00c00e13          	li	t3,12
    1e4c:	2fd19263          	bne	gp,t4,2130 <fail>

00001e50 <test_13>:
    1e50:	00000213          	li	tp,0
    1e54:	0ff010b7          	lui	ra,0xff01
    1e58:	ff008093          	addi	ra,ra,-16 # ff00ff0 <end+0xfef48f3>
    1e5c:	f0f0f137          	lui	sp,0xf0f0f
    1e60:	0f010113          	addi	sp,sp,240 # f0f0f0f0 <end+0xf0f029f3>
    1e64:	00000013          	nop
    1e68:	0020f1b3          	and	gp,ra,sp
    1e6c:	00120213          	addi	tp,tp,1 # 1 <reset_vec+0x1>
    1e70:	00200293          	li	t0,2
    1e74:	fe5210e3          	bne	tp,t0,1e54 <test_13+0x4>
    1e78:	00f00eb7          	lui	t4,0xf00
    1e7c:	0f0e8e93          	addi	t4,t4,240 # f000f0 <end+0xef39f3>
    1e80:	00d00e13          	li	t3,13
    1e84:	2bd19663          	bne	gp,t4,2130 <fail>

00001e88 <test_14>:
    1e88:	00000213          	li	tp,0
    1e8c:	00ff00b7          	lui	ra,0xff0
    1e90:	0ff08093          	addi	ra,ra,255 # ff00ff <end+0xfe3a02>
    1e94:	0f0f1137          	lui	sp,0xf0f1
    1e98:	f0f10113          	addi	sp,sp,-241 # f0f0f0f <end+0xf0e4812>
    1e9c:	00000013          	nop
    1ea0:	00000013          	nop
    1ea4:	0020f1b3          	and	gp,ra,sp
    1ea8:	00120213          	addi	tp,tp,1 # 1 <reset_vec+0x1>
    1eac:	00200293          	li	t0,2
    1eb0:	fc521ee3          	bne	tp,t0,1e8c <test_14+0x4>
    1eb4:	000f0eb7          	lui	t4,0xf0
    1eb8:	00fe8e93          	addi	t4,t4,15 # f000f <end+0xe3912>
    1ebc:	00e00e13          	li	t3,14
    1ec0:	27d19863          	bne	gp,t4,2130 <fail>

00001ec4 <test_15>:
    1ec4:	00000213          	li	tp,0
    1ec8:	ff0100b7          	lui	ra,0xff010
    1ecc:	f0008093          	addi	ra,ra,-256 # ff00ff00 <end+0xff003803>
    1ed0:	00000013          	nop
    1ed4:	0f0f1137          	lui	sp,0xf0f1
    1ed8:	f0f10113          	addi	sp,sp,-241 # f0f0f0f <end+0xf0e4812>
    1edc:	0020f1b3          	and	gp,ra,sp
    1ee0:	00120213          	addi	tp,tp,1 # 1 <reset_vec+0x1>
    1ee4:	00200293          	li	t0,2
    1ee8:	fe5210e3          	bne	tp,t0,1ec8 <test_15+0x4>
    1eec:	0f001eb7          	lui	t4,0xf001
    1ef0:	f00e8e93          	addi	t4,t4,-256 # f000f00 <end+0xeff4803>
    1ef4:	00f00e13          	li	t3,15
    1ef8:	23d19c63          	bne	gp,t4,2130 <fail>

00001efc <test_16>:
    1efc:	00000213          	li	tp,0
    1f00:	0ff010b7          	lui	ra,0xff01
    1f04:	ff008093          	addi	ra,ra,-16 # ff00ff0 <end+0xfef48f3>
    1f08:	00000013          	nop
    1f0c:	f0f0f137          	lui	sp,0xf0f0f
    1f10:	0f010113          	addi	sp,sp,240 # f0f0f0f0 <end+0xf0f029f3>
    1f14:	00000013          	nop
    1f18:	0020f1b3          	and	gp,ra,sp
    1f1c:	00120213          	addi	tp,tp,1 # 1 <reset_vec+0x1>
    1f20:	00200293          	li	t0,2
    1f24:	fc521ee3          	bne	tp,t0,1f00 <test_16+0x4>
    1f28:	00f00eb7          	lui	t4,0xf00
    1f2c:	0f0e8e93          	addi	t4,t4,240 # f000f0 <end+0xef39f3>
    1f30:	01000e13          	li	t3,16
    1f34:	1fd19e63          	bne	gp,t4,2130 <fail>

00001f38 <test_17>:
    1f38:	00000213          	li	tp,0
    1f3c:	00ff00b7          	lui	ra,0xff0
    1f40:	0ff08093          	addi	ra,ra,255 # ff00ff <end+0xfe3a02>
    1f44:	00000013          	nop
    1f48:	00000013          	nop
    1f4c:	0f0f1137          	lui	sp,0xf0f1
    1f50:	f0f10113          	addi	sp,sp,-241 # f0f0f0f <end+0xf0e4812>
    1f54:	0020f1b3          	and	gp,ra,sp
    1f58:	00120213          	addi	tp,tp,1 # 1 <reset_vec+0x1>
    1f5c:	00200293          	li	t0,2
    1f60:	fc521ee3          	bne	tp,t0,1f3c <test_17+0x4>
    1f64:	000f0eb7          	lui	t4,0xf0
    1f68:	00fe8e93          	addi	t4,t4,15 # f000f <end+0xe3912>
    1f6c:	01100e13          	li	t3,17
    1f70:	1dd19063          	bne	gp,t4,2130 <fail>

00001f74 <test_18>:
    1f74:	00000213          	li	tp,0
    1f78:	0f0f1137          	lui	sp,0xf0f1
    1f7c:	f0f10113          	addi	sp,sp,-241 # f0f0f0f <end+0xf0e4812>
    1f80:	ff0100b7          	lui	ra,0xff010
    1f84:	f0008093          	addi	ra,ra,-256 # ff00ff00 <end+0xff003803>
    1f88:	0020f1b3          	and	gp,ra,sp
    1f8c:	00120213          	addi	tp,tp,1 # 1 <reset_vec+0x1>
    1f90:	00200293          	li	t0,2
    1f94:	fe5212e3          	bne	tp,t0,1f78 <test_18+0x4>
    1f98:	0f001eb7          	lui	t4,0xf001
    1f9c:	f00e8e93          	addi	t4,t4,-256 # f000f00 <end+0xeff4803>
    1fa0:	01200e13          	li	t3,18
    1fa4:	19d19663          	bne	gp,t4,2130 <fail>

00001fa8 <test_19>:
    1fa8:	00000213          	li	tp,0
    1fac:	f0f0f137          	lui	sp,0xf0f0f
    1fb0:	0f010113          	addi	sp,sp,240 # f0f0f0f0 <end+0xf0f029f3>
    1fb4:	0ff010b7          	lui	ra,0xff01
    1fb8:	ff008093          	addi	ra,ra,-16 # ff00ff0 <end+0xfef48f3>
    1fbc:	00000013          	nop
    1fc0:	0020f1b3          	and	gp,ra,sp
    1fc4:	00120213          	addi	tp,tp,1 # 1 <reset_vec+0x1>
    1fc8:	00200293          	li	t0,2
    1fcc:	fe5210e3          	bne	tp,t0,1fac <test_19+0x4>
    1fd0:	00f00eb7          	lui	t4,0xf00
    1fd4:	0f0e8e93          	addi	t4,t4,240 # f000f0 <end+0xef39f3>
    1fd8:	01300e13          	li	t3,19
    1fdc:	15d19a63          	bne	gp,t4,2130 <fail>

00001fe0 <test_20>:
    1fe0:	00000213          	li	tp,0
    1fe4:	0f0f1137          	lui	sp,0xf0f1
    1fe8:	f0f10113          	addi	sp,sp,-241 # f0f0f0f <end+0xf0e4812>
    1fec:	00ff00b7          	lui	ra,0xff0
    1ff0:	0ff08093          	addi	ra,ra,255 # ff00ff <end+0xfe3a02>
    1ff4:	00000013          	nop
    1ff8:	00000013          	nop
    1ffc:	0020f1b3          	and	gp,ra,sp
    2000:	00120213          	addi	tp,tp,1 # 1 <reset_vec+0x1>
    2004:	00200293          	li	t0,2
    2008:	fc521ee3          	bne	tp,t0,1fe4 <test_20+0x4>
    200c:	000f0eb7          	lui	t4,0xf0
    2010:	00fe8e93          	addi	t4,t4,15 # f000f <end+0xe3912>
    2014:	01400e13          	li	t3,20
    2018:	11d19c63          	bne	gp,t4,2130 <fail>

0000201c <test_21>:
    201c:	00000213          	li	tp,0
    2020:	0f0f1137          	lui	sp,0xf0f1
    2024:	f0f10113          	addi	sp,sp,-241 # f0f0f0f <end+0xf0e4812>
    2028:	00000013          	nop
    202c:	ff0100b7          	lui	ra,0xff010
    2030:	f0008093          	addi	ra,ra,-256 # ff00ff00 <end+0xff003803>
    2034:	0020f1b3          	and	gp,ra,sp
    2038:	00120213          	addi	tp,tp,1 # 1 <reset_vec+0x1>
    203c:	00200293          	li	t0,2
    2040:	fe5210e3          	bne	tp,t0,2020 <test_21+0x4>
    2044:	0f001eb7          	lui	t4,0xf001
    2048:	f00e8e93          	addi	t4,t4,-256 # f000f00 <end+0xeff4803>
    204c:	01500e13          	li	t3,21
    2050:	0fd19063          	bne	gp,t4,2130 <fail>

00002054 <test_22>:
    2054:	00000213          	li	tp,0
    2058:	f0f0f137          	lui	sp,0xf0f0f
    205c:	0f010113          	addi	sp,sp,240 # f0f0f0f0 <end+0xf0f029f3>
    2060:	00000013          	nop
    2064:	0ff010b7          	lui	ra,0xff01
    2068:	ff008093          	addi	ra,ra,-16 # ff00ff0 <end+0xfef48f3>
    206c:	00000013          	nop
    2070:	0020f1b3          	and	gp,ra,sp
    2074:	00120213          	addi	tp,tp,1 # 1 <reset_vec+0x1>
    2078:	00200293          	li	t0,2
    207c:	fc521ee3          	bne	tp,t0,2058 <test_22+0x4>
    2080:	00f00eb7          	lui	t4,0xf00
    2084:	0f0e8e93          	addi	t4,t4,240 # f000f0 <end+0xef39f3>
    2088:	01600e13          	li	t3,22
    208c:	0bd19263          	bne	gp,t4,2130 <fail>

00002090 <test_23>:
    2090:	00000213          	li	tp,0
    2094:	0f0f1137          	lui	sp,0xf0f1
    2098:	f0f10113          	addi	sp,sp,-241 # f0f0f0f <end+0xf0e4812>
    209c:	00000013          	nop
    20a0:	00000013          	nop
    20a4:	00ff00b7          	lui	ra,0xff0
    20a8:	0ff08093          	addi	ra,ra,255 # ff00ff <end+0xfe3a02>
    20ac:	0020f1b3          	and	gp,ra,sp
    20b0:	00120213          	addi	tp,tp,1 # 1 <reset_vec+0x1>
    20b4:	00200293          	li	t0,2
    20b8:	fc521ee3          	bne	tp,t0,2094 <test_23+0x4>
    20bc:	000f0eb7          	lui	t4,0xf0
    20c0:	00fe8e93          	addi	t4,t4,15 # f000f <end+0xe3912>
    20c4:	01700e13          	li	t3,23
    20c8:	07d19463          	bne	gp,t4,2130 <fail>

000020cc <test_24>:
    20cc:	ff0100b7          	lui	ra,0xff010
    20d0:	f0008093          	addi	ra,ra,-256 # ff00ff00 <end+0xff003803>
    20d4:	00107133          	and	sp,zero,ra
    20d8:	00000e93          	li	t4,0
    20dc:	01800e13          	li	t3,24
    20e0:	05d11863          	bne	sp,t4,2130 <fail>

000020e4 <test_25>:
    20e4:	00ff00b7          	lui	ra,0xff0
    20e8:	0ff08093          	addi	ra,ra,255 # ff00ff <end+0xfe3a02>
    20ec:	0000f133          	and	sp,ra,zero
    20f0:	00000e93          	li	t4,0
    20f4:	01900e13          	li	t3,25
    20f8:	03d11c63          	bne	sp,t4,2130 <fail>

000020fc <test_26>:
    20fc:	000070b3          	and	ra,zero,zero
    2100:	00000e93          	li	t4,0
    2104:	01a00e13          	li	t3,26
    2108:	03d09463          	bne	ra,t4,2130 <fail>

0000210c <test_27>:
    210c:	111110b7          	lui	ra,0x11111
    2110:	11108093          	addi	ra,ra,273 # 11111111 <end+0x11104a14>
    2114:	22222137          	lui	sp,0x22222
    2118:	22210113          	addi	sp,sp,546 # 22222222 <end+0x22215b25>
    211c:	0020f033          	and	zero,ra,sp
    2120:	00000e93          	li	t4,0
    2124:	01b00e13          	li	t3,27
    2128:	01d01463          	bne	zero,t4,2130 <fail>
    212c:	05c01863          	bne	zero,t3,217c <pass>

00002130 <fail>:
    2130:	00000513          	li	a0,0
    2134:	10000537          	lui	a0,0x10000
    2138:	04500593          	li	a1,69
    213c:	05200613          	li	a2,82
    2140:	04f00693          	li	a3,79
    2144:	00b52023          	sw	a1,0(a0) # 10000000 <end+0xfff3903>
    2148:	00c52023          	sw	a2,0(a0)
    214c:	00c52023          	sw	a2,0(a0)
    2150:	00d52023          	sw	a3,0(a0)
    2154:	00c52023          	sw	a2,0(a0)
    2158:	030e0593          	addi	a1,t3,48
    215c:	02000613          	li	a2,32
    2160:	03a00693          	li	a3,58
    2164:	00d52023          	sw	a3,0(a0)
    2168:	00c52023          	sw	a2,0(a0)
    216c:	00b52023          	sw	a1,0(a0)
    2170:	00a00713          	li	a4,10
    2174:	00e52023          	sw	a4,0(a0)
    2178:	8b4fe06f          	j	22c <and_ret>

0000217c <pass>:
    217c:	00000513          	li	a0,0
    2180:	10000537          	lui	a0,0x10000
    2184:	04f00593          	li	a1,79
    2188:	04b00613          	li	a2,75
    218c:	00a00693          	li	a3,10
    2190:	00b52023          	sw	a1,0(a0) # 10000000 <end+0xfff3903>
    2194:	00c52023          	sw	a2,0(a0)
    2198:	00d52023          	sw	a3,0(a0)
    219c:	890fe06f          	j	22c <and_ret>

000021a0 <andi>:
    21a0:	00002537          	lui	a0,0x2
    21a4:	1c450513          	addi	a0,a0,452 # 21c4 <.test_name>
    21a8:	00000613          	li	a2,0
    21ac:	10000637          	lui	a2,0x10000

000021b0 <.prname_next>:
    21b0:	00050583          	lb	a1,0(a0)
    21b4:	00058c63          	beqz	a1,21cc <.prname_done>
    21b8:	00b62023          	sw	a1,0(a2) # 10000000 <end+0xfff3903>
    21bc:	00150513          	addi	a0,a0,1
    21c0:	ff1ff06f          	j	21b0 <.prname_next>

000021c4 <.test_name>:
    21c4:	69646e61          	.word	0x69646e61
    21c8:	00000000          	.word	0x00000000

000021cc <.prname_done>:
    21cc:	00000613          	li	a2,0
    21d0:	10000637          	lui	a2,0x10000
    21d4:	02e00593          	li	a1,46
    21d8:	00b62023          	sw	a1,0(a2) # 10000000 <end+0xfff3903>
    21dc:	00b62023          	sw	a1,0(a2)

000021e0 <test_2>:
    21e0:	ff0100b7          	lui	ra,0xff010
    21e4:	f0008093          	addi	ra,ra,-256 # ff00ff00 <end+0xff003803>
    21e8:	f0f0f193          	andi	gp,ra,-241
    21ec:	ff010eb7          	lui	t4,0xff010
    21f0:	f00e8e93          	addi	t4,t4,-256 # ff00ff00 <end+0xff003803>
    21f4:	00200e13          	li	t3,2
    21f8:	1bd19463          	bne	gp,t4,23a0 <fail>

000021fc <test_3>:
    21fc:	0ff010b7          	lui	ra,0xff01
    2200:	ff008093          	addi	ra,ra,-16 # ff00ff0 <end+0xfef48f3>
    2204:	0f00f193          	andi	gp,ra,240
    2208:	0f000e93          	li	t4,240
    220c:	00300e13          	li	t3,3
    2210:	19d19863          	bne	gp,t4,23a0 <fail>

00002214 <test_4>:
    2214:	00ff00b7          	lui	ra,0xff0
    2218:	0ff08093          	addi	ra,ra,255 # ff00ff <end+0xfe3a02>
    221c:	70f0f193          	andi	gp,ra,1807
    2220:	00f00e93          	li	t4,15
    2224:	00400e13          	li	t3,4
    2228:	17d19c63          	bne	gp,t4,23a0 <fail>

0000222c <test_5>:
    222c:	f00ff0b7          	lui	ra,0xf00ff
    2230:	00f08093          	addi	ra,ra,15 # f00ff00f <end+0xf00f2912>
    2234:	0f00f193          	andi	gp,ra,240
    2238:	00000e93          	li	t4,0
    223c:	00500e13          	li	t3,5
    2240:	17d19063          	bne	gp,t4,23a0 <fail>

00002244 <test_6>:
    2244:	ff0100b7          	lui	ra,0xff010
    2248:	f0008093          	addi	ra,ra,-256 # ff00ff00 <end+0xff003803>
    224c:	0f00f093          	andi	ra,ra,240
    2250:	00000e93          	li	t4,0
    2254:	00600e13          	li	t3,6
    2258:	15d09463          	bne	ra,t4,23a0 <fail>

0000225c <test_7>:
    225c:	00000213          	li	tp,0
    2260:	0ff010b7          	lui	ra,0xff01
    2264:	ff008093          	addi	ra,ra,-16 # ff00ff0 <end+0xfef48f3>
    2268:	70f0f193          	andi	gp,ra,1807
    226c:	00018313          	mv	t1,gp
    2270:	00120213          	addi	tp,tp,1 # 1 <reset_vec+0x1>
    2274:	00200293          	li	t0,2
    2278:	fe5214e3          	bne	tp,t0,2260 <test_7+0x4>
    227c:	70000e93          	li	t4,1792
    2280:	00700e13          	li	t3,7
    2284:	11d31e63          	bne	t1,t4,23a0 <fail>

00002288 <test_8>:
    2288:	00000213          	li	tp,0
    228c:	00ff00b7          	lui	ra,0xff0
    2290:	0ff08093          	addi	ra,ra,255 # ff00ff <end+0xfe3a02>
    2294:	0f00f193          	andi	gp,ra,240
    2298:	00000013          	nop
    229c:	00018313          	mv	t1,gp
    22a0:	00120213          	addi	tp,tp,1 # 1 <reset_vec+0x1>
    22a4:	00200293          	li	t0,2
    22a8:	fe5212e3          	bne	tp,t0,228c <test_8+0x4>
    22ac:	0f000e93          	li	t4,240
    22b0:	00800e13          	li	t3,8
    22b4:	0fd31663          	bne	t1,t4,23a0 <fail>

000022b8 <test_9>:
    22b8:	00000213          	li	tp,0
    22bc:	f00ff0b7          	lui	ra,0xf00ff
    22c0:	00f08093          	addi	ra,ra,15 # f00ff00f <end+0xf00f2912>
    22c4:	f0f0f193          	andi	gp,ra,-241
    22c8:	00000013          	nop
    22cc:	00000013          	nop
    22d0:	00018313          	mv	t1,gp
    22d4:	00120213          	addi	tp,tp,1 # 1 <reset_vec+0x1>
    22d8:	00200293          	li	t0,2
    22dc:	fe5210e3          	bne	tp,t0,22bc <test_9+0x4>
    22e0:	f00ffeb7          	lui	t4,0xf00ff
    22e4:	00fe8e93          	addi	t4,t4,15 # f00ff00f <end+0xf00f2912>
    22e8:	00900e13          	li	t3,9
    22ec:	0bd31a63          	bne	t1,t4,23a0 <fail>

000022f0 <test_10>:
    22f0:	00000213          	li	tp,0
    22f4:	0ff010b7          	lui	ra,0xff01
    22f8:	ff008093          	addi	ra,ra,-16 # ff00ff0 <end+0xfef48f3>
    22fc:	70f0f193          	andi	gp,ra,1807
    2300:	00120213          	addi	tp,tp,1 # 1 <reset_vec+0x1>
    2304:	00200293          	li	t0,2
    2308:	fe5216e3          	bne	tp,t0,22f4 <test_10+0x4>
    230c:	70000e93          	li	t4,1792
    2310:	00a00e13          	li	t3,10
    2314:	09d19663          	bne	gp,t4,23a0 <fail>

00002318 <test_11>:
    2318:	00000213          	li	tp,0
    231c:	00ff00b7          	lui	ra,0xff0
    2320:	0ff08093          	addi	ra,ra,255 # ff00ff <end+0xfe3a02>
    2324:	00000013          	nop
    2328:	0f00f193          	andi	gp,ra,240
    232c:	00120213          	addi	tp,tp,1 # 1 <reset_vec+0x1>
    2330:	00200293          	li	t0,2
    2334:	fe5214e3          	bne	tp,t0,231c <test_11+0x4>
    2338:	0f000e93          	li	t4,240
    233c:	00b00e13          	li	t3,11
    2340:	07d19063          	bne	gp,t4,23a0 <fail>

00002344 <test_12>:
    2344:	00000213          	li	tp,0
    2348:	f00ff0b7          	lui	ra,0xf00ff
    234c:	00f08093          	addi	ra,ra,15 # f00ff00f <end+0xf00f2912>
    2350:	00000013          	nop
    2354:	00000013          	nop
    2358:	70f0f193          	andi	gp,ra,1807
    235c:	00120213          	addi	tp,tp,1 # 1 <reset_vec+0x1>
    2360:	00200293          	li	t0,2
    2364:	fe5212e3          	bne	tp,t0,2348 <test_12+0x4>
    2368:	00f00e93          	li	t4,15
    236c:	00c00e13          	li	t3,12
    2370:	03d19863          	bne	gp,t4,23a0 <fail>

00002374 <test_13>:
    2374:	0f007093          	andi	ra,zero,240
    2378:	00000e93          	li	t4,0
    237c:	00d00e13          	li	t3,13
    2380:	03d09063          	bne	ra,t4,23a0 <fail>

00002384 <test_14>:
    2384:	00ff00b7          	lui	ra,0xff0
    2388:	0ff08093          	addi	ra,ra,255 # ff00ff <end+0xfe3a02>
    238c:	70f0f013          	andi	zero,ra,1807
    2390:	00000e93          	li	t4,0
    2394:	00e00e13          	li	t3,14
    2398:	01d01463          	bne	zero,t4,23a0 <fail>
    239c:	05c01863          	bne	zero,t3,23ec <pass>

000023a0 <fail>:
    23a0:	00000513          	li	a0,0
    23a4:	10000537          	lui	a0,0x10000
    23a8:	04500593          	li	a1,69
    23ac:	05200613          	li	a2,82
    23b0:	04f00693          	li	a3,79
    23b4:	00b52023          	sw	a1,0(a0) # 10000000 <end+0xfff3903>
    23b8:	00c52023          	sw	a2,0(a0)
    23bc:	00c52023          	sw	a2,0(a0)
    23c0:	00d52023          	sw	a3,0(a0)
    23c4:	00c52023          	sw	a2,0(a0)
    23c8:	030e0593          	addi	a1,t3,48
    23cc:	02000613          	li	a2,32
    23d0:	03a00693          	li	a3,58
    23d4:	00d52023          	sw	a3,0(a0)
    23d8:	00c52023          	sw	a2,0(a0)
    23dc:	00b52023          	sw	a1,0(a0)
    23e0:	00a00713          	li	a4,10
    23e4:	00e52023          	sw	a4,0(a0)
    23e8:	de5fd06f          	j	1cc <andi_ret>

000023ec <pass>:
    23ec:	00000513          	li	a0,0
    23f0:	10000537          	lui	a0,0x10000
    23f4:	04f00593          	li	a1,79
    23f8:	04b00613          	li	a2,75
    23fc:	00a00693          	li	a3,10
    2400:	00b52023          	sw	a1,0(a0) # 10000000 <end+0xfff3903>
    2404:	00c52023          	sw	a2,0(a0)
    2408:	00d52023          	sw	a3,0(a0)
    240c:	dc1fd06f          	j	1cc <andi_ret>

00002410 <auipc>:
    2410:	00002537          	lui	a0,0x2
    2414:	43450513          	addi	a0,a0,1076 # 2434 <.test_name>
    2418:	00000613          	li	a2,0
    241c:	10000637          	lui	a2,0x10000

00002420 <.prname_next>:
    2420:	00050583          	lb	a1,0(a0)
    2424:	00058c63          	beqz	a1,243c <.prname_done>
    2428:	00b62023          	sw	a1,0(a2) # 10000000 <end+0xfff3903>
    242c:	00150513          	addi	a0,a0,1
    2430:	ff1ff06f          	j	2420 <.prname_next>

00002434 <.test_name>:
    2434:	70697561          	.word	0x70697561
    2438:	00000063          	.word	0x00000063

0000243c <.prname_done>:
    243c:	00000613          	li	a2,0
    2440:	10000637          	lui	a2,0x10000
    2444:	02e00593          	li	a1,46
    2448:	00b62023          	sw	a1,0(a2) # 10000000 <end+0xfff3903>
    244c:	00b62023          	sw	a1,0(a2)

00002450 <test_2>:
    2450:	00002517          	auipc	a0,0x2
    2454:	71c50513          	addi	a0,a0,1820 # 4b6c <test_8+0x10>
    2458:	004005ef          	jal	a1,245c <test_2+0xc>
    245c:	40b50533          	sub	a0,a0,a1
    2460:	00002eb7          	lui	t4,0x2
    2464:	710e8e93          	addi	t4,t4,1808 # 2710 <test_15+0x1c>
    2468:	00200e13          	li	t3,2
    246c:	03d51463          	bne	a0,t4,2494 <fail>

00002470 <test_3>:
    2470:	ffffe517          	auipc	a0,0xffffe
    2474:	8fc50513          	addi	a0,a0,-1796 # fffffd6c <end+0xffff366f>
    2478:	004005ef          	jal	a1,247c <test_3+0xc>
    247c:	40b50533          	sub	a0,a0,a1
    2480:	ffffeeb7          	lui	t4,0xffffe
    2484:	8f0e8e93          	addi	t4,t4,-1808 # ffffd8f0 <end+0xffff11f3>
    2488:	00300e13          	li	t3,3
    248c:	01d51463          	bne	a0,t4,2494 <fail>
    2490:	05c01863          	bne	zero,t3,24e0 <pass>

00002494 <fail>:
    2494:	00000513          	li	a0,0
    2498:	10000537          	lui	a0,0x10000
    249c:	04500593          	li	a1,69
    24a0:	05200613          	li	a2,82
    24a4:	04f00693          	li	a3,79
    24a8:	00b52023          	sw	a1,0(a0) # 10000000 <end+0xfff3903>
    24ac:	00c52023          	sw	a2,0(a0)
    24b0:	00c52023          	sw	a2,0(a0)
    24b4:	00d52023          	sw	a3,0(a0)
    24b8:	00c52023          	sw	a2,0(a0)
    24bc:	030e0593          	addi	a1,t3,48
    24c0:	02000613          	li	a2,32
    24c4:	03a00693          	li	a3,58
    24c8:	00d52023          	sw	a3,0(a0)
    24cc:	00c52023          	sw	a2,0(a0)
    24d0:	00b52023          	sw	a1,0(a0)
    24d4:	00a00713          	li	a4,10
    24d8:	00e52023          	sw	a4,0(a0)
    24dc:	c41fd06f          	j	11c <auipc_ret>

000024e0 <pass>:
    24e0:	00000513          	li	a0,0
    24e4:	10000537          	lui	a0,0x10000
    24e8:	04f00593          	li	a1,79
    24ec:	04b00613          	li	a2,75
    24f0:	00a00693          	li	a3,10
    24f4:	00b52023          	sw	a1,0(a0) # 10000000 <end+0xfff3903>
    24f8:	00c52023          	sw	a2,0(a0)
    24fc:	00d52023          	sw	a3,0(a0)
    2500:	c1dfd06f          	j	11c <auipc_ret>
    2504:	00000013          	nop

00002508 <beq>:
    2508:	00002537          	lui	a0,0x2
    250c:	52c50513          	addi	a0,a0,1324 # 252c <.test_name>
    2510:	00000613          	li	a2,0
    2514:	10000637          	lui	a2,0x10000

00002518 <.prname_next>:
    2518:	00050583          	lb	a1,0(a0)
    251c:	00058a63          	beqz	a1,2530 <.prname_done>
    2520:	00b62023          	sw	a1,0(a2) # 10000000 <end+0xfff3903>
    2524:	00150513          	addi	a0,a0,1
    2528:	ff1ff06f          	j	2518 <.prname_next>

0000252c <.test_name>:
    252c:	00716562          	.word	0x00716562

00002530 <.prname_done>:
    2530:	00000613          	li	a2,0
    2534:	10000637          	lui	a2,0x10000
    2538:	02e00593          	li	a1,46
    253c:	00b62023          	sw	a1,0(a2) # 10000000 <end+0xfff3903>
    2540:	00b62023          	sw	a1,0(a2)

00002544 <test_2>:
    2544:	00200e13          	li	t3,2
    2548:	00000093          	li	ra,0
    254c:	00000113          	li	sp,0
    2550:	00208663          	beq	ra,sp,255c <test_2+0x18>
    2554:	2bc01863          	bne	zero,t3,2804 <fail>
    2558:	01c01663          	bne	zero,t3,2564 <test_3>
    255c:	fe208ee3          	beq	ra,sp,2558 <test_2+0x14>
    2560:	2bc01263          	bne	zero,t3,2804 <fail>

00002564 <test_3>:
    2564:	00300e13          	li	t3,3
    2568:	00100093          	li	ra,1
    256c:	00100113          	li	sp,1
    2570:	00208663          	beq	ra,sp,257c <test_3+0x18>
    2574:	29c01863          	bne	zero,t3,2804 <fail>
    2578:	01c01663          	bne	zero,t3,2584 <test_4>
    257c:	fe208ee3          	beq	ra,sp,2578 <test_3+0x14>
    2580:	29c01263          	bne	zero,t3,2804 <fail>

00002584 <test_4>:
    2584:	00400e13          	li	t3,4
    2588:	fff00093          	li	ra,-1
    258c:	fff00113          	li	sp,-1
    2590:	00208663          	beq	ra,sp,259c <test_4+0x18>
    2594:	27c01863          	bne	zero,t3,2804 <fail>
    2598:	01c01663          	bne	zero,t3,25a4 <test_5>
    259c:	fe208ee3          	beq	ra,sp,2598 <test_4+0x14>
    25a0:	27c01263          	bne	zero,t3,2804 <fail>

000025a4 <test_5>:
    25a4:	00500e13          	li	t3,5
    25a8:	00000093          	li	ra,0
    25ac:	00100113          	li	sp,1
    25b0:	00208463          	beq	ra,sp,25b8 <test_5+0x14>
    25b4:	01c01463          	bne	zero,t3,25bc <test_5+0x18>
    25b8:	25c01663          	bne	zero,t3,2804 <fail>
    25bc:	fe208ee3          	beq	ra,sp,25b8 <test_5+0x14>

000025c0 <test_6>:
    25c0:	00600e13          	li	t3,6
    25c4:	00100093          	li	ra,1
    25c8:	00000113          	li	sp,0
    25cc:	00208463          	beq	ra,sp,25d4 <test_6+0x14>
    25d0:	01c01463          	bne	zero,t3,25d8 <test_6+0x18>
    25d4:	23c01863          	bne	zero,t3,2804 <fail>
    25d8:	fe208ee3          	beq	ra,sp,25d4 <test_6+0x14>

000025dc <test_7>:
    25dc:	00700e13          	li	t3,7
    25e0:	fff00093          	li	ra,-1
    25e4:	00100113          	li	sp,1
    25e8:	00208463          	beq	ra,sp,25f0 <test_7+0x14>
    25ec:	01c01463          	bne	zero,t3,25f4 <test_7+0x18>
    25f0:	21c01a63          	bne	zero,t3,2804 <fail>
    25f4:	fe208ee3          	beq	ra,sp,25f0 <test_7+0x14>

000025f8 <test_8>:
    25f8:	00800e13          	li	t3,8
    25fc:	00100093          	li	ra,1
    2600:	fff00113          	li	sp,-1
    2604:	00208463          	beq	ra,sp,260c <test_8+0x14>
    2608:	01c01463          	bne	zero,t3,2610 <test_8+0x18>
    260c:	1fc01c63          	bne	zero,t3,2804 <fail>
    2610:	fe208ee3          	beq	ra,sp,260c <test_8+0x14>

00002614 <test_9>:
    2614:	00900e13          	li	t3,9
    2618:	00000213          	li	tp,0
    261c:	00000093          	li	ra,0
    2620:	fff00113          	li	sp,-1
    2624:	1e208063          	beq	ra,sp,2804 <fail>
    2628:	00120213          	addi	tp,tp,1 # 1 <reset_vec+0x1>
    262c:	00200293          	li	t0,2
    2630:	fe5216e3          	bne	tp,t0,261c <test_9+0x8>

00002634 <test_10>:
    2634:	00a00e13          	li	t3,10
    2638:	00000213          	li	tp,0
    263c:	00000093          	li	ra,0
    2640:	fff00113          	li	sp,-1
    2644:	00000013          	nop
    2648:	1a208e63          	beq	ra,sp,2804 <fail>
    264c:	00120213          	addi	tp,tp,1 # 1 <reset_vec+0x1>
    2650:	00200293          	li	t0,2
    2654:	fe5214e3          	bne	tp,t0,263c <test_10+0x8>

00002658 <test_11>:
    2658:	00b00e13          	li	t3,11
    265c:	00000213          	li	tp,0
    2660:	00000093          	li	ra,0
    2664:	fff00113          	li	sp,-1
    2668:	00000013          	nop
    266c:	00000013          	nop
    2670:	18208a63          	beq	ra,sp,2804 <fail>
    2674:	00120213          	addi	tp,tp,1 # 1 <reset_vec+0x1>
    2678:	00200293          	li	t0,2
    267c:	fe5212e3          	bne	tp,t0,2660 <test_11+0x8>

00002680 <test_12>:
    2680:	00c00e13          	li	t3,12
    2684:	00000213          	li	tp,0
    2688:	00000093          	li	ra,0
    268c:	00000013          	nop
    2690:	fff00113          	li	sp,-1
    2694:	16208863          	beq	ra,sp,2804 <fail>
    2698:	00120213          	addi	tp,tp,1 # 1 <reset_vec+0x1>
    269c:	00200293          	li	t0,2
    26a0:	fe5214e3          	bne	tp,t0,2688 <test_12+0x8>

000026a4 <test_13>:
    26a4:	00d00e13          	li	t3,13
    26a8:	00000213          	li	tp,0
    26ac:	00000093          	li	ra,0
    26b0:	00000013          	nop
    26b4:	fff00113          	li	sp,-1
    26b8:	00000013          	nop
    26bc:	14208463          	beq	ra,sp,2804 <fail>
    26c0:	00120213          	addi	tp,tp,1 # 1 <reset_vec+0x1>
    26c4:	00200293          	li	t0,2
    26c8:	fe5212e3          	bne	tp,t0,26ac <test_13+0x8>

000026cc <test_14>:
    26cc:	00e00e13          	li	t3,14
    26d0:	00000213          	li	tp,0
    26d4:	00000093          	li	ra,0
    26d8:	00000013          	nop
    26dc:	00000013          	nop
    26e0:	fff00113          	li	sp,-1
    26e4:	12208063          	beq	ra,sp,2804 <fail>
    26e8:	00120213          	addi	tp,tp,1 # 1 <reset_vec+0x1>
    26ec:	00200293          	li	t0,2
    26f0:	fe5212e3          	bne	tp,t0,26d4 <test_14+0x8>

000026f4 <test_15>:
    26f4:	00f00e13          	li	t3,15
    26f8:	00000213          	li	tp,0
    26fc:	00000093          	li	ra,0
    2700:	fff00113          	li	sp,-1
    2704:	10208063          	beq	ra,sp,2804 <fail>
    2708:	00120213          	addi	tp,tp,1 # 1 <reset_vec+0x1>
    270c:	00200293          	li	t0,2
    2710:	fe5216e3          	bne	tp,t0,26fc <test_15+0x8>

00002714 <test_16>:
    2714:	01000e13          	li	t3,16
    2718:	00000213          	li	tp,0
    271c:	00000093          	li	ra,0
    2720:	fff00113          	li	sp,-1
    2724:	00000013          	nop
    2728:	0c208e63          	beq	ra,sp,2804 <fail>
    272c:	00120213          	addi	tp,tp,1 # 1 <reset_vec+0x1>
    2730:	00200293          	li	t0,2
    2734:	fe5214e3          	bne	tp,t0,271c <test_16+0x8>

00002738 <test_17>:
    2738:	01100e13          	li	t3,17
    273c:	00000213          	li	tp,0
    2740:	00000093          	li	ra,0
    2744:	fff00113          	li	sp,-1
    2748:	00000013          	nop
    274c:	00000013          	nop
    2750:	0a208a63          	beq	ra,sp,2804 <fail>
    2754:	00120213          	addi	tp,tp,1 # 1 <reset_vec+0x1>
    2758:	00200293          	li	t0,2
    275c:	fe5212e3          	bne	tp,t0,2740 <test_17+0x8>

00002760 <test_18>:
    2760:	01200e13          	li	t3,18
    2764:	00000213          	li	tp,0
    2768:	00000093          	li	ra,0
    276c:	00000013          	nop
    2770:	fff00113          	li	sp,-1
    2774:	08208863          	beq	ra,sp,2804 <fail>
    2778:	00120213          	addi	tp,tp,1 # 1 <reset_vec+0x1>
    277c:	00200293          	li	t0,2
    2780:	fe5214e3          	bne	tp,t0,2768 <test_18+0x8>

00002784 <test_19>:
    2784:	01300e13          	li	t3,19
    2788:	00000213          	li	tp,0
    278c:	00000093          	li	ra,0
    2790:	00000013          	nop
    2794:	fff00113          	li	sp,-1
    2798:	00000013          	nop
    279c:	06208463          	beq	ra,sp,2804 <fail>
    27a0:	00120213          	addi	tp,tp,1 # 1 <reset_vec+0x1>
    27a4:	00200293          	li	t0,2
    27a8:	fe5212e3          	bne	tp,t0,278c <test_19+0x8>

000027ac <test_20>:
    27ac:	01400e13          	li	t3,20
    27b0:	00000213          	li	tp,0
    27b4:	00000093          	li	ra,0
    27b8:	00000013          	nop
    27bc:	00000013          	nop
    27c0:	fff00113          	li	sp,-1
    27c4:	04208063          	beq	ra,sp,2804 <fail>
    27c8:	00120213          	addi	tp,tp,1 # 1 <reset_vec+0x1>
    27cc:	00200293          	li	t0,2
    27d0:	fe5212e3          	bne	tp,t0,27b4 <test_20+0x8>

000027d4 <test_21>:
    27d4:	00100093          	li	ra,1
    27d8:	00000a63          	beqz	zero,27ec <test_21+0x18>
    27dc:	00108093          	addi	ra,ra,1
    27e0:	00108093          	addi	ra,ra,1
    27e4:	00108093          	addi	ra,ra,1
    27e8:	00108093          	addi	ra,ra,1
    27ec:	00108093          	addi	ra,ra,1
    27f0:	00108093          	addi	ra,ra,1
    27f4:	00300e93          	li	t4,3
    27f8:	01500e13          	li	t3,21
    27fc:	01d09463          	bne	ra,t4,2804 <fail>
    2800:	05c01863          	bne	zero,t3,2850 <pass>

00002804 <fail>:
    2804:	00000513          	li	a0,0
    2808:	10000537          	lui	a0,0x10000
    280c:	04500593          	li	a1,69
    2810:	05200613          	li	a2,82
    2814:	04f00693          	li	a3,79
    2818:	00b52023          	sw	a1,0(a0) # 10000000 <end+0xfff3903>
    281c:	00c52023          	sw	a2,0(a0)
    2820:	00c52023          	sw	a2,0(a0)
    2824:	00d52023          	sw	a3,0(a0)
    2828:	00c52023          	sw	a2,0(a0)
    282c:	030e0593          	addi	a1,t3,48
    2830:	02000613          	li	a2,32
    2834:	03a00693          	li	a3,58
    2838:	00d52023          	sw	a3,0(a0)
    283c:	00c52023          	sw	a2,0(a0)
    2840:	00b52023          	sw	a1,0(a0)
    2844:	00a00713          	li	a4,10
    2848:	00e52023          	sw	a4,0(a0)
    284c:	8f1fd06f          	j	13c <beq_ret>

00002850 <pass>:
    2850:	00000513          	li	a0,0
    2854:	10000537          	lui	a0,0x10000
    2858:	04f00593          	li	a1,79
    285c:	04b00613          	li	a2,75
    2860:	00a00693          	li	a3,10
    2864:	00b52023          	sw	a1,0(a0) # 10000000 <end+0xfff3903>
    2868:	00c52023          	sw	a2,0(a0)
    286c:	00d52023          	sw	a3,0(a0)
    2870:	8cdfd06f          	j	13c <beq_ret>

00002874 <bge>:
    2874:	00003537          	lui	a0,0x3
    2878:	89850513          	addi	a0,a0,-1896 # 2898 <.test_name>
    287c:	00000613          	li	a2,0
    2880:	10000637          	lui	a2,0x10000

00002884 <.prname_next>:
    2884:	00050583          	lb	a1,0(a0)
    2888:	00058a63          	beqz	a1,289c <.prname_done>
    288c:	00b62023          	sw	a1,0(a2) # 10000000 <end+0xfff3903>
    2890:	00150513          	addi	a0,a0,1
    2894:	ff1ff06f          	j	2884 <.prname_next>

00002898 <.test_name>:
    2898:	00656762          	.word	0x00656762

0000289c <.prname_done>:
    289c:	00000613          	li	a2,0
    28a0:	10000637          	lui	a2,0x10000
    28a4:	02e00593          	li	a1,46
    28a8:	00b62023          	sw	a1,0(a2) # 10000000 <end+0xfff3903>
    28ac:	00b62023          	sw	a1,0(a2)

000028b0 <test_2>:
    28b0:	00200e13          	li	t3,2
    28b4:	00000093          	li	ra,0
    28b8:	00000113          	li	sp,0
    28bc:	0020d663          	bge	ra,sp,28c8 <test_2+0x18>
    28c0:	31c01863          	bne	zero,t3,2bd0 <fail>
    28c4:	01c01663          	bne	zero,t3,28d0 <test_3>
    28c8:	fe20dee3          	bge	ra,sp,28c4 <test_2+0x14>
    28cc:	31c01263          	bne	zero,t3,2bd0 <fail>

000028d0 <test_3>:
    28d0:	00300e13          	li	t3,3
    28d4:	00100093          	li	ra,1
    28d8:	00100113          	li	sp,1
    28dc:	0020d663          	bge	ra,sp,28e8 <test_3+0x18>
    28e0:	2fc01863          	bne	zero,t3,2bd0 <fail>
    28e4:	01c01663          	bne	zero,t3,28f0 <test_4>
    28e8:	fe20dee3          	bge	ra,sp,28e4 <test_3+0x14>
    28ec:	2fc01263          	bne	zero,t3,2bd0 <fail>

000028f0 <test_4>:
    28f0:	00400e13          	li	t3,4
    28f4:	fff00093          	li	ra,-1
    28f8:	fff00113          	li	sp,-1
    28fc:	0020d663          	bge	ra,sp,2908 <test_4+0x18>
    2900:	2dc01863          	bne	zero,t3,2bd0 <fail>
    2904:	01c01663          	bne	zero,t3,2910 <test_5>
    2908:	fe20dee3          	bge	ra,sp,2904 <test_4+0x14>
    290c:	2dc01263          	bne	zero,t3,2bd0 <fail>

00002910 <test_5>:
    2910:	00500e13          	li	t3,5
    2914:	00100093          	li	ra,1
    2918:	00000113          	li	sp,0
    291c:	0020d663          	bge	ra,sp,2928 <test_5+0x18>
    2920:	2bc01863          	bne	zero,t3,2bd0 <fail>
    2924:	01c01663          	bne	zero,t3,2930 <test_6>
    2928:	fe20dee3          	bge	ra,sp,2924 <test_5+0x14>
    292c:	2bc01263          	bne	zero,t3,2bd0 <fail>

00002930 <test_6>:
    2930:	00600e13          	li	t3,6
    2934:	00100093          	li	ra,1
    2938:	fff00113          	li	sp,-1
    293c:	0020d663          	bge	ra,sp,2948 <test_6+0x18>
    2940:	29c01863          	bne	zero,t3,2bd0 <fail>
    2944:	01c01663          	bne	zero,t3,2950 <test_7>
    2948:	fe20dee3          	bge	ra,sp,2944 <test_6+0x14>
    294c:	29c01263          	bne	zero,t3,2bd0 <fail>

00002950 <test_7>:
    2950:	00700e13          	li	t3,7
    2954:	fff00093          	li	ra,-1
    2958:	ffe00113          	li	sp,-2
    295c:	0020d663          	bge	ra,sp,2968 <test_7+0x18>
    2960:	27c01863          	bne	zero,t3,2bd0 <fail>
    2964:	01c01663          	bne	zero,t3,2970 <test_8>
    2968:	fe20dee3          	bge	ra,sp,2964 <test_7+0x14>
    296c:	27c01263          	bne	zero,t3,2bd0 <fail>

00002970 <test_8>:
    2970:	00800e13          	li	t3,8
    2974:	00000093          	li	ra,0
    2978:	00100113          	li	sp,1
    297c:	0020d463          	bge	ra,sp,2984 <test_8+0x14>
    2980:	01c01463          	bne	zero,t3,2988 <test_8+0x18>
    2984:	25c01663          	bne	zero,t3,2bd0 <fail>
    2988:	fe20dee3          	bge	ra,sp,2984 <test_8+0x14>

0000298c <test_9>:
    298c:	00900e13          	li	t3,9
    2990:	fff00093          	li	ra,-1
    2994:	00100113          	li	sp,1
    2998:	0020d463          	bge	ra,sp,29a0 <test_9+0x14>
    299c:	01c01463          	bne	zero,t3,29a4 <test_9+0x18>
    29a0:	23c01863          	bne	zero,t3,2bd0 <fail>
    29a4:	fe20dee3          	bge	ra,sp,29a0 <test_9+0x14>

000029a8 <test_10>:
    29a8:	00a00e13          	li	t3,10
    29ac:	ffe00093          	li	ra,-2
    29b0:	fff00113          	li	sp,-1
    29b4:	0020d463          	bge	ra,sp,29bc <test_10+0x14>
    29b8:	01c01463          	bne	zero,t3,29c0 <test_10+0x18>
    29bc:	21c01a63          	bne	zero,t3,2bd0 <fail>
    29c0:	fe20dee3          	bge	ra,sp,29bc <test_10+0x14>

000029c4 <test_11>:
    29c4:	00b00e13          	li	t3,11
    29c8:	ffe00093          	li	ra,-2
    29cc:	00100113          	li	sp,1
    29d0:	0020d463          	bge	ra,sp,29d8 <test_11+0x14>
    29d4:	01c01463          	bne	zero,t3,29dc <test_11+0x18>
    29d8:	1fc01c63          	bne	zero,t3,2bd0 <fail>
    29dc:	fe20dee3          	bge	ra,sp,29d8 <test_11+0x14>

000029e0 <test_12>:
    29e0:	00c00e13          	li	t3,12
    29e4:	00000213          	li	tp,0
    29e8:	fff00093          	li	ra,-1
    29ec:	00000113          	li	sp,0
    29f0:	1e20d063          	bge	ra,sp,2bd0 <fail>
    29f4:	00120213          	addi	tp,tp,1 # 1 <reset_vec+0x1>
    29f8:	00200293          	li	t0,2
    29fc:	fe5216e3          	bne	tp,t0,29e8 <test_12+0x8>

00002a00 <test_13>:
    2a00:	00d00e13          	li	t3,13
    2a04:	00000213          	li	tp,0
    2a08:	fff00093          	li	ra,-1
    2a0c:	00000113          	li	sp,0
    2a10:	00000013          	nop
    2a14:	1a20de63          	bge	ra,sp,2bd0 <fail>
    2a18:	00120213          	addi	tp,tp,1 # 1 <reset_vec+0x1>
    2a1c:	00200293          	li	t0,2
    2a20:	fe5214e3          	bne	tp,t0,2a08 <test_13+0x8>

00002a24 <test_14>:
    2a24:	00e00e13          	li	t3,14
    2a28:	00000213          	li	tp,0
    2a2c:	fff00093          	li	ra,-1
    2a30:	00000113          	li	sp,0
    2a34:	00000013          	nop
    2a38:	00000013          	nop
    2a3c:	1820da63          	bge	ra,sp,2bd0 <fail>
    2a40:	00120213          	addi	tp,tp,1 # 1 <reset_vec+0x1>
    2a44:	00200293          	li	t0,2
    2a48:	fe5212e3          	bne	tp,t0,2a2c <test_14+0x8>

00002a4c <test_15>:
    2a4c:	00f00e13          	li	t3,15
    2a50:	00000213          	li	tp,0
    2a54:	fff00093          	li	ra,-1
    2a58:	00000013          	nop
    2a5c:	00000113          	li	sp,0
    2a60:	1620d863          	bge	ra,sp,2bd0 <fail>
    2a64:	00120213          	addi	tp,tp,1 # 1 <reset_vec+0x1>
    2a68:	00200293          	li	t0,2
    2a6c:	fe5214e3          	bne	tp,t0,2a54 <test_15+0x8>

00002a70 <test_16>:
    2a70:	01000e13          	li	t3,16
    2a74:	00000213          	li	tp,0
    2a78:	fff00093          	li	ra,-1
    2a7c:	00000013          	nop
    2a80:	00000113          	li	sp,0
    2a84:	00000013          	nop
    2a88:	1420d463          	bge	ra,sp,2bd0 <fail>
    2a8c:	00120213          	addi	tp,tp,1 # 1 <reset_vec+0x1>
    2a90:	00200293          	li	t0,2
    2a94:	fe5212e3          	bne	tp,t0,2a78 <test_16+0x8>

00002a98 <test_17>:
    2a98:	01100e13          	li	t3,17
    2a9c:	00000213          	li	tp,0
    2aa0:	fff00093          	li	ra,-1
    2aa4:	00000013          	nop
    2aa8:	00000013          	nop
    2aac:	00000113          	li	sp,0
    2ab0:	1220d063          	bge	ra,sp,2bd0 <fail>
    2ab4:	00120213          	addi	tp,tp,1 # 1 <reset_vec+0x1>
    2ab8:	00200293          	li	t0,2
    2abc:	fe5212e3          	bne	tp,t0,2aa0 <test_17+0x8>

00002ac0 <test_18>:
    2ac0:	01200e13          	li	t3,18
    2ac4:	00000213          	li	tp,0
    2ac8:	fff00093          	li	ra,-1
    2acc:	00000113          	li	sp,0
    2ad0:	1020d063          	bge	ra,sp,2bd0 <fail>
    2ad4:	00120213          	addi	tp,tp,1 # 1 <reset_vec+0x1>
    2ad8:	00200293          	li	t0,2
    2adc:	fe5216e3          	bne	tp,t0,2ac8 <test_18+0x8>

00002ae0 <test_19>:
    2ae0:	01300e13          	li	t3,19
    2ae4:	00000213          	li	tp,0
    2ae8:	fff00093          	li	ra,-1
    2aec:	00000113          	li	sp,0
    2af0:	00000013          	nop
    2af4:	0c20de63          	bge	ra,sp,2bd0 <fail>
    2af8:	00120213          	addi	tp,tp,1 # 1 <reset_vec+0x1>
    2afc:	00200293          	li	t0,2
    2b00:	fe5214e3          	bne	tp,t0,2ae8 <test_19+0x8>

00002b04 <test_20>:
    2b04:	01400e13          	li	t3,20
    2b08:	00000213          	li	tp,0
    2b0c:	fff00093          	li	ra,-1
    2b10:	00000113          	li	sp,0
    2b14:	00000013          	nop
    2b18:	00000013          	nop
    2b1c:	0a20da63          	bge	ra,sp,2bd0 <fail>
    2b20:	00120213          	addi	tp,tp,1 # 1 <reset_vec+0x1>
    2b24:	00200293          	li	t0,2
    2b28:	fe5212e3          	bne	tp,t0,2b0c <test_20+0x8>

00002b2c <test_21>:
    2b2c:	01500e13          	li	t3,21
    2b30:	00000213          	li	tp,0
    2b34:	fff00093          	li	ra,-1
    2b38:	00000013          	nop
    2b3c:	00000113          	li	sp,0
    2b40:	0820d863          	bge	ra,sp,2bd0 <fail>
    2b44:	00120213          	addi	tp,tp,1 # 1 <reset_vec+0x1>
    2b48:	00200293          	li	t0,2
    2b4c:	fe5214e3          	bne	tp,t0,2b34 <test_21+0x8>

00002b50 <test_22>:
    2b50:	01600e13          	li	t3,22
    2b54:	00000213          	li	tp,0
    2b58:	fff00093          	li	ra,-1
    2b5c:	00000013          	nop
    2b60:	00000113          	li	sp,0
    2b64:	00000013          	nop
    2b68:	0620d463          	bge	ra,sp,2bd0 <fail>
    2b6c:	00120213          	addi	tp,tp,1 # 1 <reset_vec+0x1>
    2b70:	00200293          	li	t0,2
    2b74:	fe5212e3          	bne	tp,t0,2b58 <test_22+0x8>

00002b78 <test_23>:
    2b78:	01700e13          	li	t3,23
    2b7c:	00000213          	li	tp,0
    2b80:	fff00093          	li	ra,-1
    2b84:	00000013          	nop
    2b88:	00000013          	nop
    2b8c:	00000113          	li	sp,0
    2b90:	0420d063          	bge	ra,sp,2bd0 <fail>
    2b94:	00120213          	addi	tp,tp,1 # 1 <reset_vec+0x1>
    2b98:	00200293          	li	t0,2
    2b9c:	fe5212e3          	bne	tp,t0,2b80 <test_23+0x8>

00002ba0 <test_24>:
    2ba0:	00100093          	li	ra,1
    2ba4:	0000da63          	bgez	ra,2bb8 <test_24+0x18>
    2ba8:	00108093          	addi	ra,ra,1
    2bac:	00108093          	addi	ra,ra,1
    2bb0:	00108093          	addi	ra,ra,1
    2bb4:	00108093          	addi	ra,ra,1
    2bb8:	00108093          	addi	ra,ra,1
    2bbc:	00108093          	addi	ra,ra,1
    2bc0:	00300e93          	li	t4,3
    2bc4:	01800e13          	li	t3,24
    2bc8:	01d09463          	bne	ra,t4,2bd0 <fail>
    2bcc:	05c01863          	bne	zero,t3,2c1c <pass>

00002bd0 <fail>:
    2bd0:	00000513          	li	a0,0
    2bd4:	10000537          	lui	a0,0x10000
    2bd8:	04500593          	li	a1,69
    2bdc:	05200613          	li	a2,82
    2be0:	04f00693          	li	a3,79
    2be4:	00b52023          	sw	a1,0(a0) # 10000000 <end+0xfff3903>
    2be8:	00c52023          	sw	a2,0(a0)
    2bec:	00c52023          	sw	a2,0(a0)
    2bf0:	00d52023          	sw	a3,0(a0)
    2bf4:	00c52023          	sw	a2,0(a0)
    2bf8:	030e0593          	addi	a1,t3,48
    2bfc:	02000613          	li	a2,32
    2c00:	03a00693          	li	a3,58
    2c04:	00d52023          	sw	a3,0(a0)
    2c08:	00c52023          	sw	a2,0(a0)
    2c0c:	00b52023          	sw	a1,0(a0)
    2c10:	00a00713          	li	a4,10
    2c14:	00e52023          	sw	a4,0(a0)
    2c18:	d3cfd06f          	j	154 <bge_ret>

00002c1c <pass>:
    2c1c:	00000513          	li	a0,0
    2c20:	10000537          	lui	a0,0x10000
    2c24:	04f00593          	li	a1,79
    2c28:	04b00613          	li	a2,75
    2c2c:	00a00693          	li	a3,10
    2c30:	00b52023          	sw	a1,0(a0) # 10000000 <end+0xfff3903>
    2c34:	00c52023          	sw	a2,0(a0)
    2c38:	00d52023          	sw	a3,0(a0)
    2c3c:	d18fd06f          	j	154 <bge_ret>

00002c40 <bgeu>:
    2c40:	00003537          	lui	a0,0x3
    2c44:	c6450513          	addi	a0,a0,-924 # 2c64 <.test_name>
    2c48:	00000613          	li	a2,0
    2c4c:	10000637          	lui	a2,0x10000

00002c50 <.prname_next>:
    2c50:	00050583          	lb	a1,0(a0)
    2c54:	00058c63          	beqz	a1,2c6c <.prname_done>
    2c58:	00b62023          	sw	a1,0(a2) # 10000000 <end+0xfff3903>
    2c5c:	00150513          	addi	a0,a0,1
    2c60:	ff1ff06f          	j	2c50 <.prname_next>

00002c64 <.test_name>:
    2c64:	75656762          	.word	0x75656762
    2c68:	00000000          	.word	0x00000000

00002c6c <.prname_done>:
    2c6c:	00000613          	li	a2,0
    2c70:	10000637          	lui	a2,0x10000
    2c74:	02e00593          	li	a1,46
    2c78:	00b62023          	sw	a1,0(a2) # 10000000 <end+0xfff3903>
    2c7c:	00b62023          	sw	a1,0(a2)

00002c80 <test_2>:
    2c80:	00200e13          	li	t3,2
    2c84:	00000093          	li	ra,0
    2c88:	00000113          	li	sp,0
    2c8c:	0020f663          	bgeu	ra,sp,2c98 <test_2+0x18>
    2c90:	35c01263          	bne	zero,t3,2fd4 <fail>
    2c94:	01c01663          	bne	zero,t3,2ca0 <test_3>
    2c98:	fe20fee3          	bgeu	ra,sp,2c94 <test_2+0x14>
    2c9c:	33c01c63          	bne	zero,t3,2fd4 <fail>

00002ca0 <test_3>:
    2ca0:	00300e13          	li	t3,3
    2ca4:	00100093          	li	ra,1
    2ca8:	00100113          	li	sp,1
    2cac:	0020f663          	bgeu	ra,sp,2cb8 <test_3+0x18>
    2cb0:	33c01263          	bne	zero,t3,2fd4 <fail>
    2cb4:	01c01663          	bne	zero,t3,2cc0 <test_4>
    2cb8:	fe20fee3          	bgeu	ra,sp,2cb4 <test_3+0x14>
    2cbc:	31c01c63          	bne	zero,t3,2fd4 <fail>

00002cc0 <test_4>:
    2cc0:	00400e13          	li	t3,4
    2cc4:	fff00093          	li	ra,-1
    2cc8:	fff00113          	li	sp,-1
    2ccc:	0020f663          	bgeu	ra,sp,2cd8 <test_4+0x18>
    2cd0:	31c01263          	bne	zero,t3,2fd4 <fail>
    2cd4:	01c01663          	bne	zero,t3,2ce0 <test_5>
    2cd8:	fe20fee3          	bgeu	ra,sp,2cd4 <test_4+0x14>
    2cdc:	2fc01c63          	bne	zero,t3,2fd4 <fail>

00002ce0 <test_5>:
    2ce0:	00500e13          	li	t3,5
    2ce4:	00100093          	li	ra,1
    2ce8:	00000113          	li	sp,0
    2cec:	0020f663          	bgeu	ra,sp,2cf8 <test_5+0x18>
    2cf0:	2fc01263          	bne	zero,t3,2fd4 <fail>
    2cf4:	01c01663          	bne	zero,t3,2d00 <test_6>
    2cf8:	fe20fee3          	bgeu	ra,sp,2cf4 <test_5+0x14>
    2cfc:	2dc01c63          	bne	zero,t3,2fd4 <fail>

00002d00 <test_6>:
    2d00:	00600e13          	li	t3,6
    2d04:	fff00093          	li	ra,-1
    2d08:	ffe00113          	li	sp,-2
    2d0c:	0020f663          	bgeu	ra,sp,2d18 <test_6+0x18>
    2d10:	2dc01263          	bne	zero,t3,2fd4 <fail>
    2d14:	01c01663          	bne	zero,t3,2d20 <test_7>
    2d18:	fe20fee3          	bgeu	ra,sp,2d14 <test_6+0x14>
    2d1c:	2bc01c63          	bne	zero,t3,2fd4 <fail>

00002d20 <test_7>:
    2d20:	00700e13          	li	t3,7
    2d24:	fff00093          	li	ra,-1
    2d28:	00000113          	li	sp,0
    2d2c:	0020f663          	bgeu	ra,sp,2d38 <test_7+0x18>
    2d30:	2bc01263          	bne	zero,t3,2fd4 <fail>
    2d34:	01c01663          	bne	zero,t3,2d40 <test_8>
    2d38:	fe20fee3          	bgeu	ra,sp,2d34 <test_7+0x14>
    2d3c:	29c01c63          	bne	zero,t3,2fd4 <fail>

00002d40 <test_8>:
    2d40:	00800e13          	li	t3,8
    2d44:	00000093          	li	ra,0
    2d48:	00100113          	li	sp,1
    2d4c:	0020f463          	bgeu	ra,sp,2d54 <test_8+0x14>
    2d50:	01c01463          	bne	zero,t3,2d58 <test_8+0x18>
    2d54:	29c01063          	bne	zero,t3,2fd4 <fail>
    2d58:	fe20fee3          	bgeu	ra,sp,2d54 <test_8+0x14>

00002d5c <test_9>:
    2d5c:	00900e13          	li	t3,9
    2d60:	ffe00093          	li	ra,-2
    2d64:	fff00113          	li	sp,-1
    2d68:	0020f463          	bgeu	ra,sp,2d70 <test_9+0x14>
    2d6c:	01c01463          	bne	zero,t3,2d74 <test_9+0x18>
    2d70:	27c01263          	bne	zero,t3,2fd4 <fail>
    2d74:	fe20fee3          	bgeu	ra,sp,2d70 <test_9+0x14>

00002d78 <test_10>:
    2d78:	00a00e13          	li	t3,10
    2d7c:	00000093          	li	ra,0
    2d80:	fff00113          	li	sp,-1
    2d84:	0020f463          	bgeu	ra,sp,2d8c <test_10+0x14>
    2d88:	01c01463          	bne	zero,t3,2d90 <test_10+0x18>
    2d8c:	25c01463          	bne	zero,t3,2fd4 <fail>
    2d90:	fe20fee3          	bgeu	ra,sp,2d8c <test_10+0x14>

00002d94 <test_11>:
    2d94:	00b00e13          	li	t3,11
    2d98:	800000b7          	lui	ra,0x80000
    2d9c:	fff08093          	addi	ra,ra,-1 # 7fffffff <end+0x7fff3902>
    2da0:	80000137          	lui	sp,0x80000
    2da4:	0020f463          	bgeu	ra,sp,2dac <test_11+0x18>
    2da8:	01c01463          	bne	zero,t3,2db0 <test_11+0x1c>
    2dac:	23c01463          	bne	zero,t3,2fd4 <fail>
    2db0:	fe20fee3          	bgeu	ra,sp,2dac <test_11+0x18>

00002db4 <test_12>:
    2db4:	00c00e13          	li	t3,12
    2db8:	00000213          	li	tp,0
    2dbc:	f00000b7          	lui	ra,0xf0000
    2dc0:	fff08093          	addi	ra,ra,-1 # efffffff <end+0xefff3902>
    2dc4:	f0000137          	lui	sp,0xf0000
    2dc8:	2020f663          	bgeu	ra,sp,2fd4 <fail>
    2dcc:	00120213          	addi	tp,tp,1 # 1 <reset_vec+0x1>
    2dd0:	00200293          	li	t0,2
    2dd4:	fe5214e3          	bne	tp,t0,2dbc <test_12+0x8>

00002dd8 <test_13>:
    2dd8:	00d00e13          	li	t3,13
    2ddc:	00000213          	li	tp,0
    2de0:	f00000b7          	lui	ra,0xf0000
    2de4:	fff08093          	addi	ra,ra,-1 # efffffff <end+0xefff3902>
    2de8:	f0000137          	lui	sp,0xf0000
    2dec:	00000013          	nop
    2df0:	1e20f263          	bgeu	ra,sp,2fd4 <fail>
    2df4:	00120213          	addi	tp,tp,1 # 1 <reset_vec+0x1>
    2df8:	00200293          	li	t0,2
    2dfc:	fe5212e3          	bne	tp,t0,2de0 <test_13+0x8>

00002e00 <test_14>:
    2e00:	00e00e13          	li	t3,14
    2e04:	00000213          	li	tp,0
    2e08:	f00000b7          	lui	ra,0xf0000
    2e0c:	fff08093          	addi	ra,ra,-1 # efffffff <end+0xefff3902>
    2e10:	f0000137          	lui	sp,0xf0000
    2e14:	00000013          	nop
    2e18:	00000013          	nop
    2e1c:	1a20fc63          	bgeu	ra,sp,2fd4 <fail>
    2e20:	00120213          	addi	tp,tp,1 # 1 <reset_vec+0x1>
    2e24:	00200293          	li	t0,2
    2e28:	fe5210e3          	bne	tp,t0,2e08 <test_14+0x8>

00002e2c <test_15>:
    2e2c:	00f00e13          	li	t3,15
    2e30:	00000213          	li	tp,0
    2e34:	f00000b7          	lui	ra,0xf0000
    2e38:	fff08093          	addi	ra,ra,-1 # efffffff <end+0xefff3902>
    2e3c:	00000013          	nop
    2e40:	f0000137          	lui	sp,0xf0000
    2e44:	1820f863          	bgeu	ra,sp,2fd4 <fail>
    2e48:	00120213          	addi	tp,tp,1 # 1 <reset_vec+0x1>
    2e4c:	00200293          	li	t0,2
    2e50:	fe5212e3          	bne	tp,t0,2e34 <test_15+0x8>

00002e54 <test_16>:
    2e54:	01000e13          	li	t3,16
    2e58:	00000213          	li	tp,0
    2e5c:	f00000b7          	lui	ra,0xf0000
    2e60:	fff08093          	addi	ra,ra,-1 # efffffff <end+0xefff3902>
    2e64:	00000013          	nop
    2e68:	f0000137          	lui	sp,0xf0000
    2e6c:	00000013          	nop
    2e70:	1620f263          	bgeu	ra,sp,2fd4 <fail>
    2e74:	00120213          	addi	tp,tp,1 # 1 <reset_vec+0x1>
    2e78:	00200293          	li	t0,2
    2e7c:	fe5210e3          	bne	tp,t0,2e5c <test_16+0x8>

00002e80 <test_17>:
    2e80:	01100e13          	li	t3,17
    2e84:	00000213          	li	tp,0
    2e88:	f00000b7          	lui	ra,0xf0000
    2e8c:	fff08093          	addi	ra,ra,-1 # efffffff <end+0xefff3902>
    2e90:	00000013          	nop
    2e94:	00000013          	nop
    2e98:	f0000137          	lui	sp,0xf0000
    2e9c:	1220fc63          	bgeu	ra,sp,2fd4 <fail>
    2ea0:	00120213          	addi	tp,tp,1 # 1 <reset_vec+0x1>
    2ea4:	00200293          	li	t0,2
    2ea8:	fe5210e3          	bne	tp,t0,2e88 <test_17+0x8>

00002eac <test_18>:
    2eac:	01200e13          	li	t3,18
    2eb0:	00000213          	li	tp,0
    2eb4:	f00000b7          	lui	ra,0xf0000
    2eb8:	fff08093          	addi	ra,ra,-1 # efffffff <end+0xefff3902>
    2ebc:	f0000137          	lui	sp,0xf0000
    2ec0:	1020fa63          	bgeu	ra,sp,2fd4 <fail>
    2ec4:	00120213          	addi	tp,tp,1 # 1 <reset_vec+0x1>
    2ec8:	00200293          	li	t0,2
    2ecc:	fe5214e3          	bne	tp,t0,2eb4 <test_18+0x8>

00002ed0 <test_19>:
    2ed0:	01300e13          	li	t3,19
    2ed4:	00000213          	li	tp,0
    2ed8:	f00000b7          	lui	ra,0xf0000
    2edc:	fff08093          	addi	ra,ra,-1 # efffffff <end+0xefff3902>
    2ee0:	f0000137          	lui	sp,0xf0000
    2ee4:	00000013          	nop
    2ee8:	0e20f663          	bgeu	ra,sp,2fd4 <fail>
    2eec:	00120213          	addi	tp,tp,1 # 1 <reset_vec+0x1>
    2ef0:	00200293          	li	t0,2
    2ef4:	fe5212e3          	bne	tp,t0,2ed8 <test_19+0x8>

00002ef8 <test_20>:
    2ef8:	01400e13          	li	t3,20
    2efc:	00000213          	li	tp,0
    2f00:	f00000b7          	lui	ra,0xf0000
    2f04:	fff08093          	addi	ra,ra,-1 # efffffff <end+0xefff3902>
    2f08:	f0000137          	lui	sp,0xf0000
    2f0c:	00000013          	nop
    2f10:	00000013          	nop
    2f14:	0c20f063          	bgeu	ra,sp,2fd4 <fail>
    2f18:	00120213          	addi	tp,tp,1 # 1 <reset_vec+0x1>
    2f1c:	00200293          	li	t0,2
    2f20:	fe5210e3          	bne	tp,t0,2f00 <test_20+0x8>

00002f24 <test_21>:
    2f24:	01500e13          	li	t3,21
    2f28:	00000213          	li	tp,0
    2f2c:	f00000b7          	lui	ra,0xf0000
    2f30:	fff08093          	addi	ra,ra,-1 # efffffff <end+0xefff3902>
    2f34:	00000013          	nop
    2f38:	f0000137          	lui	sp,0xf0000
    2f3c:	0820fc63          	bgeu	ra,sp,2fd4 <fail>
    2f40:	00120213          	addi	tp,tp,1 # 1 <reset_vec+0x1>
    2f44:	00200293          	li	t0,2
    2f48:	fe5212e3          	bne	tp,t0,2f2c <test_21+0x8>

00002f4c <test_22>:
    2f4c:	01600e13          	li	t3,22
    2f50:	00000213          	li	tp,0
    2f54:	f00000b7          	lui	ra,0xf0000
    2f58:	fff08093          	addi	ra,ra,-1 # efffffff <end+0xefff3902>
    2f5c:	00000013          	nop
    2f60:	f0000137          	lui	sp,0xf0000
    2f64:	00000013          	nop
    2f68:	0620f663          	bgeu	ra,sp,2fd4 <fail>
    2f6c:	00120213          	addi	tp,tp,1 # 1 <reset_vec+0x1>
    2f70:	00200293          	li	t0,2
    2f74:	fe5210e3          	bne	tp,t0,2f54 <test_22+0x8>

00002f78 <test_23>:
    2f78:	01700e13          	li	t3,23
    2f7c:	00000213          	li	tp,0
    2f80:	f00000b7          	lui	ra,0xf0000
    2f84:	fff08093          	addi	ra,ra,-1 # efffffff <end+0xefff3902>
    2f88:	00000013          	nop
    2f8c:	00000013          	nop
    2f90:	f0000137          	lui	sp,0xf0000
    2f94:	0420f063          	bgeu	ra,sp,2fd4 <fail>
    2f98:	00120213          	addi	tp,tp,1 # 1 <reset_vec+0x1>
    2f9c:	00200293          	li	t0,2
    2fa0:	fe5210e3          	bne	tp,t0,2f80 <test_23+0x8>

00002fa4 <test_24>:
    2fa4:	00100093          	li	ra,1
    2fa8:	0000fa63          	bgeu	ra,zero,2fbc <test_24+0x18>
    2fac:	00108093          	addi	ra,ra,1
    2fb0:	00108093          	addi	ra,ra,1
    2fb4:	00108093          	addi	ra,ra,1
    2fb8:	00108093          	addi	ra,ra,1
    2fbc:	00108093          	addi	ra,ra,1
    2fc0:	00108093          	addi	ra,ra,1
    2fc4:	00300e93          	li	t4,3
    2fc8:	01800e13          	li	t3,24
    2fcc:	01d09463          	bne	ra,t4,2fd4 <fail>
    2fd0:	05c01863          	bne	zero,t3,3020 <pass>

00002fd4 <fail>:
    2fd4:	00000513          	li	a0,0
    2fd8:	10000537          	lui	a0,0x10000
    2fdc:	04500593          	li	a1,69
    2fe0:	05200613          	li	a2,82
    2fe4:	04f00693          	li	a3,79
    2fe8:	00b52023          	sw	a1,0(a0) # 10000000 <end+0xfff3903>
    2fec:	00c52023          	sw	a2,0(a0)
    2ff0:	00c52023          	sw	a2,0(a0)
    2ff4:	00d52023          	sw	a3,0(a0)
    2ff8:	00c52023          	sw	a2,0(a0)
    2ffc:	030e0593          	addi	a1,t3,48
    3000:	02000613          	li	a2,32
    3004:	03a00693          	li	a3,58
    3008:	00d52023          	sw	a3,0(a0)
    300c:	00c52023          	sw	a2,0(a0)
    3010:	00b52023          	sw	a1,0(a0)
    3014:	00a00713          	li	a4,10
    3018:	00e52023          	sw	a4,0(a0)
    301c:	948fd06f          	j	164 <bgeu_ret>

00003020 <pass>:
    3020:	00000513          	li	a0,0
    3024:	10000537          	lui	a0,0x10000
    3028:	04f00593          	li	a1,79
    302c:	04b00613          	li	a2,75
    3030:	00a00693          	li	a3,10
    3034:	00b52023          	sw	a1,0(a0) # 10000000 <end+0xfff3903>
    3038:	00c52023          	sw	a2,0(a0)
    303c:	00d52023          	sw	a3,0(a0)
    3040:	924fd06f          	j	164 <bgeu_ret>

00003044 <blt>:
    3044:	00003537          	lui	a0,0x3
    3048:	06850513          	addi	a0,a0,104 # 3068 <.test_name>
    304c:	00000613          	li	a2,0
    3050:	10000637          	lui	a2,0x10000

00003054 <.prname_next>:
    3054:	00050583          	lb	a1,0(a0)
    3058:	00058a63          	beqz	a1,306c <.prname_done>
    305c:	00b62023          	sw	a1,0(a2) # 10000000 <end+0xfff3903>
    3060:	00150513          	addi	a0,a0,1
    3064:	ff1ff06f          	j	3054 <.prname_next>

00003068 <.test_name>:
    3068:	00746c62          	.word	0x00746c62

0000306c <.prname_done>:
    306c:	00000613          	li	a2,0
    3070:	10000637          	lui	a2,0x10000
    3074:	02e00593          	li	a1,46
    3078:	00b62023          	sw	a1,0(a2) # 10000000 <end+0xfff3903>
    307c:	00b62023          	sw	a1,0(a2)

00003080 <test_2>:
    3080:	00200e13          	li	t3,2
    3084:	00000093          	li	ra,0
    3088:	00100113          	li	sp,1
    308c:	0020c663          	blt	ra,sp,3098 <test_2+0x18>
    3090:	2bc01863          	bne	zero,t3,3340 <fail>
    3094:	01c01663          	bne	zero,t3,30a0 <test_3>
    3098:	fe20cee3          	blt	ra,sp,3094 <test_2+0x14>
    309c:	2bc01263          	bne	zero,t3,3340 <fail>

000030a0 <test_3>:
    30a0:	00300e13          	li	t3,3
    30a4:	fff00093          	li	ra,-1
    30a8:	00100113          	li	sp,1
    30ac:	0020c663          	blt	ra,sp,30b8 <test_3+0x18>
    30b0:	29c01863          	bne	zero,t3,3340 <fail>
    30b4:	01c01663          	bne	zero,t3,30c0 <test_4>
    30b8:	fe20cee3          	blt	ra,sp,30b4 <test_3+0x14>
    30bc:	29c01263          	bne	zero,t3,3340 <fail>

000030c0 <test_4>:
    30c0:	00400e13          	li	t3,4
    30c4:	ffe00093          	li	ra,-2
    30c8:	fff00113          	li	sp,-1
    30cc:	0020c663          	blt	ra,sp,30d8 <test_4+0x18>
    30d0:	27c01863          	bne	zero,t3,3340 <fail>
    30d4:	01c01663          	bne	zero,t3,30e0 <test_5>
    30d8:	fe20cee3          	blt	ra,sp,30d4 <test_4+0x14>
    30dc:	27c01263          	bne	zero,t3,3340 <fail>

000030e0 <test_5>:
    30e0:	00500e13          	li	t3,5
    30e4:	00100093          	li	ra,1
    30e8:	00000113          	li	sp,0
    30ec:	0020c463          	blt	ra,sp,30f4 <test_5+0x14>
    30f0:	01c01463          	bne	zero,t3,30f8 <test_5+0x18>
    30f4:	25c01663          	bne	zero,t3,3340 <fail>
    30f8:	fe20cee3          	blt	ra,sp,30f4 <test_5+0x14>

000030fc <test_6>:
    30fc:	00600e13          	li	t3,6
    3100:	00100093          	li	ra,1
    3104:	fff00113          	li	sp,-1
    3108:	0020c463          	blt	ra,sp,3110 <test_6+0x14>
    310c:	01c01463          	bne	zero,t3,3114 <test_6+0x18>
    3110:	23c01863          	bne	zero,t3,3340 <fail>
    3114:	fe20cee3          	blt	ra,sp,3110 <test_6+0x14>

00003118 <test_7>:
    3118:	00700e13          	li	t3,7
    311c:	fff00093          	li	ra,-1
    3120:	ffe00113          	li	sp,-2
    3124:	0020c463          	blt	ra,sp,312c <test_7+0x14>
    3128:	01c01463          	bne	zero,t3,3130 <test_7+0x18>
    312c:	21c01a63          	bne	zero,t3,3340 <fail>
    3130:	fe20cee3          	blt	ra,sp,312c <test_7+0x14>

00003134 <test_8>:
    3134:	00800e13          	li	t3,8
    3138:	00100093          	li	ra,1
    313c:	ffe00113          	li	sp,-2
    3140:	0020c463          	blt	ra,sp,3148 <test_8+0x14>
    3144:	01c01463          	bne	zero,t3,314c <test_8+0x18>
    3148:	1fc01c63          	bne	zero,t3,3340 <fail>
    314c:	fe20cee3          	blt	ra,sp,3148 <test_8+0x14>

00003150 <test_9>:
    3150:	00900e13          	li	t3,9
    3154:	00000213          	li	tp,0
    3158:	00000093          	li	ra,0
    315c:	fff00113          	li	sp,-1
    3160:	1e20c063          	blt	ra,sp,3340 <fail>
    3164:	00120213          	addi	tp,tp,1 # 1 <reset_vec+0x1>
    3168:	00200293          	li	t0,2
    316c:	fe5216e3          	bne	tp,t0,3158 <test_9+0x8>

00003170 <test_10>:
    3170:	00a00e13          	li	t3,10
    3174:	00000213          	li	tp,0
    3178:	00000093          	li	ra,0
    317c:	fff00113          	li	sp,-1
    3180:	00000013          	nop
    3184:	1a20ce63          	blt	ra,sp,3340 <fail>
    3188:	00120213          	addi	tp,tp,1 # 1 <reset_vec+0x1>
    318c:	00200293          	li	t0,2
    3190:	fe5214e3          	bne	tp,t0,3178 <test_10+0x8>

00003194 <test_11>:
    3194:	00b00e13          	li	t3,11
    3198:	00000213          	li	tp,0
    319c:	00000093          	li	ra,0
    31a0:	fff00113          	li	sp,-1
    31a4:	00000013          	nop
    31a8:	00000013          	nop
    31ac:	1820ca63          	blt	ra,sp,3340 <fail>
    31b0:	00120213          	addi	tp,tp,1 # 1 <reset_vec+0x1>
    31b4:	00200293          	li	t0,2
    31b8:	fe5212e3          	bne	tp,t0,319c <test_11+0x8>

000031bc <test_12>:
    31bc:	00c00e13          	li	t3,12
    31c0:	00000213          	li	tp,0
    31c4:	00000093          	li	ra,0
    31c8:	00000013          	nop
    31cc:	fff00113          	li	sp,-1
    31d0:	1620c863          	blt	ra,sp,3340 <fail>
    31d4:	00120213          	addi	tp,tp,1 # 1 <reset_vec+0x1>
    31d8:	00200293          	li	t0,2
    31dc:	fe5214e3          	bne	tp,t0,31c4 <test_12+0x8>

000031e0 <test_13>:
    31e0:	00d00e13          	li	t3,13
    31e4:	00000213          	li	tp,0
    31e8:	00000093          	li	ra,0
    31ec:	00000013          	nop
    31f0:	fff00113          	li	sp,-1
    31f4:	00000013          	nop
    31f8:	1420c463          	blt	ra,sp,3340 <fail>
    31fc:	00120213          	addi	tp,tp,1 # 1 <reset_vec+0x1>
    3200:	00200293          	li	t0,2
    3204:	fe5212e3          	bne	tp,t0,31e8 <test_13+0x8>

00003208 <test_14>:
    3208:	00e00e13          	li	t3,14
    320c:	00000213          	li	tp,0
    3210:	00000093          	li	ra,0
    3214:	00000013          	nop
    3218:	00000013          	nop
    321c:	fff00113          	li	sp,-1
    3220:	1220c063          	blt	ra,sp,3340 <fail>
    3224:	00120213          	addi	tp,tp,1 # 1 <reset_vec+0x1>
    3228:	00200293          	li	t0,2
    322c:	fe5212e3          	bne	tp,t0,3210 <test_14+0x8>

00003230 <test_15>:
    3230:	00f00e13          	li	t3,15
    3234:	00000213          	li	tp,0
    3238:	00000093          	li	ra,0
    323c:	fff00113          	li	sp,-1
    3240:	1020c063          	blt	ra,sp,3340 <fail>
    3244:	00120213          	addi	tp,tp,1 # 1 <reset_vec+0x1>
    3248:	00200293          	li	t0,2
    324c:	fe5216e3          	bne	tp,t0,3238 <test_15+0x8>

00003250 <test_16>:
    3250:	01000e13          	li	t3,16
    3254:	00000213          	li	tp,0
    3258:	00000093          	li	ra,0
    325c:	fff00113          	li	sp,-1
    3260:	00000013          	nop
    3264:	0c20ce63          	blt	ra,sp,3340 <fail>
    3268:	00120213          	addi	tp,tp,1 # 1 <reset_vec+0x1>
    326c:	00200293          	li	t0,2
    3270:	fe5214e3          	bne	tp,t0,3258 <test_16+0x8>

00003274 <test_17>:
    3274:	01100e13          	li	t3,17
    3278:	00000213          	li	tp,0
    327c:	00000093          	li	ra,0
    3280:	fff00113          	li	sp,-1
    3284:	00000013          	nop
    3288:	00000013          	nop
    328c:	0a20ca63          	blt	ra,sp,3340 <fail>
    3290:	00120213          	addi	tp,tp,1 # 1 <reset_vec+0x1>
    3294:	00200293          	li	t0,2
    3298:	fe5212e3          	bne	tp,t0,327c <test_17+0x8>

0000329c <test_18>:
    329c:	01200e13          	li	t3,18
    32a0:	00000213          	li	tp,0
    32a4:	00000093          	li	ra,0
    32a8:	00000013          	nop
    32ac:	fff00113          	li	sp,-1
    32b0:	0820c863          	blt	ra,sp,3340 <fail>
    32b4:	00120213          	addi	tp,tp,1 # 1 <reset_vec+0x1>
    32b8:	00200293          	li	t0,2
    32bc:	fe5214e3          	bne	tp,t0,32a4 <test_18+0x8>

000032c0 <test_19>:
    32c0:	01300e13          	li	t3,19
    32c4:	00000213          	li	tp,0
    32c8:	00000093          	li	ra,0
    32cc:	00000013          	nop
    32d0:	fff00113          	li	sp,-1
    32d4:	00000013          	nop
    32d8:	0620c463          	blt	ra,sp,3340 <fail>
    32dc:	00120213          	addi	tp,tp,1 # 1 <reset_vec+0x1>
    32e0:	00200293          	li	t0,2
    32e4:	fe5212e3          	bne	tp,t0,32c8 <test_19+0x8>

000032e8 <test_20>:
    32e8:	01400e13          	li	t3,20
    32ec:	00000213          	li	tp,0
    32f0:	00000093          	li	ra,0
    32f4:	00000013          	nop
    32f8:	00000013          	nop
    32fc:	fff00113          	li	sp,-1
    3300:	0420c063          	blt	ra,sp,3340 <fail>
    3304:	00120213          	addi	tp,tp,1 # 1 <reset_vec+0x1>
    3308:	00200293          	li	t0,2
    330c:	fe5212e3          	bne	tp,t0,32f0 <test_20+0x8>

00003310 <test_21>:
    3310:	00100093          	li	ra,1
    3314:	00104a63          	bgtz	ra,3328 <test_21+0x18>
    3318:	00108093          	addi	ra,ra,1
    331c:	00108093          	addi	ra,ra,1
    3320:	00108093          	addi	ra,ra,1
    3324:	00108093          	addi	ra,ra,1
    3328:	00108093          	addi	ra,ra,1
    332c:	00108093          	addi	ra,ra,1
    3330:	00300e93          	li	t4,3
    3334:	01500e13          	li	t3,21
    3338:	01d09463          	bne	ra,t4,3340 <fail>
    333c:	05c01863          	bne	zero,t3,338c <pass>

00003340 <fail>:
    3340:	00000513          	li	a0,0
    3344:	10000537          	lui	a0,0x10000
    3348:	04500593          	li	a1,69
    334c:	05200613          	li	a2,82
    3350:	04f00693          	li	a3,79
    3354:	00b52023          	sw	a1,0(a0) # 10000000 <end+0xfff3903>
    3358:	00c52023          	sw	a2,0(a0)
    335c:	00c52023          	sw	a2,0(a0)
    3360:	00d52023          	sw	a3,0(a0)
    3364:	00c52023          	sw	a2,0(a0)
    3368:	030e0593          	addi	a1,t3,48
    336c:	02000613          	li	a2,32
    3370:	03a00693          	li	a3,58
    3374:	00d52023          	sw	a3,0(a0)
    3378:	00c52023          	sw	a2,0(a0)
    337c:	00b52023          	sw	a1,0(a0)
    3380:	00a00713          	li	a4,10
    3384:	00e52023          	sw	a4,0(a0)
    3388:	dc5fc06f          	j	14c <blt_ret>

0000338c <pass>:
    338c:	00000513          	li	a0,0
    3390:	10000537          	lui	a0,0x10000
    3394:	04f00593          	li	a1,79
    3398:	04b00613          	li	a2,75
    339c:	00a00693          	li	a3,10
    33a0:	00b52023          	sw	a1,0(a0) # 10000000 <end+0xfff3903>
    33a4:	00c52023          	sw	a2,0(a0)
    33a8:	00d52023          	sw	a3,0(a0)
    33ac:	da1fc06f          	j	14c <blt_ret>

000033b0 <bltu>:
    33b0:	00003537          	lui	a0,0x3
    33b4:	3d450513          	addi	a0,a0,980 # 33d4 <.test_name>
    33b8:	00000613          	li	a2,0
    33bc:	10000637          	lui	a2,0x10000

000033c0 <.prname_next>:
    33c0:	00050583          	lb	a1,0(a0)
    33c4:	00058c63          	beqz	a1,33dc <.prname_done>
    33c8:	00b62023          	sw	a1,0(a2) # 10000000 <end+0xfff3903>
    33cc:	00150513          	addi	a0,a0,1
    33d0:	ff1ff06f          	j	33c0 <.prname_next>

000033d4 <.test_name>:
    33d4:	75746c62          	.word	0x75746c62
    33d8:	00000000          	.word	0x00000000

000033dc <.prname_done>:
    33dc:	00000613          	li	a2,0
    33e0:	10000637          	lui	a2,0x10000
    33e4:	02e00593          	li	a1,46
    33e8:	00b62023          	sw	a1,0(a2) # 10000000 <end+0xfff3903>
    33ec:	00b62023          	sw	a1,0(a2)

000033f0 <test_2>:
    33f0:	00200e13          	li	t3,2
    33f4:	00000093          	li	ra,0
    33f8:	00100113          	li	sp,1
    33fc:	0020e663          	bltu	ra,sp,3408 <test_2+0x18>
    3400:	2fc01263          	bne	zero,t3,36e4 <fail>
    3404:	01c01663          	bne	zero,t3,3410 <test_3>
    3408:	fe20eee3          	bltu	ra,sp,3404 <test_2+0x14>
    340c:	2dc01c63          	bne	zero,t3,36e4 <fail>

00003410 <test_3>:
    3410:	00300e13          	li	t3,3
    3414:	ffe00093          	li	ra,-2
    3418:	fff00113          	li	sp,-1
    341c:	0020e663          	bltu	ra,sp,3428 <test_3+0x18>
    3420:	2dc01263          	bne	zero,t3,36e4 <fail>
    3424:	01c01663          	bne	zero,t3,3430 <test_4>
    3428:	fe20eee3          	bltu	ra,sp,3424 <test_3+0x14>
    342c:	2bc01c63          	bne	zero,t3,36e4 <fail>

00003430 <test_4>:
    3430:	00400e13          	li	t3,4
    3434:	00000093          	li	ra,0
    3438:	fff00113          	li	sp,-1
    343c:	0020e663          	bltu	ra,sp,3448 <test_4+0x18>
    3440:	2bc01263          	bne	zero,t3,36e4 <fail>
    3444:	01c01663          	bne	zero,t3,3450 <test_5>
    3448:	fe20eee3          	bltu	ra,sp,3444 <test_4+0x14>
    344c:	29c01c63          	bne	zero,t3,36e4 <fail>

00003450 <test_5>:
    3450:	00500e13          	li	t3,5
    3454:	00100093          	li	ra,1
    3458:	00000113          	li	sp,0
    345c:	0020e463          	bltu	ra,sp,3464 <test_5+0x14>
    3460:	01c01463          	bne	zero,t3,3468 <test_5+0x18>
    3464:	29c01063          	bne	zero,t3,36e4 <fail>
    3468:	fe20eee3          	bltu	ra,sp,3464 <test_5+0x14>

0000346c <test_6>:
    346c:	00600e13          	li	t3,6
    3470:	fff00093          	li	ra,-1
    3474:	ffe00113          	li	sp,-2
    3478:	0020e463          	bltu	ra,sp,3480 <test_6+0x14>
    347c:	01c01463          	bne	zero,t3,3484 <test_6+0x18>
    3480:	27c01263          	bne	zero,t3,36e4 <fail>
    3484:	fe20eee3          	bltu	ra,sp,3480 <test_6+0x14>

00003488 <test_7>:
    3488:	00700e13          	li	t3,7
    348c:	fff00093          	li	ra,-1
    3490:	00000113          	li	sp,0
    3494:	0020e463          	bltu	ra,sp,349c <test_7+0x14>
    3498:	01c01463          	bne	zero,t3,34a0 <test_7+0x18>
    349c:	25c01463          	bne	zero,t3,36e4 <fail>
    34a0:	fe20eee3          	bltu	ra,sp,349c <test_7+0x14>

000034a4 <test_8>:
    34a4:	00800e13          	li	t3,8
    34a8:	800000b7          	lui	ra,0x80000
    34ac:	80000137          	lui	sp,0x80000
    34b0:	fff10113          	addi	sp,sp,-1 # 7fffffff <end+0x7fff3902>
    34b4:	0020e463          	bltu	ra,sp,34bc <test_8+0x18>
    34b8:	01c01463          	bne	zero,t3,34c0 <test_8+0x1c>
    34bc:	23c01463          	bne	zero,t3,36e4 <fail>
    34c0:	fe20eee3          	bltu	ra,sp,34bc <test_8+0x18>

000034c4 <test_9>:
    34c4:	00900e13          	li	t3,9
    34c8:	00000213          	li	tp,0
    34cc:	f00000b7          	lui	ra,0xf0000
    34d0:	f0000137          	lui	sp,0xf0000
    34d4:	fff10113          	addi	sp,sp,-1 # efffffff <end+0xefff3902>
    34d8:	2020e663          	bltu	ra,sp,36e4 <fail>
    34dc:	00120213          	addi	tp,tp,1 # 1 <reset_vec+0x1>
    34e0:	00200293          	li	t0,2
    34e4:	fe5214e3          	bne	tp,t0,34cc <test_9+0x8>

000034e8 <test_10>:
    34e8:	00a00e13          	li	t3,10
    34ec:	00000213          	li	tp,0
    34f0:	f00000b7          	lui	ra,0xf0000
    34f4:	f0000137          	lui	sp,0xf0000
    34f8:	fff10113          	addi	sp,sp,-1 # efffffff <end+0xefff3902>
    34fc:	00000013          	nop
    3500:	1e20e263          	bltu	ra,sp,36e4 <fail>
    3504:	00120213          	addi	tp,tp,1 # 1 <reset_vec+0x1>
    3508:	00200293          	li	t0,2
    350c:	fe5212e3          	bne	tp,t0,34f0 <test_10+0x8>

00003510 <test_11>:
    3510:	00b00e13          	li	t3,11
    3514:	00000213          	li	tp,0
    3518:	f00000b7          	lui	ra,0xf0000
    351c:	f0000137          	lui	sp,0xf0000
    3520:	fff10113          	addi	sp,sp,-1 # efffffff <end+0xefff3902>
    3524:	00000013          	nop
    3528:	00000013          	nop
    352c:	1a20ec63          	bltu	ra,sp,36e4 <fail>
    3530:	00120213          	addi	tp,tp,1 # 1 <reset_vec+0x1>
    3534:	00200293          	li	t0,2
    3538:	fe5210e3          	bne	tp,t0,3518 <test_11+0x8>

0000353c <test_12>:
    353c:	00c00e13          	li	t3,12
    3540:	00000213          	li	tp,0
    3544:	f00000b7          	lui	ra,0xf0000
    3548:	00000013          	nop
    354c:	f0000137          	lui	sp,0xf0000
    3550:	fff10113          	addi	sp,sp,-1 # efffffff <end+0xefff3902>
    3554:	1820e863          	bltu	ra,sp,36e4 <fail>
    3558:	00120213          	addi	tp,tp,1 # 1 <reset_vec+0x1>
    355c:	00200293          	li	t0,2
    3560:	fe5212e3          	bne	tp,t0,3544 <test_12+0x8>

00003564 <test_13>:
    3564:	00d00e13          	li	t3,13
    3568:	00000213          	li	tp,0
    356c:	f00000b7          	lui	ra,0xf0000
    3570:	00000013          	nop
    3574:	f0000137          	lui	sp,0xf0000
    3578:	fff10113          	addi	sp,sp,-1 # efffffff <end+0xefff3902>
    357c:	00000013          	nop
    3580:	1620e263          	bltu	ra,sp,36e4 <fail>
    3584:	00120213          	addi	tp,tp,1 # 1 <reset_vec+0x1>
    3588:	00200293          	li	t0,2
    358c:	fe5210e3          	bne	tp,t0,356c <test_13+0x8>

00003590 <test_14>:
    3590:	00e00e13          	li	t3,14
    3594:	00000213          	li	tp,0
    3598:	f00000b7          	lui	ra,0xf0000
    359c:	00000013          	nop
    35a0:	00000013          	nop
    35a4:	f0000137          	lui	sp,0xf0000
    35a8:	fff10113          	addi	sp,sp,-1 # efffffff <end+0xefff3902>
    35ac:	1220ec63          	bltu	ra,sp,36e4 <fail>
    35b0:	00120213          	addi	tp,tp,1 # 1 <reset_vec+0x1>
    35b4:	00200293          	li	t0,2
    35b8:	fe5210e3          	bne	tp,t0,3598 <test_14+0x8>

000035bc <test_15>:
    35bc:	00f00e13          	li	t3,15
    35c0:	00000213          	li	tp,0
    35c4:	f00000b7          	lui	ra,0xf0000
    35c8:	f0000137          	lui	sp,0xf0000
    35cc:	fff10113          	addi	sp,sp,-1 # efffffff <end+0xefff3902>
    35d0:	1020ea63          	bltu	ra,sp,36e4 <fail>
    35d4:	00120213          	addi	tp,tp,1 # 1 <reset_vec+0x1>
    35d8:	00200293          	li	t0,2
    35dc:	fe5214e3          	bne	tp,t0,35c4 <test_15+0x8>

000035e0 <test_16>:
    35e0:	01000e13          	li	t3,16
    35e4:	00000213          	li	tp,0
    35e8:	f00000b7          	lui	ra,0xf0000
    35ec:	f0000137          	lui	sp,0xf0000
    35f0:	fff10113          	addi	sp,sp,-1 # efffffff <end+0xefff3902>
    35f4:	00000013          	nop
    35f8:	0e20e663          	bltu	ra,sp,36e4 <fail>
    35fc:	00120213          	addi	tp,tp,1 # 1 <reset_vec+0x1>
    3600:	00200293          	li	t0,2
    3604:	fe5212e3          	bne	tp,t0,35e8 <test_16+0x8>

00003608 <test_17>:
    3608:	01100e13          	li	t3,17
    360c:	00000213          	li	tp,0
    3610:	f00000b7          	lui	ra,0xf0000
    3614:	f0000137          	lui	sp,0xf0000
    3618:	fff10113          	addi	sp,sp,-1 # efffffff <end+0xefff3902>
    361c:	00000013          	nop
    3620:	00000013          	nop
    3624:	0c20e063          	bltu	ra,sp,36e4 <fail>
    3628:	00120213          	addi	tp,tp,1 # 1 <reset_vec+0x1>
    362c:	00200293          	li	t0,2
    3630:	fe5210e3          	bne	tp,t0,3610 <test_17+0x8>

00003634 <test_18>:
    3634:	01200e13          	li	t3,18
    3638:	00000213          	li	tp,0
    363c:	f00000b7          	lui	ra,0xf0000
    3640:	00000013          	nop
    3644:	f0000137          	lui	sp,0xf0000
    3648:	fff10113          	addi	sp,sp,-1 # efffffff <end+0xefff3902>
    364c:	0820ec63          	bltu	ra,sp,36e4 <fail>
    3650:	00120213          	addi	tp,tp,1 # 1 <reset_vec+0x1>
    3654:	00200293          	li	t0,2
    3658:	fe5212e3          	bne	tp,t0,363c <test_18+0x8>

0000365c <test_19>:
    365c:	01300e13          	li	t3,19
    3660:	00000213          	li	tp,0
    3664:	f00000b7          	lui	ra,0xf0000
    3668:	00000013          	nop
    366c:	f0000137          	lui	sp,0xf0000
    3670:	fff10113          	addi	sp,sp,-1 # efffffff <end+0xefff3902>
    3674:	00000013          	nop
    3678:	0620e663          	bltu	ra,sp,36e4 <fail>
    367c:	00120213          	addi	tp,tp,1 # 1 <reset_vec+0x1>
    3680:	00200293          	li	t0,2
    3684:	fe5210e3          	bne	tp,t0,3664 <test_19+0x8>

00003688 <test_20>:
    3688:	01400e13          	li	t3,20
    368c:	00000213          	li	tp,0
    3690:	f00000b7          	lui	ra,0xf0000
    3694:	00000013          	nop
    3698:	00000013          	nop
    369c:	f0000137          	lui	sp,0xf0000
    36a0:	fff10113          	addi	sp,sp,-1 # efffffff <end+0xefff3902>
    36a4:	0420e063          	bltu	ra,sp,36e4 <fail>
    36a8:	00120213          	addi	tp,tp,1 # 1 <reset_vec+0x1>
    36ac:	00200293          	li	t0,2
    36b0:	fe5210e3          	bne	tp,t0,3690 <test_20+0x8>

000036b4 <test_21>:
    36b4:	00100093          	li	ra,1
    36b8:	00106a63          	bltu	zero,ra,36cc <test_21+0x18>
    36bc:	00108093          	addi	ra,ra,1 # f0000001 <end+0xefff3904>
    36c0:	00108093          	addi	ra,ra,1
    36c4:	00108093          	addi	ra,ra,1
    36c8:	00108093          	addi	ra,ra,1
    36cc:	00108093          	addi	ra,ra,1
    36d0:	00108093          	addi	ra,ra,1
    36d4:	00300e93          	li	t4,3
    36d8:	01500e13          	li	t3,21
    36dc:	01d09463          	bne	ra,t4,36e4 <fail>
    36e0:	05c01863          	bne	zero,t3,3730 <pass>

000036e4 <fail>:
    36e4:	00000513          	li	a0,0
    36e8:	10000537          	lui	a0,0x10000
    36ec:	04500593          	li	a1,69
    36f0:	05200613          	li	a2,82
    36f4:	04f00693          	li	a3,79
    36f8:	00b52023          	sw	a1,0(a0) # 10000000 <end+0xfff3903>
    36fc:	00c52023          	sw	a2,0(a0)
    3700:	00c52023          	sw	a2,0(a0)
    3704:	00d52023          	sw	a3,0(a0)
    3708:	00c52023          	sw	a2,0(a0)
    370c:	030e0593          	addi	a1,t3,48
    3710:	02000613          	li	a2,32
    3714:	03a00693          	li	a3,58
    3718:	00d52023          	sw	a3,0(a0)
    371c:	00c52023          	sw	a2,0(a0)
    3720:	00b52023          	sw	a1,0(a0)
    3724:	00a00713          	li	a4,10
    3728:	00e52023          	sw	a4,0(a0)
    372c:	a31fc06f          	j	15c <bltu_ret>

00003730 <pass>:
    3730:	00000513          	li	a0,0
    3734:	10000537          	lui	a0,0x10000
    3738:	04f00593          	li	a1,79
    373c:	04b00613          	li	a2,75
    3740:	00a00693          	li	a3,10
    3744:	00b52023          	sw	a1,0(a0) # 10000000 <end+0xfff3903>
    3748:	00c52023          	sw	a2,0(a0)
    374c:	00d52023          	sw	a3,0(a0)
    3750:	a0dfc06f          	j	15c <bltu_ret>

00003754 <bne>:
    3754:	00003537          	lui	a0,0x3
    3758:	77850513          	addi	a0,a0,1912 # 3778 <.test_name>
    375c:	00000613          	li	a2,0
    3760:	10000637          	lui	a2,0x10000

00003764 <.prname_next>:
    3764:	00050583          	lb	a1,0(a0)
    3768:	00058a63          	beqz	a1,377c <.prname_done>
    376c:	00b62023          	sw	a1,0(a2) # 10000000 <end+0xfff3903>
    3770:	00150513          	addi	a0,a0,1
    3774:	ff1ff06f          	j	3764 <.prname_next>

00003778 <.test_name>:
    3778:	00656e62          	.word	0x00656e62

0000377c <.prname_done>:
    377c:	00000613          	li	a2,0
    3780:	10000637          	lui	a2,0x10000
    3784:	02e00593          	li	a1,46
    3788:	00b62023          	sw	a1,0(a2) # 10000000 <end+0xfff3903>
    378c:	00b62023          	sw	a1,0(a2)

00003790 <test_2>:
    3790:	00200e13          	li	t3,2
    3794:	00000093          	li	ra,0
    3798:	00100113          	li	sp,1
    379c:	00209663          	bne	ra,sp,37a8 <test_2+0x18>
    37a0:	2bc01a63          	bne	zero,t3,3a54 <fail>
    37a4:	01c01663          	bne	zero,t3,37b0 <test_3>
    37a8:	fe209ee3          	bne	ra,sp,37a4 <test_2+0x14>
    37ac:	2bc01463          	bne	zero,t3,3a54 <fail>

000037b0 <test_3>:
    37b0:	00300e13          	li	t3,3
    37b4:	00100093          	li	ra,1
    37b8:	00000113          	li	sp,0
    37bc:	00209663          	bne	ra,sp,37c8 <test_3+0x18>
    37c0:	29c01a63          	bne	zero,t3,3a54 <fail>
    37c4:	01c01663          	bne	zero,t3,37d0 <test_4>
    37c8:	fe209ee3          	bne	ra,sp,37c4 <test_3+0x14>
    37cc:	29c01463          	bne	zero,t3,3a54 <fail>

000037d0 <test_4>:
    37d0:	00400e13          	li	t3,4
    37d4:	fff00093          	li	ra,-1
    37d8:	00100113          	li	sp,1
    37dc:	00209663          	bne	ra,sp,37e8 <test_4+0x18>
    37e0:	27c01a63          	bne	zero,t3,3a54 <fail>
    37e4:	01c01663          	bne	zero,t3,37f0 <test_5>
    37e8:	fe209ee3          	bne	ra,sp,37e4 <test_4+0x14>
    37ec:	27c01463          	bne	zero,t3,3a54 <fail>

000037f0 <test_5>:
    37f0:	00500e13          	li	t3,5
    37f4:	00100093          	li	ra,1
    37f8:	fff00113          	li	sp,-1
    37fc:	00209663          	bne	ra,sp,3808 <test_5+0x18>
    3800:	25c01a63          	bne	zero,t3,3a54 <fail>
    3804:	01c01663          	bne	zero,t3,3810 <test_6>
    3808:	fe209ee3          	bne	ra,sp,3804 <test_5+0x14>
    380c:	25c01463          	bne	zero,t3,3a54 <fail>

00003810 <test_6>:
    3810:	00600e13          	li	t3,6
    3814:	00000093          	li	ra,0
    3818:	00000113          	li	sp,0
    381c:	00209463          	bne	ra,sp,3824 <test_6+0x14>
    3820:	01c01463          	bne	zero,t3,3828 <test_6+0x18>
    3824:	23c01863          	bne	zero,t3,3a54 <fail>
    3828:	fe209ee3          	bne	ra,sp,3824 <test_6+0x14>

0000382c <test_7>:
    382c:	00700e13          	li	t3,7
    3830:	00100093          	li	ra,1
    3834:	00100113          	li	sp,1
    3838:	00209463          	bne	ra,sp,3840 <test_7+0x14>
    383c:	01c01463          	bne	zero,t3,3844 <test_7+0x18>
    3840:	21c01a63          	bne	zero,t3,3a54 <fail>
    3844:	fe209ee3          	bne	ra,sp,3840 <test_7+0x14>

00003848 <test_8>:
    3848:	00800e13          	li	t3,8
    384c:	fff00093          	li	ra,-1
    3850:	fff00113          	li	sp,-1
    3854:	00209463          	bne	ra,sp,385c <test_8+0x14>
    3858:	01c01463          	bne	zero,t3,3860 <test_8+0x18>
    385c:	1fc01c63          	bne	zero,t3,3a54 <fail>
    3860:	fe209ee3          	bne	ra,sp,385c <test_8+0x14>

00003864 <test_9>:
    3864:	00900e13          	li	t3,9
    3868:	00000213          	li	tp,0
    386c:	00000093          	li	ra,0
    3870:	00000113          	li	sp,0
    3874:	1e209063          	bne	ra,sp,3a54 <fail>
    3878:	00120213          	addi	tp,tp,1 # 1 <reset_vec+0x1>
    387c:	00200293          	li	t0,2
    3880:	fe5216e3          	bne	tp,t0,386c <test_9+0x8>

00003884 <test_10>:
    3884:	00a00e13          	li	t3,10
    3888:	00000213          	li	tp,0
    388c:	00000093          	li	ra,0
    3890:	00000113          	li	sp,0
    3894:	00000013          	nop
    3898:	1a209e63          	bne	ra,sp,3a54 <fail>
    389c:	00120213          	addi	tp,tp,1 # 1 <reset_vec+0x1>
    38a0:	00200293          	li	t0,2
    38a4:	fe5214e3          	bne	tp,t0,388c <test_10+0x8>

000038a8 <test_11>:
    38a8:	00b00e13          	li	t3,11
    38ac:	00000213          	li	tp,0
    38b0:	00000093          	li	ra,0
    38b4:	00000113          	li	sp,0
    38b8:	00000013          	nop
    38bc:	00000013          	nop
    38c0:	18209a63          	bne	ra,sp,3a54 <fail>
    38c4:	00120213          	addi	tp,tp,1 # 1 <reset_vec+0x1>
    38c8:	00200293          	li	t0,2
    38cc:	fe5212e3          	bne	tp,t0,38b0 <test_11+0x8>

000038d0 <test_12>:
    38d0:	00c00e13          	li	t3,12
    38d4:	00000213          	li	tp,0
    38d8:	00000093          	li	ra,0
    38dc:	00000013          	nop
    38e0:	00000113          	li	sp,0
    38e4:	16209863          	bne	ra,sp,3a54 <fail>
    38e8:	00120213          	addi	tp,tp,1 # 1 <reset_vec+0x1>
    38ec:	00200293          	li	t0,2
    38f0:	fe5214e3          	bne	tp,t0,38d8 <test_12+0x8>

000038f4 <test_13>:
    38f4:	00d00e13          	li	t3,13
    38f8:	00000213          	li	tp,0
    38fc:	00000093          	li	ra,0
    3900:	00000013          	nop
    3904:	00000113          	li	sp,0
    3908:	00000013          	nop
    390c:	14209463          	bne	ra,sp,3a54 <fail>
    3910:	00120213          	addi	tp,tp,1 # 1 <reset_vec+0x1>
    3914:	00200293          	li	t0,2
    3918:	fe5212e3          	bne	tp,t0,38fc <test_13+0x8>

0000391c <test_14>:
    391c:	00e00e13          	li	t3,14
    3920:	00000213          	li	tp,0
    3924:	00000093          	li	ra,0
    3928:	00000013          	nop
    392c:	00000013          	nop
    3930:	00000113          	li	sp,0
    3934:	12209063          	bne	ra,sp,3a54 <fail>
    3938:	00120213          	addi	tp,tp,1 # 1 <reset_vec+0x1>
    393c:	00200293          	li	t0,2
    3940:	fe5212e3          	bne	tp,t0,3924 <test_14+0x8>

00003944 <test_15>:
    3944:	00f00e13          	li	t3,15
    3948:	00000213          	li	tp,0
    394c:	00000093          	li	ra,0
    3950:	00000113          	li	sp,0
    3954:	10209063          	bne	ra,sp,3a54 <fail>
    3958:	00120213          	addi	tp,tp,1 # 1 <reset_vec+0x1>
    395c:	00200293          	li	t0,2
    3960:	fe5216e3          	bne	tp,t0,394c <test_15+0x8>

00003964 <test_16>:
    3964:	01000e13          	li	t3,16
    3968:	00000213          	li	tp,0
    396c:	00000093          	li	ra,0
    3970:	00000113          	li	sp,0
    3974:	00000013          	nop
    3978:	0c209e63          	bne	ra,sp,3a54 <fail>
    397c:	00120213          	addi	tp,tp,1 # 1 <reset_vec+0x1>
    3980:	00200293          	li	t0,2
    3984:	fe5214e3          	bne	tp,t0,396c <test_16+0x8>

00003988 <test_17>:
    3988:	01100e13          	li	t3,17
    398c:	00000213          	li	tp,0
    3990:	00000093          	li	ra,0
    3994:	00000113          	li	sp,0
    3998:	00000013          	nop
    399c:	00000013          	nop
    39a0:	0a209a63          	bne	ra,sp,3a54 <fail>
    39a4:	00120213          	addi	tp,tp,1 # 1 <reset_vec+0x1>
    39a8:	00200293          	li	t0,2
    39ac:	fe5212e3          	bne	tp,t0,3990 <test_17+0x8>

000039b0 <test_18>:
    39b0:	01200e13          	li	t3,18
    39b4:	00000213          	li	tp,0
    39b8:	00000093          	li	ra,0
    39bc:	00000013          	nop
    39c0:	00000113          	li	sp,0
    39c4:	08209863          	bne	ra,sp,3a54 <fail>
    39c8:	00120213          	addi	tp,tp,1 # 1 <reset_vec+0x1>
    39cc:	00200293          	li	t0,2
    39d0:	fe5214e3          	bne	tp,t0,39b8 <test_18+0x8>

000039d4 <test_19>:
    39d4:	01300e13          	li	t3,19
    39d8:	00000213          	li	tp,0
    39dc:	00000093          	li	ra,0
    39e0:	00000013          	nop
    39e4:	00000113          	li	sp,0
    39e8:	00000013          	nop
    39ec:	06209463          	bne	ra,sp,3a54 <fail>
    39f0:	00120213          	addi	tp,tp,1 # 1 <reset_vec+0x1>
    39f4:	00200293          	li	t0,2
    39f8:	fe5212e3          	bne	tp,t0,39dc <test_19+0x8>

000039fc <test_20>:
    39fc:	01400e13          	li	t3,20
    3a00:	00000213          	li	tp,0
    3a04:	00000093          	li	ra,0
    3a08:	00000013          	nop
    3a0c:	00000013          	nop
    3a10:	00000113          	li	sp,0
    3a14:	04209063          	bne	ra,sp,3a54 <fail>
    3a18:	00120213          	addi	tp,tp,1 # 1 <reset_vec+0x1>
    3a1c:	00200293          	li	t0,2
    3a20:	fe5212e3          	bne	tp,t0,3a04 <test_20+0x8>

00003a24 <test_21>:
    3a24:	00100093          	li	ra,1
    3a28:	00009a63          	bnez	ra,3a3c <test_21+0x18>
    3a2c:	00108093          	addi	ra,ra,1
    3a30:	00108093          	addi	ra,ra,1
    3a34:	00108093          	addi	ra,ra,1
    3a38:	00108093          	addi	ra,ra,1
    3a3c:	00108093          	addi	ra,ra,1
    3a40:	00108093          	addi	ra,ra,1
    3a44:	00300e93          	li	t4,3
    3a48:	01500e13          	li	t3,21
    3a4c:	01d09463          	bne	ra,t4,3a54 <fail>
    3a50:	05c01863          	bne	zero,t3,3aa0 <pass>

00003a54 <fail>:
    3a54:	00000513          	li	a0,0
    3a58:	10000537          	lui	a0,0x10000
    3a5c:	04500593          	li	a1,69
    3a60:	05200613          	li	a2,82
    3a64:	04f00693          	li	a3,79
    3a68:	00b52023          	sw	a1,0(a0) # 10000000 <end+0xfff3903>
    3a6c:	00c52023          	sw	a2,0(a0)
    3a70:	00c52023          	sw	a2,0(a0)
    3a74:	00d52023          	sw	a3,0(a0)
    3a78:	00c52023          	sw	a2,0(a0)
    3a7c:	030e0593          	addi	a1,t3,48
    3a80:	02000613          	li	a2,32
    3a84:	03a00693          	li	a3,58
    3a88:	00d52023          	sw	a3,0(a0)
    3a8c:	00c52023          	sw	a2,0(a0)
    3a90:	00b52023          	sw	a1,0(a0)
    3a94:	00a00713          	li	a4,10
    3a98:	00e52023          	sw	a4,0(a0)
    3a9c:	ea8fc06f          	j	144 <bne_ret>

00003aa0 <pass>:
    3aa0:	00000513          	li	a0,0
    3aa4:	10000537          	lui	a0,0x10000
    3aa8:	04f00593          	li	a1,79
    3aac:	04b00613          	li	a2,75
    3ab0:	00a00693          	li	a3,10
    3ab4:	00b52023          	sw	a1,0(a0) # 10000000 <end+0xfff3903>
    3ab8:	00c52023          	sw	a2,0(a0)
    3abc:	00d52023          	sw	a3,0(a0)
    3ac0:	e84fc06f          	j	144 <bne_ret>

00003ac4 <div>:
    3ac4:	00004537          	lui	a0,0x4
    3ac8:	ae850513          	addi	a0,a0,-1304 # 3ae8 <.test_name>
    3acc:	00000613          	li	a2,0
    3ad0:	10000637          	lui	a2,0x10000

00003ad4 <.prname_next>:
    3ad4:	00050583          	lb	a1,0(a0)
    3ad8:	00058a63          	beqz	a1,3aec <.prname_done>
    3adc:	00b62023          	sw	a1,0(a2) # 10000000 <end+0xfff3903>
    3ae0:	00150513          	addi	a0,a0,1
    3ae4:	ff1ff06f          	j	3ad4 <.prname_next>

00003ae8 <.test_name>:
    3ae8:	00766964          	.word	0x00766964

00003aec <.prname_done>:
    3aec:	00000613          	li	a2,0
    3af0:	10000637          	lui	a2,0x10000
    3af4:	02e00593          	li	a1,46
    3af8:	00b62023          	sw	a1,0(a2) # 10000000 <end+0xfff3903>
    3afc:	00b62023          	sw	a1,0(a2)

00003b00 <test_2>:
    3b00:	01400093          	li	ra,20
    3b04:	00600113          	li	sp,6
    3b08:	0220c1b3          	div	gp,ra,sp
    3b0c:	00300e93          	li	t4,3
    3b10:	00200e13          	li	t3,2
    3b14:	0dd19463          	bne	gp,t4,3bdc <fail>

00003b18 <test_3>:
    3b18:	fec00093          	li	ra,-20
    3b1c:	00600113          	li	sp,6
    3b20:	0220c1b3          	div	gp,ra,sp
    3b24:	ffd00e93          	li	t4,-3
    3b28:	00300e13          	li	t3,3
    3b2c:	0bd19863          	bne	gp,t4,3bdc <fail>

00003b30 <test_4>:
    3b30:	01400093          	li	ra,20
    3b34:	ffa00113          	li	sp,-6
    3b38:	0220c1b3          	div	gp,ra,sp
    3b3c:	ffd00e93          	li	t4,-3
    3b40:	00400e13          	li	t3,4
    3b44:	09d19c63          	bne	gp,t4,3bdc <fail>

00003b48 <test_5>:
    3b48:	fec00093          	li	ra,-20
    3b4c:	ffa00113          	li	sp,-6
    3b50:	0220c1b3          	div	gp,ra,sp
    3b54:	00300e93          	li	t4,3
    3b58:	00500e13          	li	t3,5
    3b5c:	09d19063          	bne	gp,t4,3bdc <fail>

00003b60 <test_6>:
    3b60:	800000b7          	lui	ra,0x80000
    3b64:	00100113          	li	sp,1
    3b68:	0220c1b3          	div	gp,ra,sp
    3b6c:	80000eb7          	lui	t4,0x80000
    3b70:	00600e13          	li	t3,6
    3b74:	07d19463          	bne	gp,t4,3bdc <fail>

00003b78 <test_7>:
    3b78:	800000b7          	lui	ra,0x80000
    3b7c:	fff00113          	li	sp,-1
    3b80:	0220c1b3          	div	gp,ra,sp
    3b84:	80000eb7          	lui	t4,0x80000
    3b88:	00700e13          	li	t3,7
    3b8c:	05d19863          	bne	gp,t4,3bdc <fail>

00003b90 <test_8>:
    3b90:	800000b7          	lui	ra,0x80000
    3b94:	00000113          	li	sp,0
    3b98:	0220c1b3          	div	gp,ra,sp
    3b9c:	fff00e93          	li	t4,-1
    3ba0:	00800e13          	li	t3,8
    3ba4:	03d19c63          	bne	gp,t4,3bdc <fail>

00003ba8 <test_9>:
    3ba8:	00100093          	li	ra,1
    3bac:	00000113          	li	sp,0
    3bb0:	0220c1b3          	div	gp,ra,sp
    3bb4:	fff00e93          	li	t4,-1
    3bb8:	00900e13          	li	t3,9
    3bbc:	03d19063          	bne	gp,t4,3bdc <fail>

00003bc0 <test_10>:
    3bc0:	00000093          	li	ra,0
    3bc4:	00000113          	li	sp,0
    3bc8:	0220c1b3          	div	gp,ra,sp
    3bcc:	fff00e93          	li	t4,-1
    3bd0:	00a00e13          	li	t3,10
    3bd4:	01d19463          	bne	gp,t4,3bdc <fail>
    3bd8:	05c01863          	bne	zero,t3,3c28 <pass>

00003bdc <fail>:
    3bdc:	00000513          	li	a0,0
    3be0:	10000537          	lui	a0,0x10000
    3be4:	04500593          	li	a1,69
    3be8:	05200613          	li	a2,82
    3bec:	04f00693          	li	a3,79
    3bf0:	00b52023          	sw	a1,0(a0) # 10000000 <end+0xfff3903>
    3bf4:	00c52023          	sw	a2,0(a0)
    3bf8:	00c52023          	sw	a2,0(a0)
    3bfc:	00d52023          	sw	a3,0(a0)
    3c00:	00c52023          	sw	a2,0(a0)
    3c04:	030e0593          	addi	a1,t3,48
    3c08:	02000613          	li	a2,32
    3c0c:	03a00693          	li	a3,58
    3c10:	00d52023          	sw	a3,0(a0)
    3c14:	00c52023          	sw	a2,0(a0)
    3c18:	00b52023          	sw	a1,0(a0)
    3c1c:	00a00713          	li	a4,10
    3c20:	00e52023          	sw	a4,0(a0)
    3c24:	e50fc06f          	j	274 <div_ret>

00003c28 <pass>:
    3c28:	00000513          	li	a0,0
    3c2c:	10000537          	lui	a0,0x10000
    3c30:	04f00593          	li	a1,79
    3c34:	04b00613          	li	a2,75
    3c38:	00a00693          	li	a3,10
    3c3c:	00b52023          	sw	a1,0(a0) # 10000000 <end+0xfff3903>
    3c40:	00c52023          	sw	a2,0(a0)
    3c44:	00d52023          	sw	a3,0(a0)
    3c48:	e2cfc06f          	j	274 <div_ret>

00003c4c <divu>:
    3c4c:	00004537          	lui	a0,0x4
    3c50:	c7050513          	addi	a0,a0,-912 # 3c70 <.test_name>
    3c54:	00000613          	li	a2,0
    3c58:	10000637          	lui	a2,0x10000

00003c5c <.prname_next>:
    3c5c:	00050583          	lb	a1,0(a0)
    3c60:	00058c63          	beqz	a1,3c78 <.prname_done>
    3c64:	00b62023          	sw	a1,0(a2) # 10000000 <end+0xfff3903>
    3c68:	00150513          	addi	a0,a0,1
    3c6c:	ff1ff06f          	j	3c5c <.prname_next>

00003c70 <.test_name>:
    3c70:	75766964          	.word	0x75766964
    3c74:	00000000          	.word	0x00000000

00003c78 <.prname_done>:
    3c78:	00000613          	li	a2,0
    3c7c:	10000637          	lui	a2,0x10000
    3c80:	02e00593          	li	a1,46
    3c84:	00b62023          	sw	a1,0(a2) # 10000000 <end+0xfff3903>
    3c88:	00b62023          	sw	a1,0(a2)

00003c8c <test_2>:
    3c8c:	01400093          	li	ra,20
    3c90:	00600113          	li	sp,6
    3c94:	0220d1b3          	divu	gp,ra,sp
    3c98:	00300e93          	li	t4,3
    3c9c:	00200e13          	li	t3,2
    3ca0:	0dd19663          	bne	gp,t4,3d6c <fail>

00003ca4 <test_3>:
    3ca4:	fec00093          	li	ra,-20
    3ca8:	00600113          	li	sp,6
    3cac:	0220d1b3          	divu	gp,ra,sp
    3cb0:	2aaabeb7          	lui	t4,0x2aaab
    3cb4:	aa7e8e93          	addi	t4,t4,-1369 # 2aaaaaa7 <end+0x2aa9e3aa>
    3cb8:	00300e13          	li	t3,3
    3cbc:	0bd19863          	bne	gp,t4,3d6c <fail>

00003cc0 <test_4>:
    3cc0:	01400093          	li	ra,20
    3cc4:	ffa00113          	li	sp,-6
    3cc8:	0220d1b3          	divu	gp,ra,sp
    3ccc:	00000e93          	li	t4,0
    3cd0:	00400e13          	li	t3,4
    3cd4:	09d19c63          	bne	gp,t4,3d6c <fail>

00003cd8 <test_5>:
    3cd8:	fec00093          	li	ra,-20
    3cdc:	ffa00113          	li	sp,-6
    3ce0:	0220d1b3          	divu	gp,ra,sp
    3ce4:	00000e93          	li	t4,0
    3ce8:	00500e13          	li	t3,5
    3cec:	09d19063          	bne	gp,t4,3d6c <fail>

00003cf0 <test_6>:
    3cf0:	800000b7          	lui	ra,0x80000
    3cf4:	00100113          	li	sp,1
    3cf8:	0220d1b3          	divu	gp,ra,sp
    3cfc:	80000eb7          	lui	t4,0x80000
    3d00:	00600e13          	li	t3,6
    3d04:	07d19463          	bne	gp,t4,3d6c <fail>

00003d08 <test_7>:
    3d08:	800000b7          	lui	ra,0x80000
    3d0c:	fff00113          	li	sp,-1
    3d10:	0220d1b3          	divu	gp,ra,sp
    3d14:	00000e93          	li	t4,0
    3d18:	00700e13          	li	t3,7
    3d1c:	05d19863          	bne	gp,t4,3d6c <fail>

00003d20 <test_8>:
    3d20:	800000b7          	lui	ra,0x80000
    3d24:	00000113          	li	sp,0
    3d28:	0220d1b3          	divu	gp,ra,sp
    3d2c:	fff00e93          	li	t4,-1
    3d30:	00800e13          	li	t3,8
    3d34:	03d19c63          	bne	gp,t4,3d6c <fail>

00003d38 <test_9>:
    3d38:	00100093          	li	ra,1
    3d3c:	00000113          	li	sp,0
    3d40:	0220d1b3          	divu	gp,ra,sp
    3d44:	fff00e93          	li	t4,-1
    3d48:	00900e13          	li	t3,9
    3d4c:	03d19063          	bne	gp,t4,3d6c <fail>

00003d50 <test_10>:
    3d50:	00000093          	li	ra,0
    3d54:	00000113          	li	sp,0
    3d58:	0220d1b3          	divu	gp,ra,sp
    3d5c:	fff00e93          	li	t4,-1
    3d60:	00a00e13          	li	t3,10
    3d64:	01d19463          	bne	gp,t4,3d6c <fail>
    3d68:	05c01863          	bne	zero,t3,3db8 <pass>

00003d6c <fail>:
    3d6c:	00000513          	li	a0,0
    3d70:	10000537          	lui	a0,0x10000
    3d74:	04500593          	li	a1,69
    3d78:	05200613          	li	a2,82
    3d7c:	04f00693          	li	a3,79
    3d80:	00b52023          	sw	a1,0(a0) # 10000000 <end+0xfff3903>
    3d84:	00c52023          	sw	a2,0(a0)
    3d88:	00c52023          	sw	a2,0(a0)
    3d8c:	00d52023          	sw	a3,0(a0)
    3d90:	00c52023          	sw	a2,0(a0)
    3d94:	030e0593          	addi	a1,t3,48
    3d98:	02000613          	li	a2,32
    3d9c:	03a00693          	li	a3,58
    3da0:	00d52023          	sw	a3,0(a0)
    3da4:	00c52023          	sw	a2,0(a0)
    3da8:	00b52023          	sw	a1,0(a0)
    3dac:	00a00713          	li	a4,10
    3db0:	00e52023          	sw	a4,0(a0)
    3db4:	cc8fc06f          	j	27c <divu_ret>

00003db8 <pass>:
    3db8:	00000513          	li	a0,0
    3dbc:	10000537          	lui	a0,0x10000
    3dc0:	04f00593          	li	a1,79
    3dc4:	04b00613          	li	a2,75
    3dc8:	00a00693          	li	a3,10
    3dcc:	00b52023          	sw	a1,0(a0) # 10000000 <end+0xfff3903>
    3dd0:	00c52023          	sw	a2,0(a0)
    3dd4:	00d52023          	sw	a3,0(a0)
    3dd8:	ca4fc06f          	j	27c <divu_ret>

00003ddc <j>:
    3ddc:	00004537          	lui	a0,0x4
    3de0:	e0050513          	addi	a0,a0,-512 # 3e00 <.test_name>
    3de4:	00000613          	li	a2,0
    3de8:	10000637          	lui	a2,0x10000

00003dec <.prname_next>:
    3dec:	00050583          	lb	a1,0(a0)
    3df0:	00058a63          	beqz	a1,3e04 <.prname_done>
    3df4:	00b62023          	sw	a1,0(a2) # 10000000 <end+0xfff3903>
    3df8:	00150513          	addi	a0,a0,1
    3dfc:	ff1ff06f          	j	3dec <.prname_next>

00003e00 <.test_name>:
    3e00:	0000006a          	.word	0x0000006a

00003e04 <.prname_done>:
    3e04:	00000613          	li	a2,0
    3e08:	10000637          	lui	a2,0x10000
    3e0c:	02e00593          	li	a1,46
    3e10:	00b62023          	sw	a1,0(a2) # 10000000 <end+0xfff3903>
    3e14:	00b62023          	sw	a1,0(a2)
    3e18:	00200e13          	li	t3,2
    3e1c:	0080006f          	j	3e24 <test_2>
    3e20:	0340006f          	j	3e54 <fail>

00003e24 <test_2>:
    3e24:	00100093          	li	ra,1
    3e28:	0140006f          	j	3e3c <test_2+0x18>
    3e2c:	00108093          	addi	ra,ra,1 # 80000001 <end+0x7fff3904>
    3e30:	00108093          	addi	ra,ra,1
    3e34:	00108093          	addi	ra,ra,1
    3e38:	00108093          	addi	ra,ra,1
    3e3c:	00108093          	addi	ra,ra,1
    3e40:	00108093          	addi	ra,ra,1
    3e44:	00300e93          	li	t4,3
    3e48:	00300e13          	li	t3,3
    3e4c:	01d09463          	bne	ra,t4,3e54 <fail>
    3e50:	05c01863          	bne	zero,t3,3ea0 <pass>

00003e54 <fail>:
    3e54:	00000513          	li	a0,0
    3e58:	10000537          	lui	a0,0x10000
    3e5c:	04500593          	li	a1,69
    3e60:	05200613          	li	a2,82
    3e64:	04f00693          	li	a3,79
    3e68:	00b52023          	sw	a1,0(a0) # 10000000 <end+0xfff3903>
    3e6c:	00c52023          	sw	a2,0(a0)
    3e70:	00c52023          	sw	a2,0(a0)
    3e74:	00d52023          	sw	a3,0(a0)
    3e78:	00c52023          	sw	a2,0(a0)
    3e7c:	030e0593          	addi	a1,t3,48
    3e80:	02000613          	li	a2,32
    3e84:	03a00693          	li	a3,58
    3e88:	00d52023          	sw	a3,0(a0)
    3e8c:	00c52023          	sw	a2,0(a0)
    3e90:	00b52023          	sw	a1,0(a0)
    3e94:	00a00713          	li	a4,10
    3e98:	00e52023          	sw	a4,0(a0)
    3e9c:	a88fc06f          	j	124 <j_ret>

00003ea0 <pass>:
    3ea0:	00000513          	li	a0,0
    3ea4:	10000537          	lui	a0,0x10000
    3ea8:	04f00593          	li	a1,79
    3eac:	04b00613          	li	a2,75
    3eb0:	00a00693          	li	a3,10
    3eb4:	00b52023          	sw	a1,0(a0) # 10000000 <end+0xfff3903>
    3eb8:	00c52023          	sw	a2,0(a0)
    3ebc:	00d52023          	sw	a3,0(a0)
    3ec0:	a64fc06f          	j	124 <j_ret>

00003ec4 <jal>:
    3ec4:	00004537          	lui	a0,0x4
    3ec8:	ee850513          	addi	a0,a0,-280 # 3ee8 <.test_name>
    3ecc:	00000613          	li	a2,0
    3ed0:	10000637          	lui	a2,0x10000

00003ed4 <.prname_next>:
    3ed4:	00050583          	lb	a1,0(a0)
    3ed8:	00058a63          	beqz	a1,3eec <.prname_done>
    3edc:	00b62023          	sw	a1,0(a2) # 10000000 <end+0xfff3903>
    3ee0:	00150513          	addi	a0,a0,1
    3ee4:	ff1ff06f          	j	3ed4 <.prname_next>

00003ee8 <.test_name>:
    3ee8:	006c616a          	.word	0x006c616a

00003eec <.prname_done>:
    3eec:	00000613          	li	a2,0
    3ef0:	10000637          	lui	a2,0x10000
    3ef4:	02e00593          	li	a1,46
    3ef8:	00b62023          	sw	a1,0(a2) # 10000000 <end+0xfff3903>
    3efc:	00b62023          	sw	a1,0(a2)

00003f00 <test_2>:
    3f00:	00200e13          	li	t3,2
    3f04:	00000093          	li	ra,0

00003f08 <linkaddr_2>:
    3f08:	010000ef          	jal	3f18 <target_2>
    3f0c:	00000013          	nop
    3f10:	00000013          	nop
    3f14:	0440006f          	j	3f58 <fail>

00003f18 <target_2>:
    3f18:	00000117          	auipc	sp,0x0
    3f1c:	ff010113          	addi	sp,sp,-16 # 3f08 <linkaddr_2>
    3f20:	00410113          	addi	sp,sp,4
    3f24:	02111a63          	bne	sp,ra,3f58 <fail>

00003f28 <test_3>:
    3f28:	00100113          	li	sp,1
    3f2c:	014000ef          	jal	3f40 <test_3+0x18>
    3f30:	00110113          	addi	sp,sp,1
    3f34:	00110113          	addi	sp,sp,1
    3f38:	00110113          	addi	sp,sp,1
    3f3c:	00110113          	addi	sp,sp,1
    3f40:	00110113          	addi	sp,sp,1
    3f44:	00110113          	addi	sp,sp,1
    3f48:	00300e93          	li	t4,3
    3f4c:	00300e13          	li	t3,3
    3f50:	01d11463          	bne	sp,t4,3f58 <fail>
    3f54:	05c01863          	bne	zero,t3,3fa4 <pass>

00003f58 <fail>:
    3f58:	00000513          	li	a0,0
    3f5c:	10000537          	lui	a0,0x10000
    3f60:	04500593          	li	a1,69
    3f64:	05200613          	li	a2,82
    3f68:	04f00693          	li	a3,79
    3f6c:	00b52023          	sw	a1,0(a0) # 10000000 <end+0xfff3903>
    3f70:	00c52023          	sw	a2,0(a0)
    3f74:	00c52023          	sw	a2,0(a0)
    3f78:	00d52023          	sw	a3,0(a0)
    3f7c:	00c52023          	sw	a2,0(a0)
    3f80:	030e0593          	addi	a1,t3,48
    3f84:	02000613          	li	a2,32
    3f88:	03a00693          	li	a3,58
    3f8c:	00d52023          	sw	a3,0(a0)
    3f90:	00c52023          	sw	a2,0(a0)
    3f94:	00b52023          	sw	a1,0(a0)
    3f98:	00a00713          	li	a4,10
    3f9c:	00e52023          	sw	a4,0(a0)
    3fa0:	98cfc06f          	j	12c <jal_ret>

00003fa4 <pass>:
    3fa4:	00000513          	li	a0,0
    3fa8:	10000537          	lui	a0,0x10000
    3fac:	04f00593          	li	a1,79
    3fb0:	04b00613          	li	a2,75
    3fb4:	00a00693          	li	a3,10
    3fb8:	00b52023          	sw	a1,0(a0) # 10000000 <end+0xfff3903>
    3fbc:	00c52023          	sw	a2,0(a0)
    3fc0:	00d52023          	sw	a3,0(a0)
    3fc4:	968fc06f          	j	12c <jal_ret>

00003fc8 <jalr>:
    3fc8:	00004537          	lui	a0,0x4
    3fcc:	fec50513          	addi	a0,a0,-20 # 3fec <.test_name>
    3fd0:	00000613          	li	a2,0
    3fd4:	10000637          	lui	a2,0x10000

00003fd8 <.prname_next>:
    3fd8:	00050583          	lb	a1,0(a0)
    3fdc:	00058c63          	beqz	a1,3ff4 <.prname_done>
    3fe0:	00b62023          	sw	a1,0(a2) # 10000000 <end+0xfff3903>
    3fe4:	00150513          	addi	a0,a0,1
    3fe8:	ff1ff06f          	j	3fd8 <.prname_next>

00003fec <.test_name>:
    3fec:	726c616a          	.word	0x726c616a
    3ff0:	00000000          	.word	0x00000000

00003ff4 <.prname_done>:
    3ff4:	00000613          	li	a2,0
    3ff8:	10000637          	lui	a2,0x10000
    3ffc:	02e00593          	li	a1,46
    4000:	00b62023          	sw	a1,0(a2) # 10000000 <end+0xfff3903>
    4004:	00b62023          	sw	a1,0(a2)

00004008 <test_2>:
    4008:	00200e13          	li	t3,2
    400c:	00000f93          	li	t6,0
    4010:	00000117          	auipc	sp,0x0
    4014:	01810113          	addi	sp,sp,24 # 4028 <target_2>

00004018 <linkaddr_2>:
    4018:	000109e7          	jalr	s3,sp
    401c:	00000013          	nop
    4020:	00000013          	nop
    4024:	0e40006f          	j	4108 <fail>

00004028 <target_2>:
    4028:	00000097          	auipc	ra,0x0
    402c:	ff008093          	addi	ra,ra,-16 # 4018 <linkaddr_2>
    4030:	00408093          	addi	ra,ra,4
    4034:	0d309a63          	bne	ra,s3,4108 <fail>

00004038 <test_3>:
    4038:	00300e13          	li	t3,3
    403c:	00000f93          	li	t6,0
    4040:	00000197          	auipc	gp,0x0
    4044:	01418193          	addi	gp,gp,20 # 4054 <target_3>

00004048 <linkaddr_3>:
    4048:	00018067          	jr	gp
    404c:	00000013          	nop
    4050:	0b80006f          	j	4108 <fail>

00004054 <target_3>:
    4054:	0a0f9a63          	bnez	t6,4108 <fail>

00004058 <test_4>:
    4058:	00400e13          	li	t3,4
    405c:	00000213          	li	tp,0
    4060:	00000317          	auipc	t1,0x0
    4064:	01030313          	addi	t1,t1,16 # 4070 <test_4+0x18>
    4068:	000309e7          	jalr	s3,t1
    406c:	09c01e63          	bne	zero,t3,4108 <fail>
    4070:	00120213          	addi	tp,tp,1 # 1 <reset_vec+0x1>
    4074:	00200293          	li	t0,2
    4078:	fe5214e3          	bne	tp,t0,4060 <test_4+0x8>

0000407c <test_5>:
    407c:	00500e13          	li	t3,5
    4080:	00000213          	li	tp,0
    4084:	00000317          	auipc	t1,0x0
    4088:	01430313          	addi	t1,t1,20 # 4098 <test_5+0x1c>
    408c:	00000013          	nop
    4090:	000309e7          	jalr	s3,t1
    4094:	07c01a63          	bne	zero,t3,4108 <fail>
    4098:	00120213          	addi	tp,tp,1 # 1 <reset_vec+0x1>
    409c:	00200293          	li	t0,2
    40a0:	fe5212e3          	bne	tp,t0,4084 <test_5+0x8>

000040a4 <test_6>:
    40a4:	00600e13          	li	t3,6
    40a8:	00000213          	li	tp,0
    40ac:	00000317          	auipc	t1,0x0
    40b0:	01830313          	addi	t1,t1,24 # 40c4 <test_6+0x20>
    40b4:	00000013          	nop
    40b8:	00000013          	nop
    40bc:	000309e7          	jalr	s3,t1
    40c0:	05c01463          	bne	zero,t3,4108 <fail>
    40c4:	00120213          	addi	tp,tp,1 # 1 <reset_vec+0x1>
    40c8:	00200293          	li	t0,2
    40cc:	fe5210e3          	bne	tp,t0,40ac <test_6+0x8>

000040d0 <test_7>:
    40d0:	00100093          	li	ra,1
    40d4:	00000117          	auipc	sp,0x0
    40d8:	01c10113          	addi	sp,sp,28 # 40f0 <test_7+0x20>
    40dc:	ffc109e7          	jalr	s3,-4(sp)
    40e0:	00108093          	addi	ra,ra,1
    40e4:	00108093          	addi	ra,ra,1
    40e8:	00108093          	addi	ra,ra,1
    40ec:	00108093          	addi	ra,ra,1
    40f0:	00108093          	addi	ra,ra,1
    40f4:	00108093          	addi	ra,ra,1
    40f8:	00400e93          	li	t4,4
    40fc:	00700e13          	li	t3,7
    4100:	01d09463          	bne	ra,t4,4108 <fail>
    4104:	05c01863          	bne	zero,t3,4154 <pass>

00004108 <fail>:
    4108:	00000513          	li	a0,0
    410c:	10000537          	lui	a0,0x10000
    4110:	04500593          	li	a1,69
    4114:	05200613          	li	a2,82
    4118:	04f00693          	li	a3,79
    411c:	00b52023          	sw	a1,0(a0) # 10000000 <end+0xfff3903>
    4120:	00c52023          	sw	a2,0(a0)
    4124:	00c52023          	sw	a2,0(a0)
    4128:	00d52023          	sw	a3,0(a0)
    412c:	00c52023          	sw	a2,0(a0)
    4130:	030e0593          	addi	a1,t3,48
    4134:	02000613          	li	a2,32
    4138:	03a00693          	li	a3,58
    413c:	00d52023          	sw	a3,0(a0)
    4140:	00c52023          	sw	a2,0(a0)
    4144:	00b52023          	sw	a1,0(a0)
    4148:	00a00713          	li	a4,10
    414c:	00e52023          	sw	a4,0(a0)
    4150:	fe5fb06f          	j	134 <jalr_ret>

00004154 <pass>:
    4154:	00000513          	li	a0,0
    4158:	10000537          	lui	a0,0x10000
    415c:	04f00593          	li	a1,79
    4160:	04b00613          	li	a2,75
    4164:	00a00693          	li	a3,10
    4168:	00b52023          	sw	a1,0(a0) # 10000000 <end+0xfff3903>
    416c:	00c52023          	sw	a2,0(a0)
    4170:	00d52023          	sw	a3,0(a0)
    4174:	fc1fb06f          	j	134 <jalr_ret>

00004178 <lb>:
    4178:	00004537          	lui	a0,0x4
    417c:	19c50513          	addi	a0,a0,412 # 419c <.test_name>
    4180:	00000613          	li	a2,0
    4184:	10000637          	lui	a2,0x10000

00004188 <.prname_next>:
    4188:	00050583          	lb	a1,0(a0)
    418c:	00058a63          	beqz	a1,41a0 <.prname_done>
    4190:	00b62023          	sw	a1,0(a2) # 10000000 <end+0xfff3903>
    4194:	00150513          	addi	a0,a0,1
    4198:	ff1ff06f          	j	4188 <.prname_next>

0000419c <.test_name>:
    419c:	0000626c          	.word	0x0000626c

000041a0 <.prname_done>:
    41a0:	00000613          	li	a2,0
    41a4:	10000637          	lui	a2,0x10000
    41a8:	02e00593          	li	a1,46
    41ac:	00b62023          	sw	a1,0(a2) # 10000000 <end+0xfff3903>
    41b0:	00b62023          	sw	a1,0(a2)

000041b4 <test_2>:
    41b4:	00008097          	auipc	ra,0x8
    41b8:	eb808093          	addi	ra,ra,-328 # c06c <tdat>
    41bc:	00008183          	lb	gp,0(ra)
    41c0:	fff00e93          	li	t4,-1
    41c4:	00200e13          	li	t3,2
    41c8:	23d19c63          	bne	gp,t4,4400 <fail>

000041cc <test_3>:
    41cc:	00008097          	auipc	ra,0x8
    41d0:	ea008093          	addi	ra,ra,-352 # c06c <tdat>
    41d4:	00108183          	lb	gp,1(ra)
    41d8:	00000e93          	li	t4,0
    41dc:	00300e13          	li	t3,3
    41e0:	23d19063          	bne	gp,t4,4400 <fail>

000041e4 <test_4>:
    41e4:	00008097          	auipc	ra,0x8
    41e8:	e8808093          	addi	ra,ra,-376 # c06c <tdat>
    41ec:	00208183          	lb	gp,2(ra)
    41f0:	ff000e93          	li	t4,-16
    41f4:	00400e13          	li	t3,4
    41f8:	21d19463          	bne	gp,t4,4400 <fail>

000041fc <test_5>:
    41fc:	00008097          	auipc	ra,0x8
    4200:	e7008093          	addi	ra,ra,-400 # c06c <tdat>
    4204:	00308183          	lb	gp,3(ra)
    4208:	00f00e93          	li	t4,15
    420c:	00500e13          	li	t3,5
    4210:	1fd19863          	bne	gp,t4,4400 <fail>

00004214 <test_6>:
    4214:	00008097          	auipc	ra,0x8
    4218:	e5b08093          	addi	ra,ra,-421 # c06f <tdat4>
    421c:	ffd08183          	lb	gp,-3(ra)
    4220:	fff00e93          	li	t4,-1
    4224:	00600e13          	li	t3,6
    4228:	1dd19c63          	bne	gp,t4,4400 <fail>

0000422c <test_7>:
    422c:	00008097          	auipc	ra,0x8
    4230:	e4308093          	addi	ra,ra,-445 # c06f <tdat4>
    4234:	ffe08183          	lb	gp,-2(ra)
    4238:	00000e93          	li	t4,0
    423c:	00700e13          	li	t3,7
    4240:	1dd19063          	bne	gp,t4,4400 <fail>

00004244 <test_8>:
    4244:	00008097          	auipc	ra,0x8
    4248:	e2b08093          	addi	ra,ra,-469 # c06f <tdat4>
    424c:	fff08183          	lb	gp,-1(ra)
    4250:	ff000e93          	li	t4,-16
    4254:	00800e13          	li	t3,8
    4258:	1bd19463          	bne	gp,t4,4400 <fail>

0000425c <test_9>:
    425c:	00008097          	auipc	ra,0x8
    4260:	e1308093          	addi	ra,ra,-493 # c06f <tdat4>
    4264:	00008183          	lb	gp,0(ra)
    4268:	00f00e93          	li	t4,15
    426c:	00900e13          	li	t3,9
    4270:	19d19863          	bne	gp,t4,4400 <fail>

00004274 <test_10>:
    4274:	00008097          	auipc	ra,0x8
    4278:	df808093          	addi	ra,ra,-520 # c06c <tdat>
    427c:	fe008093          	addi	ra,ra,-32
    4280:	02008183          	lb	gp,32(ra)
    4284:	fff00e93          	li	t4,-1
    4288:	00a00e13          	li	t3,10
    428c:	17d19a63          	bne	gp,t4,4400 <fail>

00004290 <test_11>:
    4290:	00008097          	auipc	ra,0x8
    4294:	ddc08093          	addi	ra,ra,-548 # c06c <tdat>
    4298:	ffa08093          	addi	ra,ra,-6
    429c:	00708183          	lb	gp,7(ra)
    42a0:	00000e93          	li	t4,0
    42a4:	00b00e13          	li	t3,11
    42a8:	15d19c63          	bne	gp,t4,4400 <fail>

000042ac <test_12>:
    42ac:	00c00e13          	li	t3,12
    42b0:	00000213          	li	tp,0
    42b4:	00008097          	auipc	ra,0x8
    42b8:	db908093          	addi	ra,ra,-583 # c06d <tdat2>
    42bc:	00108183          	lb	gp,1(ra)
    42c0:	00018313          	mv	t1,gp
    42c4:	ff000e93          	li	t4,-16
    42c8:	13d31c63          	bne	t1,t4,4400 <fail>
    42cc:	00120213          	addi	tp,tp,1 # 1 <reset_vec+0x1>
    42d0:	00200293          	li	t0,2
    42d4:	fe5210e3          	bne	tp,t0,42b4 <test_12+0x8>

000042d8 <test_13>:
    42d8:	00d00e13          	li	t3,13
    42dc:	00000213          	li	tp,0
    42e0:	00008097          	auipc	ra,0x8
    42e4:	d8e08093          	addi	ra,ra,-626 # c06e <tdat3>
    42e8:	00108183          	lb	gp,1(ra)
    42ec:	00000013          	nop
    42f0:	00018313          	mv	t1,gp
    42f4:	00f00e93          	li	t4,15
    42f8:	11d31463          	bne	t1,t4,4400 <fail>
    42fc:	00120213          	addi	tp,tp,1 # 1 <reset_vec+0x1>
    4300:	00200293          	li	t0,2
    4304:	fc521ee3          	bne	tp,t0,42e0 <test_13+0x8>

00004308 <test_14>:
    4308:	00e00e13          	li	t3,14
    430c:	00000213          	li	tp,0
    4310:	00008097          	auipc	ra,0x8
    4314:	d5c08093          	addi	ra,ra,-676 # c06c <tdat>
    4318:	00108183          	lb	gp,1(ra)
    431c:	00000013          	nop
    4320:	00000013          	nop
    4324:	00018313          	mv	t1,gp
    4328:	00000e93          	li	t4,0
    432c:	0dd31a63          	bne	t1,t4,4400 <fail>
    4330:	00120213          	addi	tp,tp,1 # 1 <reset_vec+0x1>
    4334:	00200293          	li	t0,2
    4338:	fc521ce3          	bne	tp,t0,4310 <test_14+0x8>

0000433c <test_15>:
    433c:	00f00e13          	li	t3,15
    4340:	00000213          	li	tp,0
    4344:	00008097          	auipc	ra,0x8
    4348:	d2908093          	addi	ra,ra,-727 # c06d <tdat2>
    434c:	00108183          	lb	gp,1(ra)
    4350:	ff000e93          	li	t4,-16
    4354:	0bd19663          	bne	gp,t4,4400 <fail>
    4358:	00120213          	addi	tp,tp,1 # 1 <reset_vec+0x1>
    435c:	00200293          	li	t0,2
    4360:	fe5212e3          	bne	tp,t0,4344 <test_15+0x8>

00004364 <test_16>:
    4364:	01000e13          	li	t3,16
    4368:	00000213          	li	tp,0
    436c:	00008097          	auipc	ra,0x8
    4370:	d0208093          	addi	ra,ra,-766 # c06e <tdat3>
    4374:	00000013          	nop
    4378:	00108183          	lb	gp,1(ra)
    437c:	00f00e93          	li	t4,15
    4380:	09d19063          	bne	gp,t4,4400 <fail>
    4384:	00120213          	addi	tp,tp,1 # 1 <reset_vec+0x1>
    4388:	00200293          	li	t0,2
    438c:	fe5210e3          	bne	tp,t0,436c <test_16+0x8>

00004390 <test_17>:
    4390:	01100e13          	li	t3,17
    4394:	00000213          	li	tp,0
    4398:	00008097          	auipc	ra,0x8
    439c:	cd408093          	addi	ra,ra,-812 # c06c <tdat>
    43a0:	00000013          	nop
    43a4:	00000013          	nop
    43a8:	00108183          	lb	gp,1(ra)
    43ac:	00000e93          	li	t4,0
    43b0:	05d19863          	bne	gp,t4,4400 <fail>
    43b4:	00120213          	addi	tp,tp,1 # 1 <reset_vec+0x1>
    43b8:	00200293          	li	t0,2
    43bc:	fc521ee3          	bne	tp,t0,4398 <test_17+0x8>

000043c0 <test_18>:
    43c0:	00008197          	auipc	gp,0x8
    43c4:	cac18193          	addi	gp,gp,-852 # c06c <tdat>
    43c8:	00018103          	lb	sp,0(gp)
    43cc:	00200113          	li	sp,2
    43d0:	00200e93          	li	t4,2
    43d4:	01200e13          	li	t3,18
    43d8:	03d11463          	bne	sp,t4,4400 <fail>

000043dc <test_19>:
    43dc:	00008197          	auipc	gp,0x8
    43e0:	c9018193          	addi	gp,gp,-880 # c06c <tdat>
    43e4:	00018103          	lb	sp,0(gp)
    43e8:	00000013          	nop
    43ec:	00200113          	li	sp,2
    43f0:	00200e93          	li	t4,2
    43f4:	01300e13          	li	t3,19
    43f8:	01d11463          	bne	sp,t4,4400 <fail>
    43fc:	05c01863          	bne	zero,t3,444c <pass>

00004400 <fail>:
    4400:	00000513          	li	a0,0
    4404:	10000537          	lui	a0,0x10000
    4408:	04500593          	li	a1,69
    440c:	05200613          	li	a2,82
    4410:	04f00693          	li	a3,79
    4414:	00b52023          	sw	a1,0(a0) # 10000000 <end+0xfff3903>
    4418:	00c52023          	sw	a2,0(a0)
    441c:	00c52023          	sw	a2,0(a0)
    4420:	00d52023          	sw	a3,0(a0)
    4424:	00c52023          	sw	a2,0(a0)
    4428:	030e0593          	addi	a1,t3,48
    442c:	02000613          	li	a2,32
    4430:	03a00693          	li	a3,58
    4434:	00d52023          	sw	a3,0(a0)
    4438:	00c52023          	sw	a2,0(a0)
    443c:	00b52023          	sw	a1,0(a0)
    4440:	00a00713          	li	a4,10
    4444:	00e52023          	sw	a4,0(a0)
    4448:	d25fb06f          	j	16c <lb_ret>

0000444c <pass>:
    444c:	00000513          	li	a0,0
    4450:	10000537          	lui	a0,0x10000
    4454:	04f00593          	li	a1,79
    4458:	04b00613          	li	a2,75
    445c:	00a00693          	li	a3,10
    4460:	00b52023          	sw	a1,0(a0) # 10000000 <end+0xfff3903>
    4464:	00c52023          	sw	a2,0(a0)
    4468:	00d52023          	sw	a3,0(a0)
    446c:	d01fb06f          	j	16c <lb_ret>

00004470 <lbu>:
    4470:	00004537          	lui	a0,0x4
    4474:	49450513          	addi	a0,a0,1172 # 4494 <.test_name>
    4478:	00000613          	li	a2,0
    447c:	10000637          	lui	a2,0x10000

00004480 <.prname_next>:
    4480:	00050583          	lb	a1,0(a0)
    4484:	00058a63          	beqz	a1,4498 <.prname_done>
    4488:	00b62023          	sw	a1,0(a2) # 10000000 <end+0xfff3903>
    448c:	00150513          	addi	a0,a0,1
    4490:	ff1ff06f          	j	4480 <.prname_next>

00004494 <.test_name>:
    4494:	0075626c          	.word	0x0075626c

00004498 <.prname_done>:
    4498:	00000613          	li	a2,0
    449c:	10000637          	lui	a2,0x10000
    44a0:	02e00593          	li	a1,46
    44a4:	00b62023          	sw	a1,0(a2) # 10000000 <end+0xfff3903>
    44a8:	00b62023          	sw	a1,0(a2)

000044ac <test_2>:
    44ac:	00008097          	auipc	ra,0x8
    44b0:	bf808093          	addi	ra,ra,-1032 # c0a4 <tdat>
    44b4:	0000c183          	lbu	gp,0(ra)
    44b8:	0ff00e93          	li	t4,255
    44bc:	00200e13          	li	t3,2
    44c0:	23d19c63          	bne	gp,t4,46f8 <fail>

000044c4 <test_3>:
    44c4:	00008097          	auipc	ra,0x8
    44c8:	be008093          	addi	ra,ra,-1056 # c0a4 <tdat>
    44cc:	0010c183          	lbu	gp,1(ra)
    44d0:	00000e93          	li	t4,0
    44d4:	00300e13          	li	t3,3
    44d8:	23d19063          	bne	gp,t4,46f8 <fail>

000044dc <test_4>:
    44dc:	00008097          	auipc	ra,0x8
    44e0:	bc808093          	addi	ra,ra,-1080 # c0a4 <tdat>
    44e4:	0020c183          	lbu	gp,2(ra)
    44e8:	0f000e93          	li	t4,240
    44ec:	00400e13          	li	t3,4
    44f0:	21d19463          	bne	gp,t4,46f8 <fail>

000044f4 <test_5>:
    44f4:	00008097          	auipc	ra,0x8
    44f8:	bb008093          	addi	ra,ra,-1104 # c0a4 <tdat>
    44fc:	0030c183          	lbu	gp,3(ra)
    4500:	00f00e93          	li	t4,15
    4504:	00500e13          	li	t3,5
    4508:	1fd19863          	bne	gp,t4,46f8 <fail>

0000450c <test_6>:
    450c:	00008097          	auipc	ra,0x8
    4510:	b9b08093          	addi	ra,ra,-1125 # c0a7 <tdat4>
    4514:	ffd0c183          	lbu	gp,-3(ra)
    4518:	0ff00e93          	li	t4,255
    451c:	00600e13          	li	t3,6
    4520:	1dd19c63          	bne	gp,t4,46f8 <fail>

00004524 <test_7>:
    4524:	00008097          	auipc	ra,0x8
    4528:	b8308093          	addi	ra,ra,-1149 # c0a7 <tdat4>
    452c:	ffe0c183          	lbu	gp,-2(ra)
    4530:	00000e93          	li	t4,0
    4534:	00700e13          	li	t3,7
    4538:	1dd19063          	bne	gp,t4,46f8 <fail>

0000453c <test_8>:
    453c:	00008097          	auipc	ra,0x8
    4540:	b6b08093          	addi	ra,ra,-1173 # c0a7 <tdat4>
    4544:	fff0c183          	lbu	gp,-1(ra)
    4548:	0f000e93          	li	t4,240
    454c:	00800e13          	li	t3,8
    4550:	1bd19463          	bne	gp,t4,46f8 <fail>

00004554 <test_9>:
    4554:	00008097          	auipc	ra,0x8
    4558:	b5308093          	addi	ra,ra,-1197 # c0a7 <tdat4>
    455c:	0000c183          	lbu	gp,0(ra)
    4560:	00f00e93          	li	t4,15
    4564:	00900e13          	li	t3,9
    4568:	19d19863          	bne	gp,t4,46f8 <fail>

0000456c <test_10>:
    456c:	00008097          	auipc	ra,0x8
    4570:	b3808093          	addi	ra,ra,-1224 # c0a4 <tdat>
    4574:	fe008093          	addi	ra,ra,-32
    4578:	0200c183          	lbu	gp,32(ra)
    457c:	0ff00e93          	li	t4,255
    4580:	00a00e13          	li	t3,10
    4584:	17d19a63          	bne	gp,t4,46f8 <fail>

00004588 <test_11>:
    4588:	00008097          	auipc	ra,0x8
    458c:	b1c08093          	addi	ra,ra,-1252 # c0a4 <tdat>
    4590:	ffa08093          	addi	ra,ra,-6
    4594:	0070c183          	lbu	gp,7(ra)
    4598:	00000e93          	li	t4,0
    459c:	00b00e13          	li	t3,11
    45a0:	15d19c63          	bne	gp,t4,46f8 <fail>

000045a4 <test_12>:
    45a4:	00c00e13          	li	t3,12
    45a8:	00000213          	li	tp,0
    45ac:	00008097          	auipc	ra,0x8
    45b0:	af908093          	addi	ra,ra,-1287 # c0a5 <tdat2>
    45b4:	0010c183          	lbu	gp,1(ra)
    45b8:	00018313          	mv	t1,gp
    45bc:	0f000e93          	li	t4,240
    45c0:	13d31c63          	bne	t1,t4,46f8 <fail>
    45c4:	00120213          	addi	tp,tp,1 # 1 <reset_vec+0x1>
    45c8:	00200293          	li	t0,2
    45cc:	fe5210e3          	bne	tp,t0,45ac <test_12+0x8>

000045d0 <test_13>:
    45d0:	00d00e13          	li	t3,13
    45d4:	00000213          	li	tp,0
    45d8:	00008097          	auipc	ra,0x8
    45dc:	ace08093          	addi	ra,ra,-1330 # c0a6 <tdat3>
    45e0:	0010c183          	lbu	gp,1(ra)
    45e4:	00000013          	nop
    45e8:	00018313          	mv	t1,gp
    45ec:	00f00e93          	li	t4,15
    45f0:	11d31463          	bne	t1,t4,46f8 <fail>
    45f4:	00120213          	addi	tp,tp,1 # 1 <reset_vec+0x1>
    45f8:	00200293          	li	t0,2
    45fc:	fc521ee3          	bne	tp,t0,45d8 <test_13+0x8>

00004600 <test_14>:
    4600:	00e00e13          	li	t3,14
    4604:	00000213          	li	tp,0
    4608:	00008097          	auipc	ra,0x8
    460c:	a9c08093          	addi	ra,ra,-1380 # c0a4 <tdat>
    4610:	0010c183          	lbu	gp,1(ra)
    4614:	00000013          	nop
    4618:	00000013          	nop
    461c:	00018313          	mv	t1,gp
    4620:	00000e93          	li	t4,0
    4624:	0dd31a63          	bne	t1,t4,46f8 <fail>
    4628:	00120213          	addi	tp,tp,1 # 1 <reset_vec+0x1>
    462c:	00200293          	li	t0,2
    4630:	fc521ce3          	bne	tp,t0,4608 <test_14+0x8>

00004634 <test_15>:
    4634:	00f00e13          	li	t3,15
    4638:	00000213          	li	tp,0
    463c:	00008097          	auipc	ra,0x8
    4640:	a6908093          	addi	ra,ra,-1431 # c0a5 <tdat2>
    4644:	0010c183          	lbu	gp,1(ra)
    4648:	0f000e93          	li	t4,240
    464c:	0bd19663          	bne	gp,t4,46f8 <fail>
    4650:	00120213          	addi	tp,tp,1 # 1 <reset_vec+0x1>
    4654:	00200293          	li	t0,2
    4658:	fe5212e3          	bne	tp,t0,463c <test_15+0x8>

0000465c <test_16>:
    465c:	01000e13          	li	t3,16
    4660:	00000213          	li	tp,0
    4664:	00008097          	auipc	ra,0x8
    4668:	a4208093          	addi	ra,ra,-1470 # c0a6 <tdat3>
    466c:	00000013          	nop
    4670:	0010c183          	lbu	gp,1(ra)
    4674:	00f00e93          	li	t4,15
    4678:	09d19063          	bne	gp,t4,46f8 <fail>
    467c:	00120213          	addi	tp,tp,1 # 1 <reset_vec+0x1>
    4680:	00200293          	li	t0,2
    4684:	fe5210e3          	bne	tp,t0,4664 <test_16+0x8>

00004688 <test_17>:
    4688:	01100e13          	li	t3,17
    468c:	00000213          	li	tp,0
    4690:	00008097          	auipc	ra,0x8
    4694:	a1408093          	addi	ra,ra,-1516 # c0a4 <tdat>
    4698:	00000013          	nop
    469c:	00000013          	nop
    46a0:	0010c183          	lbu	gp,1(ra)
    46a4:	00000e93          	li	t4,0
    46a8:	05d19863          	bne	gp,t4,46f8 <fail>
    46ac:	00120213          	addi	tp,tp,1 # 1 <reset_vec+0x1>
    46b0:	00200293          	li	t0,2
    46b4:	fc521ee3          	bne	tp,t0,4690 <test_17+0x8>

000046b8 <test_18>:
    46b8:	00008197          	auipc	gp,0x8
    46bc:	9ec18193          	addi	gp,gp,-1556 # c0a4 <tdat>
    46c0:	0001c103          	lbu	sp,0(gp)
    46c4:	00200113          	li	sp,2
    46c8:	00200e93          	li	t4,2
    46cc:	01200e13          	li	t3,18
    46d0:	03d11463          	bne	sp,t4,46f8 <fail>

000046d4 <test_19>:
    46d4:	00008197          	auipc	gp,0x8
    46d8:	9d018193          	addi	gp,gp,-1584 # c0a4 <tdat>
    46dc:	0001c103          	lbu	sp,0(gp)
    46e0:	00000013          	nop
    46e4:	00200113          	li	sp,2
    46e8:	00200e93          	li	t4,2
    46ec:	01300e13          	li	t3,19
    46f0:	01d11463          	bne	sp,t4,46f8 <fail>
    46f4:	05c01863          	bne	zero,t3,4744 <pass>

000046f8 <fail>:
    46f8:	00000513          	li	a0,0
    46fc:	10000537          	lui	a0,0x10000
    4700:	04500593          	li	a1,69
    4704:	05200613          	li	a2,82
    4708:	04f00693          	li	a3,79
    470c:	00b52023          	sw	a1,0(a0) # 10000000 <end+0xfff3903>
    4710:	00c52023          	sw	a2,0(a0)
    4714:	00c52023          	sw	a2,0(a0)
    4718:	00d52023          	sw	a3,0(a0)
    471c:	00c52023          	sw	a2,0(a0)
    4720:	030e0593          	addi	a1,t3,48
    4724:	02000613          	li	a2,32
    4728:	03a00693          	li	a3,58
    472c:	00d52023          	sw	a3,0(a0)
    4730:	00c52023          	sw	a2,0(a0)
    4734:	00b52023          	sw	a1,0(a0)
    4738:	00a00713          	li	a4,10
    473c:	00e52023          	sw	a4,0(a0)
    4740:	a45fb06f          	j	184 <lbu_ret>

00004744 <pass>:
    4744:	00000513          	li	a0,0
    4748:	10000537          	lui	a0,0x10000
    474c:	04f00593          	li	a1,79
    4750:	04b00613          	li	a2,75
    4754:	00a00693          	li	a3,10
    4758:	00b52023          	sw	a1,0(a0) # 10000000 <end+0xfff3903>
    475c:	00c52023          	sw	a2,0(a0)
    4760:	00d52023          	sw	a3,0(a0)
    4764:	a21fb06f          	j	184 <lbu_ret>

00004768 <lh>:
    4768:	00004537          	lui	a0,0x4
    476c:	78c50513          	addi	a0,a0,1932 # 478c <.test_name>
    4770:	00000613          	li	a2,0
    4774:	10000637          	lui	a2,0x10000

00004778 <.prname_next>:
    4778:	00050583          	lb	a1,0(a0)
    477c:	00058a63          	beqz	a1,4790 <.prname_done>
    4780:	00b62023          	sw	a1,0(a2) # 10000000 <end+0xfff3903>
    4784:	00150513          	addi	a0,a0,1
    4788:	ff1ff06f          	j	4778 <.prname_next>

0000478c <.test_name>:
    478c:	0000686c          	.word	0x0000686c

00004790 <.prname_done>:
    4790:	00000613          	li	a2,0
    4794:	10000637          	lui	a2,0x10000
    4798:	02e00593          	li	a1,46
    479c:	00b62023          	sw	a1,0(a2) # 10000000 <end+0xfff3903>
    47a0:	00b62023          	sw	a1,0(a2)

000047a4 <test_2>:
    47a4:	00008097          	auipc	ra,0x8
    47a8:	93808093          	addi	ra,ra,-1736 # c0dc <tdat>
    47ac:	00009183          	lh	gp,0(ra)
    47b0:	0ff00e93          	li	t4,255
    47b4:	00200e13          	li	t3,2
    47b8:	25d19c63          	bne	gp,t4,4a10 <fail>

000047bc <test_3>:
    47bc:	00008097          	auipc	ra,0x8
    47c0:	92008093          	addi	ra,ra,-1760 # c0dc <tdat>
    47c4:	00209183          	lh	gp,2(ra)
    47c8:	f0000e93          	li	t4,-256
    47cc:	00300e13          	li	t3,3
    47d0:	25d19063          	bne	gp,t4,4a10 <fail>

000047d4 <test_4>:
    47d4:	00008097          	auipc	ra,0x8
    47d8:	90808093          	addi	ra,ra,-1784 # c0dc <tdat>
    47dc:	00409183          	lh	gp,4(ra)
    47e0:	00001eb7          	lui	t4,0x1
    47e4:	ff0e8e93          	addi	t4,t4,-16 # ff0 <printf+0x4fc>
    47e8:	00400e13          	li	t3,4
    47ec:	23d19263          	bne	gp,t4,4a10 <fail>

000047f0 <test_5>:
    47f0:	00008097          	auipc	ra,0x8
    47f4:	8ec08093          	addi	ra,ra,-1812 # c0dc <tdat>
    47f8:	00609183          	lh	gp,6(ra)
    47fc:	fffffeb7          	lui	t4,0xfffff
    4800:	00fe8e93          	addi	t4,t4,15 # fffff00f <end+0xffff2912>
    4804:	00500e13          	li	t3,5
    4808:	21d19463          	bne	gp,t4,4a10 <fail>

0000480c <test_6>:
    480c:	00008097          	auipc	ra,0x8
    4810:	8d608093          	addi	ra,ra,-1834 # c0e2 <tdat4>
    4814:	ffa09183          	lh	gp,-6(ra)
    4818:	0ff00e93          	li	t4,255
    481c:	00600e13          	li	t3,6
    4820:	1fd19863          	bne	gp,t4,4a10 <fail>

00004824 <test_7>:
    4824:	00008097          	auipc	ra,0x8
    4828:	8be08093          	addi	ra,ra,-1858 # c0e2 <tdat4>
    482c:	ffc09183          	lh	gp,-4(ra)
    4830:	f0000e93          	li	t4,-256
    4834:	00700e13          	li	t3,7
    4838:	1dd19c63          	bne	gp,t4,4a10 <fail>

0000483c <test_8>:
    483c:	00008097          	auipc	ra,0x8
    4840:	8a608093          	addi	ra,ra,-1882 # c0e2 <tdat4>
    4844:	ffe09183          	lh	gp,-2(ra)
    4848:	00001eb7          	lui	t4,0x1
    484c:	ff0e8e93          	addi	t4,t4,-16 # ff0 <printf+0x4fc>
    4850:	00800e13          	li	t3,8
    4854:	1bd19e63          	bne	gp,t4,4a10 <fail>

00004858 <test_9>:
    4858:	00008097          	auipc	ra,0x8
    485c:	88a08093          	addi	ra,ra,-1910 # c0e2 <tdat4>
    4860:	00009183          	lh	gp,0(ra)
    4864:	fffffeb7          	lui	t4,0xfffff
    4868:	00fe8e93          	addi	t4,t4,15 # fffff00f <end+0xffff2912>
    486c:	00900e13          	li	t3,9
    4870:	1bd19063          	bne	gp,t4,4a10 <fail>

00004874 <test_10>:
    4874:	00008097          	auipc	ra,0x8
    4878:	86808093          	addi	ra,ra,-1944 # c0dc <tdat>
    487c:	fe008093          	addi	ra,ra,-32
    4880:	02009183          	lh	gp,32(ra)
    4884:	0ff00e93          	li	t4,255
    4888:	00a00e13          	li	t3,10
    488c:	19d19263          	bne	gp,t4,4a10 <fail>

00004890 <test_11>:
    4890:	00008097          	auipc	ra,0x8
    4894:	84c08093          	addi	ra,ra,-1972 # c0dc <tdat>
    4898:	ffb08093          	addi	ra,ra,-5
    489c:	00709183          	lh	gp,7(ra)
    48a0:	f0000e93          	li	t4,-256
    48a4:	00b00e13          	li	t3,11
    48a8:	17d19463          	bne	gp,t4,4a10 <fail>

000048ac <test_12>:
    48ac:	00c00e13          	li	t3,12
    48b0:	00000213          	li	tp,0
    48b4:	00008097          	auipc	ra,0x8
    48b8:	82a08093          	addi	ra,ra,-2006 # c0de <tdat2>
    48bc:	00209183          	lh	gp,2(ra)
    48c0:	00018313          	mv	t1,gp
    48c4:	00001eb7          	lui	t4,0x1
    48c8:	ff0e8e93          	addi	t4,t4,-16 # ff0 <printf+0x4fc>
    48cc:	15d31263          	bne	t1,t4,4a10 <fail>
    48d0:	00120213          	addi	tp,tp,1 # 1 <reset_vec+0x1>
    48d4:	00200293          	li	t0,2
    48d8:	fc521ee3          	bne	tp,t0,48b4 <test_12+0x8>

000048dc <test_13>:
    48dc:	00d00e13          	li	t3,13
    48e0:	00000213          	li	tp,0
    48e4:	00007097          	auipc	ra,0x7
    48e8:	7fc08093          	addi	ra,ra,2044 # c0e0 <tdat3>
    48ec:	00209183          	lh	gp,2(ra)
    48f0:	00000013          	nop
    48f4:	00018313          	mv	t1,gp
    48f8:	fffffeb7          	lui	t4,0xfffff
    48fc:	00fe8e93          	addi	t4,t4,15 # fffff00f <end+0xffff2912>
    4900:	11d31863          	bne	t1,t4,4a10 <fail>
    4904:	00120213          	addi	tp,tp,1 # 1 <reset_vec+0x1>
    4908:	00200293          	li	t0,2
    490c:	fc521ce3          	bne	tp,t0,48e4 <test_13+0x8>

00004910 <test_14>:
    4910:	00e00e13          	li	t3,14
    4914:	00000213          	li	tp,0
    4918:	00007097          	auipc	ra,0x7
    491c:	7c408093          	addi	ra,ra,1988 # c0dc <tdat>
    4920:	00209183          	lh	gp,2(ra)
    4924:	00000013          	nop
    4928:	00000013          	nop
    492c:	00018313          	mv	t1,gp
    4930:	f0000e93          	li	t4,-256
    4934:	0dd31e63          	bne	t1,t4,4a10 <fail>
    4938:	00120213          	addi	tp,tp,1 # 1 <reset_vec+0x1>
    493c:	00200293          	li	t0,2
    4940:	fc521ce3          	bne	tp,t0,4918 <test_14+0x8>

00004944 <test_15>:
    4944:	00f00e13          	li	t3,15
    4948:	00000213          	li	tp,0
    494c:	00007097          	auipc	ra,0x7
    4950:	79208093          	addi	ra,ra,1938 # c0de <tdat2>
    4954:	00209183          	lh	gp,2(ra)
    4958:	00001eb7          	lui	t4,0x1
    495c:	ff0e8e93          	addi	t4,t4,-16 # ff0 <printf+0x4fc>
    4960:	0bd19863          	bne	gp,t4,4a10 <fail>
    4964:	00120213          	addi	tp,tp,1 # 1 <reset_vec+0x1>
    4968:	00200293          	li	t0,2
    496c:	fe5210e3          	bne	tp,t0,494c <test_15+0x8>

00004970 <test_16>:
    4970:	01000e13          	li	t3,16
    4974:	00000213          	li	tp,0
    4978:	00007097          	auipc	ra,0x7
    497c:	76808093          	addi	ra,ra,1896 # c0e0 <tdat3>
    4980:	00000013          	nop
    4984:	00209183          	lh	gp,2(ra)
    4988:	fffffeb7          	lui	t4,0xfffff
    498c:	00fe8e93          	addi	t4,t4,15 # fffff00f <end+0xffff2912>
    4990:	09d19063          	bne	gp,t4,4a10 <fail>
    4994:	00120213          	addi	tp,tp,1 # 1 <reset_vec+0x1>
    4998:	00200293          	li	t0,2
    499c:	fc521ee3          	bne	tp,t0,4978 <test_16+0x8>

000049a0 <test_17>:
    49a0:	01100e13          	li	t3,17
    49a4:	00000213          	li	tp,0
    49a8:	00007097          	auipc	ra,0x7
    49ac:	73408093          	addi	ra,ra,1844 # c0dc <tdat>
    49b0:	00000013          	nop
    49b4:	00000013          	nop
    49b8:	00209183          	lh	gp,2(ra)
    49bc:	f0000e93          	li	t4,-256
    49c0:	05d19863          	bne	gp,t4,4a10 <fail>
    49c4:	00120213          	addi	tp,tp,1 # 1 <reset_vec+0x1>
    49c8:	00200293          	li	t0,2
    49cc:	fc521ee3          	bne	tp,t0,49a8 <test_17+0x8>

000049d0 <test_18>:
    49d0:	00007197          	auipc	gp,0x7
    49d4:	70c18193          	addi	gp,gp,1804 # c0dc <tdat>
    49d8:	00019103          	lh	sp,0(gp)
    49dc:	00200113          	li	sp,2
    49e0:	00200e93          	li	t4,2
    49e4:	01200e13          	li	t3,18
    49e8:	03d11463          	bne	sp,t4,4a10 <fail>

000049ec <test_19>:
    49ec:	00007197          	auipc	gp,0x7
    49f0:	6f018193          	addi	gp,gp,1776 # c0dc <tdat>
    49f4:	00019103          	lh	sp,0(gp)
    49f8:	00000013          	nop
    49fc:	00200113          	li	sp,2
    4a00:	00200e93          	li	t4,2
    4a04:	01300e13          	li	t3,19
    4a08:	01d11463          	bne	sp,t4,4a10 <fail>
    4a0c:	05c01863          	bne	zero,t3,4a5c <pass>

00004a10 <fail>:
    4a10:	00000513          	li	a0,0
    4a14:	10000537          	lui	a0,0x10000
    4a18:	04500593          	li	a1,69
    4a1c:	05200613          	li	a2,82
    4a20:	04f00693          	li	a3,79
    4a24:	00b52023          	sw	a1,0(a0) # 10000000 <end+0xfff3903>
    4a28:	00c52023          	sw	a2,0(a0)
    4a2c:	00c52023          	sw	a2,0(a0)
    4a30:	00d52023          	sw	a3,0(a0)
    4a34:	00c52023          	sw	a2,0(a0)
    4a38:	030e0593          	addi	a1,t3,48
    4a3c:	02000613          	li	a2,32
    4a40:	03a00693          	li	a3,58
    4a44:	00d52023          	sw	a3,0(a0)
    4a48:	00c52023          	sw	a2,0(a0)
    4a4c:	00b52023          	sw	a1,0(a0)
    4a50:	00a00713          	li	a4,10
    4a54:	00e52023          	sw	a4,0(a0)
    4a58:	f1cfb06f          	j	174 <lh_ret>

00004a5c <pass>:
    4a5c:	00000513          	li	a0,0
    4a60:	10000537          	lui	a0,0x10000
    4a64:	04f00593          	li	a1,79
    4a68:	04b00613          	li	a2,75
    4a6c:	00a00693          	li	a3,10
    4a70:	00b52023          	sw	a1,0(a0) # 10000000 <end+0xfff3903>
    4a74:	00c52023          	sw	a2,0(a0)
    4a78:	00d52023          	sw	a3,0(a0)
    4a7c:	ef8fb06f          	j	174 <lh_ret>

00004a80 <lhu>:
    4a80:	00005537          	lui	a0,0x5
    4a84:	aa450513          	addi	a0,a0,-1372 # 4aa4 <.test_name>
    4a88:	00000613          	li	a2,0
    4a8c:	10000637          	lui	a2,0x10000

00004a90 <.prname_next>:
    4a90:	00050583          	lb	a1,0(a0)
    4a94:	00058a63          	beqz	a1,4aa8 <.prname_done>
    4a98:	00b62023          	sw	a1,0(a2) # 10000000 <end+0xfff3903>
    4a9c:	00150513          	addi	a0,a0,1
    4aa0:	ff1ff06f          	j	4a90 <.prname_next>

00004aa4 <.test_name>:
    4aa4:	0075686c          	.word	0x0075686c

00004aa8 <.prname_done>:
    4aa8:	00000613          	li	a2,0
    4aac:	10000637          	lui	a2,0x10000
    4ab0:	02e00593          	li	a1,46
    4ab4:	00b62023          	sw	a1,0(a2) # 10000000 <end+0xfff3903>
    4ab8:	00b62023          	sw	a1,0(a2)

00004abc <test_2>:
    4abc:	00007097          	auipc	ra,0x7
    4ac0:	65c08093          	addi	ra,ra,1628 # c118 <tdat>
    4ac4:	0000d183          	lhu	gp,0(ra)
    4ac8:	0ff00e93          	li	t4,255
    4acc:	00200e13          	li	t3,2
    4ad0:	27d19663          	bne	gp,t4,4d3c <fail>

00004ad4 <test_3>:
    4ad4:	00007097          	auipc	ra,0x7
    4ad8:	64408093          	addi	ra,ra,1604 # c118 <tdat>
    4adc:	0020d183          	lhu	gp,2(ra)
    4ae0:	00010eb7          	lui	t4,0x10
    4ae4:	f00e8e93          	addi	t4,t4,-256 # ff00 <end+0x3803>
    4ae8:	00300e13          	li	t3,3
    4aec:	25d19863          	bne	gp,t4,4d3c <fail>

00004af0 <test_4>:
    4af0:	00007097          	auipc	ra,0x7
    4af4:	62808093          	addi	ra,ra,1576 # c118 <tdat>
    4af8:	0040d183          	lhu	gp,4(ra)
    4afc:	00001eb7          	lui	t4,0x1
    4b00:	ff0e8e93          	addi	t4,t4,-16 # ff0 <printf+0x4fc>
    4b04:	00400e13          	li	t3,4
    4b08:	23d19a63          	bne	gp,t4,4d3c <fail>

00004b0c <test_5>:
    4b0c:	00007097          	auipc	ra,0x7
    4b10:	60c08093          	addi	ra,ra,1548 # c118 <tdat>
    4b14:	0060d183          	lhu	gp,6(ra)
    4b18:	0000feb7          	lui	t4,0xf
    4b1c:	00fe8e93          	addi	t4,t4,15 # f00f <end+0x2912>
    4b20:	00500e13          	li	t3,5
    4b24:	21d19c63          	bne	gp,t4,4d3c <fail>

00004b28 <test_6>:
    4b28:	00007097          	auipc	ra,0x7
    4b2c:	5f608093          	addi	ra,ra,1526 # c11e <tdat4>
    4b30:	ffa0d183          	lhu	gp,-6(ra)
    4b34:	0ff00e93          	li	t4,255
    4b38:	00600e13          	li	t3,6
    4b3c:	21d19063          	bne	gp,t4,4d3c <fail>

00004b40 <test_7>:
    4b40:	00007097          	auipc	ra,0x7
    4b44:	5de08093          	addi	ra,ra,1502 # c11e <tdat4>
    4b48:	ffc0d183          	lhu	gp,-4(ra)
    4b4c:	00010eb7          	lui	t4,0x10
    4b50:	f00e8e93          	addi	t4,t4,-256 # ff00 <end+0x3803>
    4b54:	00700e13          	li	t3,7
    4b58:	1fd19263          	bne	gp,t4,4d3c <fail>

00004b5c <test_8>:
    4b5c:	00007097          	auipc	ra,0x7
    4b60:	5c208093          	addi	ra,ra,1474 # c11e <tdat4>
    4b64:	ffe0d183          	lhu	gp,-2(ra)
    4b68:	00001eb7          	lui	t4,0x1
    4b6c:	ff0e8e93          	addi	t4,t4,-16 # ff0 <printf+0x4fc>
    4b70:	00800e13          	li	t3,8
    4b74:	1dd19463          	bne	gp,t4,4d3c <fail>

00004b78 <test_9>:
    4b78:	00007097          	auipc	ra,0x7
    4b7c:	5a608093          	addi	ra,ra,1446 # c11e <tdat4>
    4b80:	0000d183          	lhu	gp,0(ra)
    4b84:	0000feb7          	lui	t4,0xf
    4b88:	00fe8e93          	addi	t4,t4,15 # f00f <end+0x2912>
    4b8c:	00900e13          	li	t3,9
    4b90:	1bd19663          	bne	gp,t4,4d3c <fail>

00004b94 <test_10>:
    4b94:	00007097          	auipc	ra,0x7
    4b98:	58408093          	addi	ra,ra,1412 # c118 <tdat>
    4b9c:	fe008093          	addi	ra,ra,-32
    4ba0:	0200d183          	lhu	gp,32(ra)
    4ba4:	0ff00e93          	li	t4,255
    4ba8:	00a00e13          	li	t3,10
    4bac:	19d19863          	bne	gp,t4,4d3c <fail>

00004bb0 <test_11>:
    4bb0:	00007097          	auipc	ra,0x7
    4bb4:	56808093          	addi	ra,ra,1384 # c118 <tdat>
    4bb8:	ffb08093          	addi	ra,ra,-5
    4bbc:	0070d183          	lhu	gp,7(ra)
    4bc0:	00010eb7          	lui	t4,0x10
    4bc4:	f00e8e93          	addi	t4,t4,-256 # ff00 <end+0x3803>
    4bc8:	00b00e13          	li	t3,11
    4bcc:	17d19863          	bne	gp,t4,4d3c <fail>

00004bd0 <test_12>:
    4bd0:	00c00e13          	li	t3,12
    4bd4:	00000213          	li	tp,0
    4bd8:	00007097          	auipc	ra,0x7
    4bdc:	54208093          	addi	ra,ra,1346 # c11a <tdat2>
    4be0:	0020d183          	lhu	gp,2(ra)
    4be4:	00018313          	mv	t1,gp
    4be8:	00001eb7          	lui	t4,0x1
    4bec:	ff0e8e93          	addi	t4,t4,-16 # ff0 <printf+0x4fc>
    4bf0:	15d31663          	bne	t1,t4,4d3c <fail>
    4bf4:	00120213          	addi	tp,tp,1 # 1 <reset_vec+0x1>
    4bf8:	00200293          	li	t0,2
    4bfc:	fc521ee3          	bne	tp,t0,4bd8 <test_12+0x8>

00004c00 <test_13>:
    4c00:	00d00e13          	li	t3,13
    4c04:	00000213          	li	tp,0
    4c08:	00007097          	auipc	ra,0x7
    4c0c:	51408093          	addi	ra,ra,1300 # c11c <tdat3>
    4c10:	0020d183          	lhu	gp,2(ra)
    4c14:	00000013          	nop
    4c18:	00018313          	mv	t1,gp
    4c1c:	0000feb7          	lui	t4,0xf
    4c20:	00fe8e93          	addi	t4,t4,15 # f00f <end+0x2912>
    4c24:	11d31c63          	bne	t1,t4,4d3c <fail>
    4c28:	00120213          	addi	tp,tp,1 # 1 <reset_vec+0x1>
    4c2c:	00200293          	li	t0,2
    4c30:	fc521ce3          	bne	tp,t0,4c08 <test_13+0x8>

00004c34 <test_14>:
    4c34:	00e00e13          	li	t3,14
    4c38:	00000213          	li	tp,0
    4c3c:	00007097          	auipc	ra,0x7
    4c40:	4dc08093          	addi	ra,ra,1244 # c118 <tdat>
    4c44:	0020d183          	lhu	gp,2(ra)
    4c48:	00000013          	nop
    4c4c:	00000013          	nop
    4c50:	00018313          	mv	t1,gp
    4c54:	00010eb7          	lui	t4,0x10
    4c58:	f00e8e93          	addi	t4,t4,-256 # ff00 <end+0x3803>
    4c5c:	0fd31063          	bne	t1,t4,4d3c <fail>
    4c60:	00120213          	addi	tp,tp,1 # 1 <reset_vec+0x1>
    4c64:	00200293          	li	t0,2
    4c68:	fc521ae3          	bne	tp,t0,4c3c <test_14+0x8>

00004c6c <test_15>:
    4c6c:	00f00e13          	li	t3,15
    4c70:	00000213          	li	tp,0
    4c74:	00007097          	auipc	ra,0x7
    4c78:	4a608093          	addi	ra,ra,1190 # c11a <tdat2>
    4c7c:	0020d183          	lhu	gp,2(ra)
    4c80:	00001eb7          	lui	t4,0x1
    4c84:	ff0e8e93          	addi	t4,t4,-16 # ff0 <printf+0x4fc>
    4c88:	0bd19a63          	bne	gp,t4,4d3c <fail>
    4c8c:	00120213          	addi	tp,tp,1 # 1 <reset_vec+0x1>
    4c90:	00200293          	li	t0,2
    4c94:	fe5210e3          	bne	tp,t0,4c74 <test_15+0x8>

00004c98 <test_16>:
    4c98:	01000e13          	li	t3,16
    4c9c:	00000213          	li	tp,0
    4ca0:	00007097          	auipc	ra,0x7
    4ca4:	47c08093          	addi	ra,ra,1148 # c11c <tdat3>
    4ca8:	00000013          	nop
    4cac:	0020d183          	lhu	gp,2(ra)
    4cb0:	0000feb7          	lui	t4,0xf
    4cb4:	00fe8e93          	addi	t4,t4,15 # f00f <end+0x2912>
    4cb8:	09d19263          	bne	gp,t4,4d3c <fail>
    4cbc:	00120213          	addi	tp,tp,1 # 1 <reset_vec+0x1>
    4cc0:	00200293          	li	t0,2
    4cc4:	fc521ee3          	bne	tp,t0,4ca0 <test_16+0x8>

00004cc8 <test_17>:
    4cc8:	01100e13          	li	t3,17
    4ccc:	00000213          	li	tp,0
    4cd0:	00007097          	auipc	ra,0x7
    4cd4:	44808093          	addi	ra,ra,1096 # c118 <tdat>
    4cd8:	00000013          	nop
    4cdc:	00000013          	nop
    4ce0:	0020d183          	lhu	gp,2(ra)
    4ce4:	00010eb7          	lui	t4,0x10
    4ce8:	f00e8e93          	addi	t4,t4,-256 # ff00 <end+0x3803>
    4cec:	05d19863          	bne	gp,t4,4d3c <fail>
    4cf0:	00120213          	addi	tp,tp,1 # 1 <reset_vec+0x1>
    4cf4:	00200293          	li	t0,2
    4cf8:	fc521ce3          	bne	tp,t0,4cd0 <test_17+0x8>

00004cfc <test_18>:
    4cfc:	00007197          	auipc	gp,0x7
    4d00:	41c18193          	addi	gp,gp,1052 # c118 <tdat>
    4d04:	0001d103          	lhu	sp,0(gp)
    4d08:	00200113          	li	sp,2
    4d0c:	00200e93          	li	t4,2
    4d10:	01200e13          	li	t3,18
    4d14:	03d11463          	bne	sp,t4,4d3c <fail>

00004d18 <test_19>:
    4d18:	00007197          	auipc	gp,0x7
    4d1c:	40018193          	addi	gp,gp,1024 # c118 <tdat>
    4d20:	0001d103          	lhu	sp,0(gp)
    4d24:	00000013          	nop
    4d28:	00200113          	li	sp,2
    4d2c:	00200e93          	li	t4,2
    4d30:	01300e13          	li	t3,19
    4d34:	01d11463          	bne	sp,t4,4d3c <fail>
    4d38:	05c01863          	bne	zero,t3,4d88 <pass>

00004d3c <fail>:
    4d3c:	00000513          	li	a0,0
    4d40:	10000537          	lui	a0,0x10000
    4d44:	04500593          	li	a1,69
    4d48:	05200613          	li	a2,82
    4d4c:	04f00693          	li	a3,79
    4d50:	00b52023          	sw	a1,0(a0) # 10000000 <end+0xfff3903>
    4d54:	00c52023          	sw	a2,0(a0)
    4d58:	00c52023          	sw	a2,0(a0)
    4d5c:	00d52023          	sw	a3,0(a0)
    4d60:	00c52023          	sw	a2,0(a0)
    4d64:	030e0593          	addi	a1,t3,48
    4d68:	02000613          	li	a2,32
    4d6c:	03a00693          	li	a3,58
    4d70:	00d52023          	sw	a3,0(a0)
    4d74:	00c52023          	sw	a2,0(a0)
    4d78:	00b52023          	sw	a1,0(a0)
    4d7c:	00a00713          	li	a4,10
    4d80:	00e52023          	sw	a4,0(a0)
    4d84:	c08fb06f          	j	18c <lhu_ret>

00004d88 <pass>:
    4d88:	00000513          	li	a0,0
    4d8c:	10000537          	lui	a0,0x10000
    4d90:	04f00593          	li	a1,79
    4d94:	04b00613          	li	a2,75
    4d98:	00a00693          	li	a3,10
    4d9c:	00b52023          	sw	a1,0(a0) # 10000000 <end+0xfff3903>
    4da0:	00c52023          	sw	a2,0(a0)
    4da4:	00d52023          	sw	a3,0(a0)
    4da8:	be4fb06f          	j	18c <lhu_ret>

00004dac <lui>:
    4dac:	00005537          	lui	a0,0x5
    4db0:	dd050513          	addi	a0,a0,-560 # 4dd0 <.test_name>
    4db4:	00000613          	li	a2,0
    4db8:	10000637          	lui	a2,0x10000

00004dbc <.prname_next>:
    4dbc:	00050583          	lb	a1,0(a0)
    4dc0:	00058a63          	beqz	a1,4dd4 <.prname_done>
    4dc4:	00b62023          	sw	a1,0(a2) # 10000000 <end+0xfff3903>
    4dc8:	00150513          	addi	a0,a0,1
    4dcc:	ff1ff06f          	j	4dbc <.prname_next>

00004dd0 <.test_name>:
    4dd0:	0069756c          	.word	0x0069756c

00004dd4 <.prname_done>:
    4dd4:	00000613          	li	a2,0
    4dd8:	10000637          	lui	a2,0x10000
    4ddc:	02e00593          	li	a1,46
    4de0:	00b62023          	sw	a1,0(a2) # 10000000 <end+0xfff3903>
    4de4:	00b62023          	sw	a1,0(a2)

00004de8 <test_2>:
    4de8:	000000b7          	lui	ra,0x0
    4dec:	00000e93          	li	t4,0
    4df0:	00200e13          	li	t3,2
    4df4:	05d09a63          	bne	ra,t4,4e48 <fail>

00004df8 <test_3>:
    4df8:	fffff0b7          	lui	ra,0xfffff
    4dfc:	4010d093          	srai	ra,ra,0x1
    4e00:	80000e93          	li	t4,-2048
    4e04:	00300e13          	li	t3,3
    4e08:	05d09063          	bne	ra,t4,4e48 <fail>

00004e0c <test_4>:
    4e0c:	7ffff0b7          	lui	ra,0x7ffff
    4e10:	4140d093          	srai	ra,ra,0x14
    4e14:	7ff00e93          	li	t4,2047
    4e18:	00400e13          	li	t3,4
    4e1c:	03d09663          	bne	ra,t4,4e48 <fail>

00004e20 <test_5>:
    4e20:	800000b7          	lui	ra,0x80000
    4e24:	4140d093          	srai	ra,ra,0x14
    4e28:	80000e93          	li	t4,-2048
    4e2c:	00500e13          	li	t3,5
    4e30:	01d09c63          	bne	ra,t4,4e48 <fail>

00004e34 <test_6>:
    4e34:	80000037          	lui	zero,0x80000
    4e38:	00000e93          	li	t4,0
    4e3c:	00600e13          	li	t3,6
    4e40:	01d01463          	bne	zero,t4,4e48 <fail>
    4e44:	05c01863          	bne	zero,t3,4e94 <pass>

00004e48 <fail>:
    4e48:	00000513          	li	a0,0
    4e4c:	10000537          	lui	a0,0x10000
    4e50:	04500593          	li	a1,69
    4e54:	05200613          	li	a2,82
    4e58:	04f00693          	li	a3,79
    4e5c:	00b52023          	sw	a1,0(a0) # 10000000 <end+0xfff3903>
    4e60:	00c52023          	sw	a2,0(a0)
    4e64:	00c52023          	sw	a2,0(a0)
    4e68:	00d52023          	sw	a3,0(a0)
    4e6c:	00c52023          	sw	a2,0(a0)
    4e70:	030e0593          	addi	a1,t3,48
    4e74:	02000613          	li	a2,32
    4e78:	03a00693          	li	a3,58
    4e7c:	00d52023          	sw	a3,0(a0)
    4e80:	00c52023          	sw	a2,0(a0)
    4e84:	00b52023          	sw	a1,0(a0)
    4e88:	00a00713          	li	a4,10
    4e8c:	00e52023          	sw	a4,0(a0)
    4e90:	a84fb06f          	j	114 <lui_ret>

00004e94 <pass>:
    4e94:	00000513          	li	a0,0
    4e98:	10000537          	lui	a0,0x10000
    4e9c:	04f00593          	li	a1,79
    4ea0:	04b00613          	li	a2,75
    4ea4:	00a00693          	li	a3,10
    4ea8:	00b52023          	sw	a1,0(a0) # 10000000 <end+0xfff3903>
    4eac:	00c52023          	sw	a2,0(a0)
    4eb0:	00d52023          	sw	a3,0(a0)
    4eb4:	a60fb06f          	j	114 <lui_ret>

00004eb8 <lw>:
    4eb8:	00005537          	lui	a0,0x5
    4ebc:	edc50513          	addi	a0,a0,-292 # 4edc <.test_name>
    4ec0:	00000613          	li	a2,0
    4ec4:	10000637          	lui	a2,0x10000

00004ec8 <.prname_next>:
    4ec8:	00050583          	lb	a1,0(a0)
    4ecc:	00058a63          	beqz	a1,4ee0 <.prname_done>
    4ed0:	00b62023          	sw	a1,0(a2) # 10000000 <end+0xfff3903>
    4ed4:	00150513          	addi	a0,a0,1
    4ed8:	ff1ff06f          	j	4ec8 <.prname_next>

00004edc <.test_name>:
    4edc:	0000776c          	.word	0x0000776c

00004ee0 <.prname_done>:
    4ee0:	00000613          	li	a2,0
    4ee4:	10000637          	lui	a2,0x10000
    4ee8:	02e00593          	li	a1,46
    4eec:	00b62023          	sw	a1,0(a2) # 10000000 <end+0xfff3903>
    4ef0:	00b62023          	sw	a1,0(a2)

00004ef4 <test_2>:
    4ef4:	00007097          	auipc	ra,0x7
    4ef8:	29408093          	addi	ra,ra,660 # c188 <tdat>
    4efc:	0000a183          	lw	gp,0(ra)
    4f00:	00ff0eb7          	lui	t4,0xff0
    4f04:	0ffe8e93          	addi	t4,t4,255 # ff00ff <end+0xfe3a02>
    4f08:	00200e13          	li	t3,2
    4f0c:	27d19a63          	bne	gp,t4,5180 <fail>

00004f10 <test_3>:
    4f10:	00007097          	auipc	ra,0x7
    4f14:	27808093          	addi	ra,ra,632 # c188 <tdat>
    4f18:	0040a183          	lw	gp,4(ra)
    4f1c:	ff010eb7          	lui	t4,0xff010
    4f20:	f00e8e93          	addi	t4,t4,-256 # ff00ff00 <end+0xff003803>
    4f24:	00300e13          	li	t3,3
    4f28:	25d19c63          	bne	gp,t4,5180 <fail>

00004f2c <test_4>:
    4f2c:	00007097          	auipc	ra,0x7
    4f30:	25c08093          	addi	ra,ra,604 # c188 <tdat>
    4f34:	0080a183          	lw	gp,8(ra)
    4f38:	0ff01eb7          	lui	t4,0xff01
    4f3c:	ff0e8e93          	addi	t4,t4,-16 # ff00ff0 <end+0xfef48f3>
    4f40:	00400e13          	li	t3,4
    4f44:	23d19e63          	bne	gp,t4,5180 <fail>

00004f48 <test_5>:
    4f48:	00007097          	auipc	ra,0x7
    4f4c:	24008093          	addi	ra,ra,576 # c188 <tdat>
    4f50:	00c0a183          	lw	gp,12(ra)
    4f54:	f00ffeb7          	lui	t4,0xf00ff
    4f58:	00fe8e93          	addi	t4,t4,15 # f00ff00f <end+0xf00f2912>
    4f5c:	00500e13          	li	t3,5
    4f60:	23d19063          	bne	gp,t4,5180 <fail>

00004f64 <test_6>:
    4f64:	00007097          	auipc	ra,0x7
    4f68:	23008093          	addi	ra,ra,560 # c194 <tdat4>
    4f6c:	ff40a183          	lw	gp,-12(ra)
    4f70:	00ff0eb7          	lui	t4,0xff0
    4f74:	0ffe8e93          	addi	t4,t4,255 # ff00ff <end+0xfe3a02>
    4f78:	00600e13          	li	t3,6
    4f7c:	21d19263          	bne	gp,t4,5180 <fail>

00004f80 <test_7>:
    4f80:	00007097          	auipc	ra,0x7
    4f84:	21408093          	addi	ra,ra,532 # c194 <tdat4>
    4f88:	ff80a183          	lw	gp,-8(ra)
    4f8c:	ff010eb7          	lui	t4,0xff010
    4f90:	f00e8e93          	addi	t4,t4,-256 # ff00ff00 <end+0xff003803>
    4f94:	00700e13          	li	t3,7
    4f98:	1fd19463          	bne	gp,t4,5180 <fail>

00004f9c <test_8>:
    4f9c:	00007097          	auipc	ra,0x7
    4fa0:	1f808093          	addi	ra,ra,504 # c194 <tdat4>
    4fa4:	ffc0a183          	lw	gp,-4(ra)
    4fa8:	0ff01eb7          	lui	t4,0xff01
    4fac:	ff0e8e93          	addi	t4,t4,-16 # ff00ff0 <end+0xfef48f3>
    4fb0:	00800e13          	li	t3,8
    4fb4:	1dd19663          	bne	gp,t4,5180 <fail>

00004fb8 <test_9>:
    4fb8:	00007097          	auipc	ra,0x7
    4fbc:	1dc08093          	addi	ra,ra,476 # c194 <tdat4>
    4fc0:	0000a183          	lw	gp,0(ra)
    4fc4:	f00ffeb7          	lui	t4,0xf00ff
    4fc8:	00fe8e93          	addi	t4,t4,15 # f00ff00f <end+0xf00f2912>
    4fcc:	00900e13          	li	t3,9
    4fd0:	1bd19863          	bne	gp,t4,5180 <fail>

00004fd4 <test_10>:
    4fd4:	00007097          	auipc	ra,0x7
    4fd8:	1b408093          	addi	ra,ra,436 # c188 <tdat>
    4fdc:	fe008093          	addi	ra,ra,-32
    4fe0:	0200a183          	lw	gp,32(ra)
    4fe4:	00ff0eb7          	lui	t4,0xff0
    4fe8:	0ffe8e93          	addi	t4,t4,255 # ff00ff <end+0xfe3a02>
    4fec:	00a00e13          	li	t3,10
    4ff0:	19d19863          	bne	gp,t4,5180 <fail>

00004ff4 <test_11>:
    4ff4:	00007097          	auipc	ra,0x7
    4ff8:	19408093          	addi	ra,ra,404 # c188 <tdat>
    4ffc:	ffd08093          	addi	ra,ra,-3
    5000:	0070a183          	lw	gp,7(ra)
    5004:	ff010eb7          	lui	t4,0xff010
    5008:	f00e8e93          	addi	t4,t4,-256 # ff00ff00 <end+0xff003803>
    500c:	00b00e13          	li	t3,11
    5010:	17d19863          	bne	gp,t4,5180 <fail>

00005014 <test_12>:
    5014:	00c00e13          	li	t3,12
    5018:	00000213          	li	tp,0
    501c:	00007097          	auipc	ra,0x7
    5020:	17008093          	addi	ra,ra,368 # c18c <tdat2>
    5024:	0040a183          	lw	gp,4(ra)
    5028:	00018313          	mv	t1,gp
    502c:	0ff01eb7          	lui	t4,0xff01
    5030:	ff0e8e93          	addi	t4,t4,-16 # ff00ff0 <end+0xfef48f3>
    5034:	15d31663          	bne	t1,t4,5180 <fail>
    5038:	00120213          	addi	tp,tp,1 # 1 <reset_vec+0x1>
    503c:	00200293          	li	t0,2
    5040:	fc521ee3          	bne	tp,t0,501c <test_12+0x8>

00005044 <test_13>:
    5044:	00d00e13          	li	t3,13
    5048:	00000213          	li	tp,0
    504c:	00007097          	auipc	ra,0x7
    5050:	14408093          	addi	ra,ra,324 # c190 <tdat3>
    5054:	0040a183          	lw	gp,4(ra)
    5058:	00000013          	nop
    505c:	00018313          	mv	t1,gp
    5060:	f00ffeb7          	lui	t4,0xf00ff
    5064:	00fe8e93          	addi	t4,t4,15 # f00ff00f <end+0xf00f2912>
    5068:	11d31c63          	bne	t1,t4,5180 <fail>
    506c:	00120213          	addi	tp,tp,1 # 1 <reset_vec+0x1>
    5070:	00200293          	li	t0,2
    5074:	fc521ce3          	bne	tp,t0,504c <test_13+0x8>

00005078 <test_14>:
    5078:	00e00e13          	li	t3,14
    507c:	00000213          	li	tp,0
    5080:	00007097          	auipc	ra,0x7
    5084:	10808093          	addi	ra,ra,264 # c188 <tdat>
    5088:	0040a183          	lw	gp,4(ra)
    508c:	00000013          	nop
    5090:	00000013          	nop
    5094:	00018313          	mv	t1,gp
    5098:	ff010eb7          	lui	t4,0xff010
    509c:	f00e8e93          	addi	t4,t4,-256 # ff00ff00 <end+0xff003803>
    50a0:	0fd31063          	bne	t1,t4,5180 <fail>
    50a4:	00120213          	addi	tp,tp,1 # 1 <reset_vec+0x1>
    50a8:	00200293          	li	t0,2
    50ac:	fc521ae3          	bne	tp,t0,5080 <test_14+0x8>

000050b0 <test_15>:
    50b0:	00f00e13          	li	t3,15
    50b4:	00000213          	li	tp,0
    50b8:	00007097          	auipc	ra,0x7
    50bc:	0d408093          	addi	ra,ra,212 # c18c <tdat2>
    50c0:	0040a183          	lw	gp,4(ra)
    50c4:	0ff01eb7          	lui	t4,0xff01
    50c8:	ff0e8e93          	addi	t4,t4,-16 # ff00ff0 <end+0xfef48f3>
    50cc:	0bd19a63          	bne	gp,t4,5180 <fail>
    50d0:	00120213          	addi	tp,tp,1 # 1 <reset_vec+0x1>
    50d4:	00200293          	li	t0,2
    50d8:	fe5210e3          	bne	tp,t0,50b8 <test_15+0x8>

000050dc <test_16>:
    50dc:	01000e13          	li	t3,16
    50e0:	00000213          	li	tp,0
    50e4:	00007097          	auipc	ra,0x7
    50e8:	0ac08093          	addi	ra,ra,172 # c190 <tdat3>
    50ec:	00000013          	nop
    50f0:	0040a183          	lw	gp,4(ra)
    50f4:	f00ffeb7          	lui	t4,0xf00ff
    50f8:	00fe8e93          	addi	t4,t4,15 # f00ff00f <end+0xf00f2912>
    50fc:	09d19263          	bne	gp,t4,5180 <fail>
    5100:	00120213          	addi	tp,tp,1 # 1 <reset_vec+0x1>
    5104:	00200293          	li	t0,2
    5108:	fc521ee3          	bne	tp,t0,50e4 <test_16+0x8>

0000510c <test_17>:
    510c:	01100e13          	li	t3,17
    5110:	00000213          	li	tp,0
    5114:	00007097          	auipc	ra,0x7
    5118:	07408093          	addi	ra,ra,116 # c188 <tdat>
    511c:	00000013          	nop
    5120:	00000013          	nop
    5124:	0040a183          	lw	gp,4(ra)
    5128:	ff010eb7          	lui	t4,0xff010
    512c:	f00e8e93          	addi	t4,t4,-256 # ff00ff00 <end+0xff003803>
    5130:	05d19863          	bne	gp,t4,5180 <fail>
    5134:	00120213          	addi	tp,tp,1 # 1 <reset_vec+0x1>
    5138:	00200293          	li	t0,2
    513c:	fc521ce3          	bne	tp,t0,5114 <test_17+0x8>

00005140 <test_18>:
    5140:	00007197          	auipc	gp,0x7
    5144:	04818193          	addi	gp,gp,72 # c188 <tdat>
    5148:	0001a103          	lw	sp,0(gp)
    514c:	00200113          	li	sp,2
    5150:	00200e93          	li	t4,2
    5154:	01200e13          	li	t3,18
    5158:	03d11463          	bne	sp,t4,5180 <fail>

0000515c <test_19>:
    515c:	00007197          	auipc	gp,0x7
    5160:	02c18193          	addi	gp,gp,44 # c188 <tdat>
    5164:	0001a103          	lw	sp,0(gp)
    5168:	00000013          	nop
    516c:	00200113          	li	sp,2
    5170:	00200e93          	li	t4,2
    5174:	01300e13          	li	t3,19
    5178:	01d11463          	bne	sp,t4,5180 <fail>
    517c:	05c01863          	bne	zero,t3,51cc <pass>

00005180 <fail>:
    5180:	00000513          	li	a0,0
    5184:	10000537          	lui	a0,0x10000
    5188:	04500593          	li	a1,69
    518c:	05200613          	li	a2,82
    5190:	04f00693          	li	a3,79
    5194:	00b52023          	sw	a1,0(a0) # 10000000 <end+0xfff3903>
    5198:	00c52023          	sw	a2,0(a0)
    519c:	00c52023          	sw	a2,0(a0)
    51a0:	00d52023          	sw	a3,0(a0)
    51a4:	00c52023          	sw	a2,0(a0)
    51a8:	030e0593          	addi	a1,t3,48
    51ac:	02000613          	li	a2,32
    51b0:	03a00693          	li	a3,58
    51b4:	00d52023          	sw	a3,0(a0)
    51b8:	00c52023          	sw	a2,0(a0)
    51bc:	00b52023          	sw	a1,0(a0)
    51c0:	00a00713          	li	a4,10
    51c4:	00e52023          	sw	a4,0(a0)
    51c8:	fb5fa06f          	j	17c <lw_ret>

000051cc <pass>:
    51cc:	00000513          	li	a0,0
    51d0:	10000537          	lui	a0,0x10000
    51d4:	04f00593          	li	a1,79
    51d8:	04b00613          	li	a2,75
    51dc:	00a00693          	li	a3,10
    51e0:	00b52023          	sw	a1,0(a0) # 10000000 <end+0xfff3903>
    51e4:	00c52023          	sw	a2,0(a0)
    51e8:	00d52023          	sw	a3,0(a0)
    51ec:	f91fa06f          	j	17c <lw_ret>

000051f0 <mul>:
    51f0:	00005537          	lui	a0,0x5
    51f4:	21450513          	addi	a0,a0,532 # 5214 <.test_name>
    51f8:	00000613          	li	a2,0
    51fc:	10000637          	lui	a2,0x10000

00005200 <.prname_next>:
    5200:	00050583          	lb	a1,0(a0)
    5204:	00058a63          	beqz	a1,5218 <.prname_done>
    5208:	00b62023          	sw	a1,0(a2) # 10000000 <end+0xfff3903>
    520c:	00150513          	addi	a0,a0,1
    5210:	ff1ff06f          	j	5200 <.prname_next>

00005214 <.test_name>:
    5214:	006c756d          	.word	0x006c756d

00005218 <.prname_done>:
    5218:	00000613          	li	a2,0
    521c:	10000637          	lui	a2,0x10000
    5220:	02e00593          	li	a1,46
    5224:	00b62023          	sw	a1,0(a2) # 10000000 <end+0xfff3903>
    5228:	00b62023          	sw	a1,0(a2)

0000522c <test_32>:
    522c:	000080b7          	lui	ra,0x8
    5230:	e0008093          	addi	ra,ra,-512 # 7e00 <fail+0x8>
    5234:	b6db7137          	lui	sp,0xb6db7
    5238:	db710113          	addi	sp,sp,-585 # b6db6db7 <end+0xb6daa6ba>
    523c:	022081b3          	mul	gp,ra,sp
    5240:	00001eb7          	lui	t4,0x1
    5244:	200e8e93          	addi	t4,t4,512 # 1200 <putchar>
    5248:	02000e13          	li	t3,32
    524c:	4bd19463          	bne	gp,t4,56f4 <fail>

00005250 <test_33>:
    5250:	000080b7          	lui	ra,0x8
    5254:	fc008093          	addi	ra,ra,-64 # 7fc0 <test_9+0x10>
    5258:	b6db7137          	lui	sp,0xb6db7
    525c:	db710113          	addi	sp,sp,-585 # b6db6db7 <end+0xb6daa6ba>
    5260:	022081b3          	mul	gp,ra,sp
    5264:	00001eb7          	lui	t4,0x1
    5268:	240e8e93          	addi	t4,t4,576 # 1240 <read_timer+0x4>
    526c:	02100e13          	li	t3,33
    5270:	49d19263          	bne	gp,t4,56f4 <fail>

00005274 <test_2>:
    5274:	00000093          	li	ra,0
    5278:	00000113          	li	sp,0
    527c:	022081b3          	mul	gp,ra,sp
    5280:	00000e93          	li	t4,0
    5284:	00200e13          	li	t3,2
    5288:	47d19663          	bne	gp,t4,56f4 <fail>

0000528c <test_3>:
    528c:	00100093          	li	ra,1
    5290:	00100113          	li	sp,1
    5294:	022081b3          	mul	gp,ra,sp
    5298:	00100e93          	li	t4,1
    529c:	00300e13          	li	t3,3
    52a0:	45d19a63          	bne	gp,t4,56f4 <fail>

000052a4 <test_4>:
    52a4:	00300093          	li	ra,3
    52a8:	00700113          	li	sp,7
    52ac:	022081b3          	mul	gp,ra,sp
    52b0:	01500e93          	li	t4,21
    52b4:	00400e13          	li	t3,4
    52b8:	43d19e63          	bne	gp,t4,56f4 <fail>

000052bc <test_5>:
    52bc:	00000093          	li	ra,0
    52c0:	ffff8137          	lui	sp,0xffff8
    52c4:	022081b3          	mul	gp,ra,sp
    52c8:	00000e93          	li	t4,0
    52cc:	00500e13          	li	t3,5
    52d0:	43d19263          	bne	gp,t4,56f4 <fail>

000052d4 <test_6>:
    52d4:	800000b7          	lui	ra,0x80000
    52d8:	00000113          	li	sp,0
    52dc:	022081b3          	mul	gp,ra,sp
    52e0:	00000e93          	li	t4,0
    52e4:	00600e13          	li	t3,6
    52e8:	41d19663          	bne	gp,t4,56f4 <fail>

000052ec <test_7>:
    52ec:	800000b7          	lui	ra,0x80000
    52f0:	ffff8137          	lui	sp,0xffff8
    52f4:	022081b3          	mul	gp,ra,sp
    52f8:	00000e93          	li	t4,0
    52fc:	00700e13          	li	t3,7
    5300:	3fd19a63          	bne	gp,t4,56f4 <fail>

00005304 <test_30>:
    5304:	aaaab0b7          	lui	ra,0xaaaab
    5308:	aab08093          	addi	ra,ra,-1365 # aaaaaaab <end+0xaaa9e3ae>
    530c:	00030137          	lui	sp,0x30
    5310:	e7d10113          	addi	sp,sp,-387 # 2fe7d <end+0x23780>
    5314:	022081b3          	mul	gp,ra,sp
    5318:	00010eb7          	lui	t4,0x10
    531c:	f7fe8e93          	addi	t4,t4,-129 # ff7f <end+0x3882>
    5320:	01e00e13          	li	t3,30
    5324:	3dd19863          	bne	gp,t4,56f4 <fail>

00005328 <test_31>:
    5328:	000300b7          	lui	ra,0x30
    532c:	e7d08093          	addi	ra,ra,-387 # 2fe7d <end+0x23780>
    5330:	aaaab137          	lui	sp,0xaaaab
    5334:	aab10113          	addi	sp,sp,-1365 # aaaaaaab <end+0xaaa9e3ae>
    5338:	022081b3          	mul	gp,ra,sp
    533c:	00010eb7          	lui	t4,0x10
    5340:	f7fe8e93          	addi	t4,t4,-129 # ff7f <end+0x3882>
    5344:	01f00e13          	li	t3,31
    5348:	3bd19663          	bne	gp,t4,56f4 <fail>

0000534c <test_34>:
    534c:	ff0000b7          	lui	ra,0xff000
    5350:	ff000137          	lui	sp,0xff000
    5354:	022081b3          	mul	gp,ra,sp
    5358:	00000e93          	li	t4,0
    535c:	02200e13          	li	t3,34
    5360:	39d19a63          	bne	gp,t4,56f4 <fail>

00005364 <test_35>:
    5364:	fff00093          	li	ra,-1
    5368:	fff00113          	li	sp,-1
    536c:	022081b3          	mul	gp,ra,sp
    5370:	00100e93          	li	t4,1
    5374:	02300e13          	li	t3,35
    5378:	37d19e63          	bne	gp,t4,56f4 <fail>

0000537c <test_36>:
    537c:	fff00093          	li	ra,-1
    5380:	00100113          	li	sp,1
    5384:	022081b3          	mul	gp,ra,sp
    5388:	fff00e93          	li	t4,-1
    538c:	02400e13          	li	t3,36
    5390:	37d19263          	bne	gp,t4,56f4 <fail>

00005394 <test_37>:
    5394:	00100093          	li	ra,1
    5398:	fff00113          	li	sp,-1
    539c:	022081b3          	mul	gp,ra,sp
    53a0:	fff00e93          	li	t4,-1
    53a4:	02500e13          	li	t3,37
    53a8:	35d19663          	bne	gp,t4,56f4 <fail>

000053ac <test_8>:
    53ac:	00d00093          	li	ra,13
    53b0:	00b00113          	li	sp,11
    53b4:	022080b3          	mul	ra,ra,sp
    53b8:	08f00e93          	li	t4,143
    53bc:	00800e13          	li	t3,8
    53c0:	33d09a63          	bne	ra,t4,56f4 <fail>

000053c4 <test_9>:
    53c4:	00e00093          	li	ra,14
    53c8:	00b00113          	li	sp,11
    53cc:	02208133          	mul	sp,ra,sp
    53d0:	09a00e93          	li	t4,154
    53d4:	00900e13          	li	t3,9
    53d8:	31d11e63          	bne	sp,t4,56f4 <fail>

000053dc <test_10>:
    53dc:	00d00093          	li	ra,13
    53e0:	021080b3          	mul	ra,ra,ra
    53e4:	0a900e93          	li	t4,169
    53e8:	00a00e13          	li	t3,10
    53ec:	31d09463          	bne	ra,t4,56f4 <fail>

000053f0 <test_11>:
    53f0:	00000213          	li	tp,0
    53f4:	00d00093          	li	ra,13
    53f8:	00b00113          	li	sp,11
    53fc:	022081b3          	mul	gp,ra,sp
    5400:	00018313          	mv	t1,gp
    5404:	00120213          	addi	tp,tp,1 # 1 <reset_vec+0x1>
    5408:	00200293          	li	t0,2
    540c:	fe5214e3          	bne	tp,t0,53f4 <test_11+0x4>
    5410:	08f00e93          	li	t4,143
    5414:	00b00e13          	li	t3,11
    5418:	2dd31e63          	bne	t1,t4,56f4 <fail>

0000541c <test_12>:
    541c:	00000213          	li	tp,0
    5420:	00e00093          	li	ra,14
    5424:	00b00113          	li	sp,11
    5428:	022081b3          	mul	gp,ra,sp
    542c:	00000013          	nop
    5430:	00018313          	mv	t1,gp
    5434:	00120213          	addi	tp,tp,1 # 1 <reset_vec+0x1>
    5438:	00200293          	li	t0,2
    543c:	fe5212e3          	bne	tp,t0,5420 <test_12+0x4>
    5440:	09a00e93          	li	t4,154
    5444:	00c00e13          	li	t3,12
    5448:	2bd31663          	bne	t1,t4,56f4 <fail>

0000544c <test_13>:
    544c:	00000213          	li	tp,0
    5450:	00f00093          	li	ra,15
    5454:	00b00113          	li	sp,11
    5458:	022081b3          	mul	gp,ra,sp
    545c:	00000013          	nop
    5460:	00000013          	nop
    5464:	00018313          	mv	t1,gp
    5468:	00120213          	addi	tp,tp,1 # 1 <reset_vec+0x1>
    546c:	00200293          	li	t0,2
    5470:	fe5210e3          	bne	tp,t0,5450 <test_13+0x4>
    5474:	0a500e93          	li	t4,165
    5478:	00d00e13          	li	t3,13
    547c:	27d31c63          	bne	t1,t4,56f4 <fail>

00005480 <test_14>:
    5480:	00000213          	li	tp,0
    5484:	00d00093          	li	ra,13
    5488:	00b00113          	li	sp,11
    548c:	022081b3          	mul	gp,ra,sp
    5490:	00120213          	addi	tp,tp,1 # 1 <reset_vec+0x1>
    5494:	00200293          	li	t0,2
    5498:	fe5216e3          	bne	tp,t0,5484 <test_14+0x4>
    549c:	08f00e93          	li	t4,143
    54a0:	00e00e13          	li	t3,14
    54a4:	25d19863          	bne	gp,t4,56f4 <fail>

000054a8 <test_15>:
    54a8:	00000213          	li	tp,0
    54ac:	00e00093          	li	ra,14
    54b0:	00b00113          	li	sp,11
    54b4:	00000013          	nop
    54b8:	022081b3          	mul	gp,ra,sp
    54bc:	00120213          	addi	tp,tp,1 # 1 <reset_vec+0x1>
    54c0:	00200293          	li	t0,2
    54c4:	fe5214e3          	bne	tp,t0,54ac <test_15+0x4>
    54c8:	09a00e93          	li	t4,154
    54cc:	00f00e13          	li	t3,15
    54d0:	23d19263          	bne	gp,t4,56f4 <fail>

000054d4 <test_16>:
    54d4:	00000213          	li	tp,0
    54d8:	00f00093          	li	ra,15
    54dc:	00b00113          	li	sp,11
    54e0:	00000013          	nop
    54e4:	00000013          	nop
    54e8:	022081b3          	mul	gp,ra,sp
    54ec:	00120213          	addi	tp,tp,1 # 1 <reset_vec+0x1>
    54f0:	00200293          	li	t0,2
    54f4:	fe5212e3          	bne	tp,t0,54d8 <test_16+0x4>
    54f8:	0a500e93          	li	t4,165
    54fc:	01000e13          	li	t3,16
    5500:	1fd19a63          	bne	gp,t4,56f4 <fail>

00005504 <test_17>:
    5504:	00000213          	li	tp,0
    5508:	00d00093          	li	ra,13
    550c:	00000013          	nop
    5510:	00b00113          	li	sp,11
    5514:	022081b3          	mul	gp,ra,sp
    5518:	00120213          	addi	tp,tp,1 # 1 <reset_vec+0x1>
    551c:	00200293          	li	t0,2
    5520:	fe5214e3          	bne	tp,t0,5508 <test_17+0x4>
    5524:	08f00e93          	li	t4,143
    5528:	01100e13          	li	t3,17
    552c:	1dd19463          	bne	gp,t4,56f4 <fail>

00005530 <test_18>:
    5530:	00000213          	li	tp,0
    5534:	00e00093          	li	ra,14
    5538:	00000013          	nop
    553c:	00b00113          	li	sp,11
    5540:	00000013          	nop
    5544:	022081b3          	mul	gp,ra,sp
    5548:	00120213          	addi	tp,tp,1 # 1 <reset_vec+0x1>
    554c:	00200293          	li	t0,2
    5550:	fe5212e3          	bne	tp,t0,5534 <test_18+0x4>
    5554:	09a00e93          	li	t4,154
    5558:	01200e13          	li	t3,18
    555c:	19d19c63          	bne	gp,t4,56f4 <fail>

00005560 <test_19>:
    5560:	00000213          	li	tp,0
    5564:	00f00093          	li	ra,15
    5568:	00000013          	nop
    556c:	00000013          	nop
    5570:	00b00113          	li	sp,11
    5574:	022081b3          	mul	gp,ra,sp
    5578:	00120213          	addi	tp,tp,1 # 1 <reset_vec+0x1>
    557c:	00200293          	li	t0,2
    5580:	fe5212e3          	bne	tp,t0,5564 <test_19+0x4>
    5584:	0a500e93          	li	t4,165
    5588:	01300e13          	li	t3,19
    558c:	17d19463          	bne	gp,t4,56f4 <fail>

00005590 <test_20>:
    5590:	00000213          	li	tp,0
    5594:	00b00113          	li	sp,11
    5598:	00d00093          	li	ra,13
    559c:	022081b3          	mul	gp,ra,sp
    55a0:	00120213          	addi	tp,tp,1 # 1 <reset_vec+0x1>
    55a4:	00200293          	li	t0,2
    55a8:	fe5216e3          	bne	tp,t0,5594 <test_20+0x4>
    55ac:	08f00e93          	li	t4,143
    55b0:	01400e13          	li	t3,20
    55b4:	15d19063          	bne	gp,t4,56f4 <fail>

000055b8 <test_21>:
    55b8:	00000213          	li	tp,0
    55bc:	00b00113          	li	sp,11
    55c0:	00e00093          	li	ra,14
    55c4:	00000013          	nop
    55c8:	022081b3          	mul	gp,ra,sp
    55cc:	00120213          	addi	tp,tp,1 # 1 <reset_vec+0x1>
    55d0:	00200293          	li	t0,2
    55d4:	fe5214e3          	bne	tp,t0,55bc <test_21+0x4>
    55d8:	09a00e93          	li	t4,154
    55dc:	01500e13          	li	t3,21
    55e0:	11d19a63          	bne	gp,t4,56f4 <fail>

000055e4 <test_22>:
    55e4:	00000213          	li	tp,0
    55e8:	00b00113          	li	sp,11
    55ec:	00f00093          	li	ra,15
    55f0:	00000013          	nop
    55f4:	00000013          	nop
    55f8:	022081b3          	mul	gp,ra,sp
    55fc:	00120213          	addi	tp,tp,1 # 1 <reset_vec+0x1>
    5600:	00200293          	li	t0,2
    5604:	fe5212e3          	bne	tp,t0,55e8 <test_22+0x4>
    5608:	0a500e93          	li	t4,165
    560c:	01600e13          	li	t3,22
    5610:	0fd19263          	bne	gp,t4,56f4 <fail>

00005614 <test_23>:
    5614:	00000213          	li	tp,0
    5618:	00b00113          	li	sp,11
    561c:	00000013          	nop
    5620:	00d00093          	li	ra,13
    5624:	022081b3          	mul	gp,ra,sp
    5628:	00120213          	addi	tp,tp,1 # 1 <reset_vec+0x1>
    562c:	00200293          	li	t0,2
    5630:	fe5214e3          	bne	tp,t0,5618 <test_23+0x4>
    5634:	08f00e93          	li	t4,143
    5638:	01700e13          	li	t3,23
    563c:	0bd19c63          	bne	gp,t4,56f4 <fail>

00005640 <test_24>:
    5640:	00000213          	li	tp,0
    5644:	00b00113          	li	sp,11
    5648:	00000013          	nop
    564c:	00e00093          	li	ra,14
    5650:	00000013          	nop
    5654:	022081b3          	mul	gp,ra,sp
    5658:	00120213          	addi	tp,tp,1 # 1 <reset_vec+0x1>
    565c:	00200293          	li	t0,2
    5660:	fe5212e3          	bne	tp,t0,5644 <test_24+0x4>
    5664:	09a00e93          	li	t4,154
    5668:	01800e13          	li	t3,24
    566c:	09d19463          	bne	gp,t4,56f4 <fail>

00005670 <test_25>:
    5670:	00000213          	li	tp,0
    5674:	00b00113          	li	sp,11
    5678:	00000013          	nop
    567c:	00000013          	nop
    5680:	00f00093          	li	ra,15
    5684:	022081b3          	mul	gp,ra,sp
    5688:	00120213          	addi	tp,tp,1 # 1 <reset_vec+0x1>
    568c:	00200293          	li	t0,2
    5690:	fe5212e3          	bne	tp,t0,5674 <test_25+0x4>
    5694:	0a500e93          	li	t4,165
    5698:	01900e13          	li	t3,25
    569c:	05d19c63          	bne	gp,t4,56f4 <fail>

000056a0 <test_26>:
    56a0:	01f00093          	li	ra,31
    56a4:	02100133          	mul	sp,zero,ra
    56a8:	00000e93          	li	t4,0
    56ac:	01a00e13          	li	t3,26
    56b0:	05d11263          	bne	sp,t4,56f4 <fail>

000056b4 <test_27>:
    56b4:	02000093          	li	ra,32
    56b8:	02008133          	mul	sp,ra,zero
    56bc:	00000e93          	li	t4,0
    56c0:	01b00e13          	li	t3,27
    56c4:	03d11863          	bne	sp,t4,56f4 <fail>

000056c8 <test_28>:
    56c8:	020000b3          	mul	ra,zero,zero
    56cc:	00000e93          	li	t4,0
    56d0:	01c00e13          	li	t3,28
    56d4:	03d09063          	bne	ra,t4,56f4 <fail>

000056d8 <test_29>:
    56d8:	02100093          	li	ra,33
    56dc:	02200113          	li	sp,34
    56e0:	02208033          	mul	zero,ra,sp
    56e4:	00000e93          	li	t4,0
    56e8:	01d00e13          	li	t3,29
    56ec:	01d01463          	bne	zero,t4,56f4 <fail>
    56f0:	05c01863          	bne	zero,t3,5740 <pass>

000056f4 <fail>:
    56f4:	00000513          	li	a0,0
    56f8:	10000537          	lui	a0,0x10000
    56fc:	04500593          	li	a1,69
    5700:	05200613          	li	a2,82
    5704:	04f00693          	li	a3,79
    5708:	00b52023          	sw	a1,0(a0) # 10000000 <end+0xfff3903>
    570c:	00c52023          	sw	a2,0(a0)
    5710:	00c52023          	sw	a2,0(a0)
    5714:	00d52023          	sw	a3,0(a0)
    5718:	00c52023          	sw	a2,0(a0)
    571c:	030e0593          	addi	a1,t3,48
    5720:	02000613          	li	a2,32
    5724:	03a00693          	li	a3,58
    5728:	00d52023          	sw	a3,0(a0)
    572c:	00c52023          	sw	a2,0(a0)
    5730:	00b52023          	sw	a1,0(a0)
    5734:	00a00713          	li	a4,10
    5738:	00e52023          	sw	a4,0(a0)
    573c:	b31fa06f          	j	26c <mul_ret>

00005740 <pass>:
    5740:	00000513          	li	a0,0
    5744:	10000537          	lui	a0,0x10000
    5748:	04f00593          	li	a1,79
    574c:	04b00613          	li	a2,75
    5750:	00a00693          	li	a3,10
    5754:	00b52023          	sw	a1,0(a0) # 10000000 <end+0xfff3903>
    5758:	00c52023          	sw	a2,0(a0)
    575c:	00d52023          	sw	a3,0(a0)
    5760:	b0dfa06f          	j	26c <mul_ret>

00005764 <mulh>:
    5764:	00005537          	lui	a0,0x5
    5768:	78850513          	addi	a0,a0,1928 # 5788 <.test_name>
    576c:	00000613          	li	a2,0
    5770:	10000637          	lui	a2,0x10000

00005774 <.prname_next>:
    5774:	00050583          	lb	a1,0(a0)
    5778:	00058c63          	beqz	a1,5790 <.prname_done>
    577c:	00b62023          	sw	a1,0(a2) # 10000000 <end+0xfff3903>
    5780:	00150513          	addi	a0,a0,1
    5784:	ff1ff06f          	j	5774 <.prname_next>

00005788 <.test_name>:
    5788:	686c756d          	.word	0x686c756d
    578c:	00000000          	.word	0x00000000

00005790 <.prname_done>:
    5790:	00000613          	li	a2,0
    5794:	10000637          	lui	a2,0x10000
    5798:	02e00593          	li	a1,46
    579c:	00b62023          	sw	a1,0(a2) # 10000000 <end+0xfff3903>
    57a0:	00b62023          	sw	a1,0(a2)

000057a4 <test_2>:
    57a4:	00000093          	li	ra,0
    57a8:	00000113          	li	sp,0
    57ac:	022091b3          	mulh	gp,ra,sp
    57b0:	00000e93          	li	t4,0
    57b4:	00200e13          	li	t3,2
    57b8:	4bd19a63          	bne	gp,t4,5c6c <fail>

000057bc <test_3>:
    57bc:	00100093          	li	ra,1
    57c0:	00100113          	li	sp,1
    57c4:	022091b3          	mulh	gp,ra,sp
    57c8:	00000e93          	li	t4,0
    57cc:	00300e13          	li	t3,3
    57d0:	49d19e63          	bne	gp,t4,5c6c <fail>

000057d4 <test_4>:
    57d4:	00300093          	li	ra,3
    57d8:	00700113          	li	sp,7
    57dc:	022091b3          	mulh	gp,ra,sp
    57e0:	00000e93          	li	t4,0
    57e4:	00400e13          	li	t3,4
    57e8:	49d19263          	bne	gp,t4,5c6c <fail>

000057ec <test_5>:
    57ec:	00000093          	li	ra,0
    57f0:	ffff8137          	lui	sp,0xffff8
    57f4:	022091b3          	mulh	gp,ra,sp
    57f8:	00000e93          	li	t4,0
    57fc:	00500e13          	li	t3,5
    5800:	47d19663          	bne	gp,t4,5c6c <fail>

00005804 <test_6>:
    5804:	800000b7          	lui	ra,0x80000
    5808:	00000113          	li	sp,0
    580c:	022091b3          	mulh	gp,ra,sp
    5810:	00000e93          	li	t4,0
    5814:	00600e13          	li	t3,6
    5818:	45d19a63          	bne	gp,t4,5c6c <fail>

0000581c <test_7>:
    581c:	800000b7          	lui	ra,0x80000
    5820:	00000113          	li	sp,0
    5824:	022091b3          	mulh	gp,ra,sp
    5828:	00000e93          	li	t4,0
    582c:	00700e13          	li	t3,7
    5830:	43d19e63          	bne	gp,t4,5c6c <fail>

00005834 <test_30>:
    5834:	aaaab0b7          	lui	ra,0xaaaab
    5838:	aab08093          	addi	ra,ra,-1365 # aaaaaaab <end+0xaaa9e3ae>
    583c:	00030137          	lui	sp,0x30
    5840:	e7d10113          	addi	sp,sp,-387 # 2fe7d <end+0x23780>
    5844:	022091b3          	mulh	gp,ra,sp
    5848:	ffff0eb7          	lui	t4,0xffff0
    584c:	081e8e93          	addi	t4,t4,129 # ffff0081 <end+0xfffe3984>
    5850:	01e00e13          	li	t3,30
    5854:	41d19c63          	bne	gp,t4,5c6c <fail>

00005858 <test_31>:
    5858:	000300b7          	lui	ra,0x30
    585c:	e7d08093          	addi	ra,ra,-387 # 2fe7d <end+0x23780>
    5860:	aaaab137          	lui	sp,0xaaaab
    5864:	aab10113          	addi	sp,sp,-1365 # aaaaaaab <end+0xaaa9e3ae>
    5868:	022091b3          	mulh	gp,ra,sp
    586c:	ffff0eb7          	lui	t4,0xffff0
    5870:	081e8e93          	addi	t4,t4,129 # ffff0081 <end+0xfffe3984>
    5874:	01f00e13          	li	t3,31
    5878:	3fd19a63          	bne	gp,t4,5c6c <fail>

0000587c <test_32>:
    587c:	ff0000b7          	lui	ra,0xff000
    5880:	ff000137          	lui	sp,0xff000
    5884:	022091b3          	mulh	gp,ra,sp
    5888:	00010eb7          	lui	t4,0x10
    588c:	02000e13          	li	t3,32
    5890:	3dd19e63          	bne	gp,t4,5c6c <fail>

00005894 <test_33>:
    5894:	fff00093          	li	ra,-1
    5898:	fff00113          	li	sp,-1
    589c:	022091b3          	mulh	gp,ra,sp
    58a0:	00000e93          	li	t4,0
    58a4:	02100e13          	li	t3,33
    58a8:	3dd19263          	bne	gp,t4,5c6c <fail>

000058ac <test_34>:
    58ac:	fff00093          	li	ra,-1
    58b0:	00100113          	li	sp,1
    58b4:	022091b3          	mulh	gp,ra,sp
    58b8:	fff00e93          	li	t4,-1
    58bc:	02200e13          	li	t3,34
    58c0:	3bd19663          	bne	gp,t4,5c6c <fail>

000058c4 <test_35>:
    58c4:	00100093          	li	ra,1
    58c8:	fff00113          	li	sp,-1
    58cc:	022091b3          	mulh	gp,ra,sp
    58d0:	fff00e93          	li	t4,-1
    58d4:	02300e13          	li	t3,35
    58d8:	39d19a63          	bne	gp,t4,5c6c <fail>

000058dc <test_8>:
    58dc:	00d000b7          	lui	ra,0xd00
    58e0:	00b00137          	lui	sp,0xb00
    58e4:	022090b3          	mulh	ra,ra,sp
    58e8:	00009eb7          	lui	t4,0x9
    58ec:	f00e8e93          	addi	t4,t4,-256 # 8f00 <test_16+0x10>
    58f0:	00800e13          	li	t3,8
    58f4:	37d09c63          	bne	ra,t4,5c6c <fail>

000058f8 <test_9>:
    58f8:	00e000b7          	lui	ra,0xe00
    58fc:	00b00137          	lui	sp,0xb00
    5900:	02209133          	mulh	sp,ra,sp
    5904:	0000aeb7          	lui	t4,0xa
    5908:	a00e8e93          	addi	t4,t4,-1536 # 9a00 <fail+0x10>
    590c:	00900e13          	li	t3,9
    5910:	35d11e63          	bne	sp,t4,5c6c <fail>

00005914 <test_10>:
    5914:	00d000b7          	lui	ra,0xd00
    5918:	021090b3          	mulh	ra,ra,ra
    591c:	0000beb7          	lui	t4,0xb
    5920:	900e8e93          	addi	t4,t4,-1792 # a900 <test_36+0x4>
    5924:	00a00e13          	li	t3,10
    5928:	35d09263          	bne	ra,t4,5c6c <fail>

0000592c <test_11>:
    592c:	00000213          	li	tp,0
    5930:	00d000b7          	lui	ra,0xd00
    5934:	00b00137          	lui	sp,0xb00
    5938:	022091b3          	mulh	gp,ra,sp
    593c:	00018313          	mv	t1,gp
    5940:	00120213          	addi	tp,tp,1 # 1 <reset_vec+0x1>
    5944:	00200293          	li	t0,2
    5948:	fe5214e3          	bne	tp,t0,5930 <test_11+0x4>
    594c:	00009eb7          	lui	t4,0x9
    5950:	f00e8e93          	addi	t4,t4,-256 # 8f00 <test_16+0x10>
    5954:	00b00e13          	li	t3,11
    5958:	31d31a63          	bne	t1,t4,5c6c <fail>

0000595c <test_12>:
    595c:	00000213          	li	tp,0
    5960:	00e000b7          	lui	ra,0xe00
    5964:	00b00137          	lui	sp,0xb00
    5968:	022091b3          	mulh	gp,ra,sp
    596c:	00000013          	nop
    5970:	00018313          	mv	t1,gp
    5974:	00120213          	addi	tp,tp,1 # 1 <reset_vec+0x1>
    5978:	00200293          	li	t0,2
    597c:	fe5212e3          	bne	tp,t0,5960 <test_12+0x4>
    5980:	0000aeb7          	lui	t4,0xa
    5984:	a00e8e93          	addi	t4,t4,-1536 # 9a00 <fail+0x10>
    5988:	00c00e13          	li	t3,12
    598c:	2fd31063          	bne	t1,t4,5c6c <fail>

00005990 <test_13>:
    5990:	00000213          	li	tp,0
    5994:	00f000b7          	lui	ra,0xf00
    5998:	00b00137          	lui	sp,0xb00
    599c:	022091b3          	mulh	gp,ra,sp
    59a0:	00000013          	nop
    59a4:	00000013          	nop
    59a8:	00018313          	mv	t1,gp
    59ac:	00120213          	addi	tp,tp,1 # 1 <reset_vec+0x1>
    59b0:	00200293          	li	t0,2
    59b4:	fe5210e3          	bne	tp,t0,5994 <test_13+0x4>
    59b8:	0000aeb7          	lui	t4,0xa
    59bc:	500e8e93          	addi	t4,t4,1280 # a500 <test_8+0x8>
    59c0:	00d00e13          	li	t3,13
    59c4:	2bd31463          	bne	t1,t4,5c6c <fail>

000059c8 <test_14>:
    59c8:	00000213          	li	tp,0
    59cc:	00d000b7          	lui	ra,0xd00
    59d0:	00b00137          	lui	sp,0xb00
    59d4:	022091b3          	mulh	gp,ra,sp
    59d8:	00120213          	addi	tp,tp,1 # 1 <reset_vec+0x1>
    59dc:	00200293          	li	t0,2
    59e0:	fe5216e3          	bne	tp,t0,59cc <test_14+0x4>
    59e4:	00009eb7          	lui	t4,0x9
    59e8:	f00e8e93          	addi	t4,t4,-256 # 8f00 <test_16+0x10>
    59ec:	00e00e13          	li	t3,14
    59f0:	27d19e63          	bne	gp,t4,5c6c <fail>

000059f4 <test_15>:
    59f4:	00000213          	li	tp,0
    59f8:	00e000b7          	lui	ra,0xe00
    59fc:	00b00137          	lui	sp,0xb00
    5a00:	00000013          	nop
    5a04:	022091b3          	mulh	gp,ra,sp
    5a08:	00120213          	addi	tp,tp,1 # 1 <reset_vec+0x1>
    5a0c:	00200293          	li	t0,2
    5a10:	fe5214e3          	bne	tp,t0,59f8 <test_15+0x4>
    5a14:	0000aeb7          	lui	t4,0xa
    5a18:	a00e8e93          	addi	t4,t4,-1536 # 9a00 <fail+0x10>
    5a1c:	00f00e13          	li	t3,15
    5a20:	25d19663          	bne	gp,t4,5c6c <fail>

00005a24 <test_16>:
    5a24:	00000213          	li	tp,0
    5a28:	00f000b7          	lui	ra,0xf00
    5a2c:	00b00137          	lui	sp,0xb00
    5a30:	00000013          	nop
    5a34:	00000013          	nop
    5a38:	022091b3          	mulh	gp,ra,sp
    5a3c:	00120213          	addi	tp,tp,1 # 1 <reset_vec+0x1>
    5a40:	00200293          	li	t0,2
    5a44:	fe5212e3          	bne	tp,t0,5a28 <test_16+0x4>
    5a48:	0000aeb7          	lui	t4,0xa
    5a4c:	500e8e93          	addi	t4,t4,1280 # a500 <test_8+0x8>
    5a50:	01000e13          	li	t3,16
    5a54:	21d19c63          	bne	gp,t4,5c6c <fail>

00005a58 <test_17>:
    5a58:	00000213          	li	tp,0
    5a5c:	00d000b7          	lui	ra,0xd00
    5a60:	00000013          	nop
    5a64:	00b00137          	lui	sp,0xb00
    5a68:	022091b3          	mulh	gp,ra,sp
    5a6c:	00120213          	addi	tp,tp,1 # 1 <reset_vec+0x1>
    5a70:	00200293          	li	t0,2
    5a74:	fe5214e3          	bne	tp,t0,5a5c <test_17+0x4>
    5a78:	00009eb7          	lui	t4,0x9
    5a7c:	f00e8e93          	addi	t4,t4,-256 # 8f00 <test_16+0x10>
    5a80:	01100e13          	li	t3,17
    5a84:	1fd19463          	bne	gp,t4,5c6c <fail>

00005a88 <test_18>:
    5a88:	00000213          	li	tp,0
    5a8c:	00e000b7          	lui	ra,0xe00
    5a90:	00000013          	nop
    5a94:	00b00137          	lui	sp,0xb00
    5a98:	00000013          	nop
    5a9c:	022091b3          	mulh	gp,ra,sp
    5aa0:	00120213          	addi	tp,tp,1 # 1 <reset_vec+0x1>
    5aa4:	00200293          	li	t0,2
    5aa8:	fe5212e3          	bne	tp,t0,5a8c <test_18+0x4>
    5aac:	0000aeb7          	lui	t4,0xa
    5ab0:	a00e8e93          	addi	t4,t4,-1536 # 9a00 <fail+0x10>
    5ab4:	01200e13          	li	t3,18
    5ab8:	1bd19a63          	bne	gp,t4,5c6c <fail>

00005abc <test_19>:
    5abc:	00000213          	li	tp,0
    5ac0:	00f000b7          	lui	ra,0xf00
    5ac4:	00000013          	nop
    5ac8:	00000013          	nop
    5acc:	00b00137          	lui	sp,0xb00
    5ad0:	022091b3          	mulh	gp,ra,sp
    5ad4:	00120213          	addi	tp,tp,1 # 1 <reset_vec+0x1>
    5ad8:	00200293          	li	t0,2
    5adc:	fe5212e3          	bne	tp,t0,5ac0 <test_19+0x4>
    5ae0:	0000aeb7          	lui	t4,0xa
    5ae4:	500e8e93          	addi	t4,t4,1280 # a500 <test_8+0x8>
    5ae8:	01300e13          	li	t3,19
    5aec:	19d19063          	bne	gp,t4,5c6c <fail>

00005af0 <test_20>:
    5af0:	00000213          	li	tp,0
    5af4:	00b00137          	lui	sp,0xb00
    5af8:	00d000b7          	lui	ra,0xd00
    5afc:	022091b3          	mulh	gp,ra,sp
    5b00:	00120213          	addi	tp,tp,1 # 1 <reset_vec+0x1>
    5b04:	00200293          	li	t0,2
    5b08:	fe5216e3          	bne	tp,t0,5af4 <test_20+0x4>
    5b0c:	00009eb7          	lui	t4,0x9
    5b10:	f00e8e93          	addi	t4,t4,-256 # 8f00 <test_16+0x10>
    5b14:	01400e13          	li	t3,20
    5b18:	15d19a63          	bne	gp,t4,5c6c <fail>

00005b1c <test_21>:
    5b1c:	00000213          	li	tp,0
    5b20:	00b00137          	lui	sp,0xb00
    5b24:	00e000b7          	lui	ra,0xe00
    5b28:	00000013          	nop
    5b2c:	022091b3          	mulh	gp,ra,sp
    5b30:	00120213          	addi	tp,tp,1 # 1 <reset_vec+0x1>
    5b34:	00200293          	li	t0,2
    5b38:	fe5214e3          	bne	tp,t0,5b20 <test_21+0x4>
    5b3c:	0000aeb7          	lui	t4,0xa
    5b40:	a00e8e93          	addi	t4,t4,-1536 # 9a00 <fail+0x10>
    5b44:	01500e13          	li	t3,21
    5b48:	13d19263          	bne	gp,t4,5c6c <fail>

00005b4c <test_22>:
    5b4c:	00000213          	li	tp,0
    5b50:	00b00137          	lui	sp,0xb00
    5b54:	00f000b7          	lui	ra,0xf00
    5b58:	00000013          	nop
    5b5c:	00000013          	nop
    5b60:	022091b3          	mulh	gp,ra,sp
    5b64:	00120213          	addi	tp,tp,1 # 1 <reset_vec+0x1>
    5b68:	00200293          	li	t0,2
    5b6c:	fe5212e3          	bne	tp,t0,5b50 <test_22+0x4>
    5b70:	0000aeb7          	lui	t4,0xa
    5b74:	500e8e93          	addi	t4,t4,1280 # a500 <test_8+0x8>
    5b78:	01600e13          	li	t3,22
    5b7c:	0fd19863          	bne	gp,t4,5c6c <fail>

00005b80 <test_23>:
    5b80:	00000213          	li	tp,0
    5b84:	00b00137          	lui	sp,0xb00
    5b88:	00000013          	nop
    5b8c:	00d000b7          	lui	ra,0xd00
    5b90:	022091b3          	mulh	gp,ra,sp
    5b94:	00120213          	addi	tp,tp,1 # 1 <reset_vec+0x1>
    5b98:	00200293          	li	t0,2
    5b9c:	fe5214e3          	bne	tp,t0,5b84 <test_23+0x4>
    5ba0:	00009eb7          	lui	t4,0x9
    5ba4:	f00e8e93          	addi	t4,t4,-256 # 8f00 <test_16+0x10>
    5ba8:	01700e13          	li	t3,23
    5bac:	0dd19063          	bne	gp,t4,5c6c <fail>

00005bb0 <test_24>:
    5bb0:	00000213          	li	tp,0
    5bb4:	00b00137          	lui	sp,0xb00
    5bb8:	00000013          	nop
    5bbc:	00e000b7          	lui	ra,0xe00
    5bc0:	00000013          	nop
    5bc4:	022091b3          	mulh	gp,ra,sp
    5bc8:	00120213          	addi	tp,tp,1 # 1 <reset_vec+0x1>
    5bcc:	00200293          	li	t0,2
    5bd0:	fe5212e3          	bne	tp,t0,5bb4 <test_24+0x4>
    5bd4:	0000aeb7          	lui	t4,0xa
    5bd8:	a00e8e93          	addi	t4,t4,-1536 # 9a00 <fail+0x10>
    5bdc:	01800e13          	li	t3,24
    5be0:	09d19663          	bne	gp,t4,5c6c <fail>

00005be4 <test_25>:
    5be4:	00000213          	li	tp,0
    5be8:	00b00137          	lui	sp,0xb00
    5bec:	00000013          	nop
    5bf0:	00000013          	nop
    5bf4:	00f000b7          	lui	ra,0xf00
    5bf8:	022091b3          	mulh	gp,ra,sp
    5bfc:	00120213          	addi	tp,tp,1 # 1 <reset_vec+0x1>
    5c00:	00200293          	li	t0,2
    5c04:	fe5212e3          	bne	tp,t0,5be8 <test_25+0x4>
    5c08:	0000aeb7          	lui	t4,0xa
    5c0c:	500e8e93          	addi	t4,t4,1280 # a500 <test_8+0x8>
    5c10:	01900e13          	li	t3,25
    5c14:	05d19c63          	bne	gp,t4,5c6c <fail>

00005c18 <test_26>:
    5c18:	7c0000b7          	lui	ra,0x7c000
    5c1c:	02101133          	mulh	sp,zero,ra
    5c20:	00000e93          	li	t4,0
    5c24:	01a00e13          	li	t3,26
    5c28:	05d11263          	bne	sp,t4,5c6c <fail>

00005c2c <test_27>:
    5c2c:	800000b7          	lui	ra,0x80000
    5c30:	02009133          	mulh	sp,ra,zero
    5c34:	00000e93          	li	t4,0
    5c38:	01b00e13          	li	t3,27
    5c3c:	03d11863          	bne	sp,t4,5c6c <fail>

00005c40 <test_28>:
    5c40:	020010b3          	mulh	ra,zero,zero
    5c44:	00000e93          	li	t4,0
    5c48:	01c00e13          	li	t3,28
    5c4c:	03d09063          	bne	ra,t4,5c6c <fail>

00005c50 <test_29>:
    5c50:	021000b7          	lui	ra,0x2100
    5c54:	02200137          	lui	sp,0x2200
    5c58:	02209033          	mulh	zero,ra,sp
    5c5c:	00000e93          	li	t4,0
    5c60:	01d00e13          	li	t3,29
    5c64:	01d01463          	bne	zero,t4,5c6c <fail>
    5c68:	05c01863          	bne	zero,t3,5cb8 <pass>

00005c6c <fail>:
    5c6c:	00000513          	li	a0,0
    5c70:	10000537          	lui	a0,0x10000
    5c74:	04500593          	li	a1,69
    5c78:	05200613          	li	a2,82
    5c7c:	04f00693          	li	a3,79
    5c80:	00b52023          	sw	a1,0(a0) # 10000000 <end+0xfff3903>
    5c84:	00c52023          	sw	a2,0(a0)
    5c88:	00c52023          	sw	a2,0(a0)
    5c8c:	00d52023          	sw	a3,0(a0)
    5c90:	00c52023          	sw	a2,0(a0)
    5c94:	030e0593          	addi	a1,t3,48
    5c98:	02000613          	li	a2,32
    5c9c:	03a00693          	li	a3,58
    5ca0:	00d52023          	sw	a3,0(a0)
    5ca4:	00c52023          	sw	a2,0(a0)
    5ca8:	00b52023          	sw	a1,0(a0)
    5cac:	00a00713          	li	a4,10
    5cb0:	00e52023          	sw	a4,0(a0)
    5cb4:	da0fa06f          	j	254 <mulh_ret>

00005cb8 <pass>:
    5cb8:	00000513          	li	a0,0
    5cbc:	10000537          	lui	a0,0x10000
    5cc0:	04f00593          	li	a1,79
    5cc4:	04b00613          	li	a2,75
    5cc8:	00a00693          	li	a3,10
    5ccc:	00b52023          	sw	a1,0(a0) # 10000000 <end+0xfff3903>
    5cd0:	00c52023          	sw	a2,0(a0)
    5cd4:	00d52023          	sw	a3,0(a0)
    5cd8:	d7cfa06f          	j	254 <mulh_ret>

00005cdc <mulhsu>:
    5cdc:	00006537          	lui	a0,0x6
    5ce0:	d0050513          	addi	a0,a0,-768 # 5d00 <.test_name>
    5ce4:	00000613          	li	a2,0
    5ce8:	10000637          	lui	a2,0x10000

00005cec <.prname_next>:
    5cec:	00050583          	lb	a1,0(a0)
    5cf0:	00058c63          	beqz	a1,5d08 <.prname_done>
    5cf4:	00b62023          	sw	a1,0(a2) # 10000000 <end+0xfff3903>
    5cf8:	00150513          	addi	a0,a0,1
    5cfc:	ff1ff06f          	j	5cec <.prname_next>

00005d00 <.test_name>:
    5d00:	686c756d          	.word	0x686c756d
    5d04:	00007573          	.word	0x00007573

00005d08 <.prname_done>:
    5d08:	00000613          	li	a2,0
    5d0c:	10000637          	lui	a2,0x10000
    5d10:	02e00593          	li	a1,46
    5d14:	00b62023          	sw	a1,0(a2) # 10000000 <end+0xfff3903>
    5d18:	00b62023          	sw	a1,0(a2)

00005d1c <test_2>:
    5d1c:	00000093          	li	ra,0
    5d20:	00000113          	li	sp,0
    5d24:	0220a1b3          	mulhsu	gp,ra,sp
    5d28:	00000e93          	li	t4,0
    5d2c:	00200e13          	li	t3,2
    5d30:	4bd19a63          	bne	gp,t4,61e4 <fail>

00005d34 <test_3>:
    5d34:	00100093          	li	ra,1
    5d38:	00100113          	li	sp,1
    5d3c:	0220a1b3          	mulhsu	gp,ra,sp
    5d40:	00000e93          	li	t4,0
    5d44:	00300e13          	li	t3,3
    5d48:	49d19e63          	bne	gp,t4,61e4 <fail>

00005d4c <test_4>:
    5d4c:	00300093          	li	ra,3
    5d50:	00700113          	li	sp,7
    5d54:	0220a1b3          	mulhsu	gp,ra,sp
    5d58:	00000e93          	li	t4,0
    5d5c:	00400e13          	li	t3,4
    5d60:	49d19263          	bne	gp,t4,61e4 <fail>

00005d64 <test_5>:
    5d64:	00000093          	li	ra,0
    5d68:	ffff8137          	lui	sp,0xffff8
    5d6c:	0220a1b3          	mulhsu	gp,ra,sp
    5d70:	00000e93          	li	t4,0
    5d74:	00500e13          	li	t3,5
    5d78:	47d19663          	bne	gp,t4,61e4 <fail>

00005d7c <test_6>:
    5d7c:	800000b7          	lui	ra,0x80000
    5d80:	00000113          	li	sp,0
    5d84:	0220a1b3          	mulhsu	gp,ra,sp
    5d88:	00000e93          	li	t4,0
    5d8c:	00600e13          	li	t3,6
    5d90:	45d19a63          	bne	gp,t4,61e4 <fail>

00005d94 <test_7>:
    5d94:	800000b7          	lui	ra,0x80000
    5d98:	ffff8137          	lui	sp,0xffff8
    5d9c:	0220a1b3          	mulhsu	gp,ra,sp
    5da0:	80004eb7          	lui	t4,0x80004
    5da4:	00700e13          	li	t3,7
    5da8:	43d19e63          	bne	gp,t4,61e4 <fail>

00005dac <test_30>:
    5dac:	aaaab0b7          	lui	ra,0xaaaab
    5db0:	aab08093          	addi	ra,ra,-1365 # aaaaaaab <end+0xaaa9e3ae>
    5db4:	00030137          	lui	sp,0x30
    5db8:	e7d10113          	addi	sp,sp,-387 # 2fe7d <end+0x23780>
    5dbc:	0220a1b3          	mulhsu	gp,ra,sp
    5dc0:	ffff0eb7          	lui	t4,0xffff0
    5dc4:	081e8e93          	addi	t4,t4,129 # ffff0081 <end+0xfffe3984>
    5dc8:	01e00e13          	li	t3,30
    5dcc:	41d19c63          	bne	gp,t4,61e4 <fail>

00005dd0 <test_31>:
    5dd0:	000300b7          	lui	ra,0x30
    5dd4:	e7d08093          	addi	ra,ra,-387 # 2fe7d <end+0x23780>
    5dd8:	aaaab137          	lui	sp,0xaaaab
    5ddc:	aab10113          	addi	sp,sp,-1365 # aaaaaaab <end+0xaaa9e3ae>
    5de0:	0220a1b3          	mulhsu	gp,ra,sp
    5de4:	00020eb7          	lui	t4,0x20
    5de8:	efee8e93          	addi	t4,t4,-258 # 1fefe <end+0x13801>
    5dec:	01f00e13          	li	t3,31
    5df0:	3fd19a63          	bne	gp,t4,61e4 <fail>

00005df4 <test_32>:
    5df4:	ff0000b7          	lui	ra,0xff000
    5df8:	ff000137          	lui	sp,0xff000
    5dfc:	0220a1b3          	mulhsu	gp,ra,sp
    5e00:	ff010eb7          	lui	t4,0xff010
    5e04:	02000e13          	li	t3,32
    5e08:	3dd19e63          	bne	gp,t4,61e4 <fail>

00005e0c <test_33>:
    5e0c:	fff00093          	li	ra,-1
    5e10:	fff00113          	li	sp,-1
    5e14:	0220a1b3          	mulhsu	gp,ra,sp
    5e18:	fff00e93          	li	t4,-1
    5e1c:	02100e13          	li	t3,33
    5e20:	3dd19263          	bne	gp,t4,61e4 <fail>

00005e24 <test_34>:
    5e24:	fff00093          	li	ra,-1
    5e28:	00100113          	li	sp,1
    5e2c:	0220a1b3          	mulhsu	gp,ra,sp
    5e30:	fff00e93          	li	t4,-1
    5e34:	02200e13          	li	t3,34
    5e38:	3bd19663          	bne	gp,t4,61e4 <fail>

00005e3c <test_35>:
    5e3c:	00100093          	li	ra,1
    5e40:	fff00113          	li	sp,-1
    5e44:	0220a1b3          	mulhsu	gp,ra,sp
    5e48:	00000e93          	li	t4,0
    5e4c:	02300e13          	li	t3,35
    5e50:	39d19a63          	bne	gp,t4,61e4 <fail>

00005e54 <test_8>:
    5e54:	00d000b7          	lui	ra,0xd00
    5e58:	00b00137          	lui	sp,0xb00
    5e5c:	0220a0b3          	mulhsu	ra,ra,sp
    5e60:	00009eb7          	lui	t4,0x9
    5e64:	f00e8e93          	addi	t4,t4,-256 # 8f00 <test_16+0x10>
    5e68:	00800e13          	li	t3,8
    5e6c:	37d09c63          	bne	ra,t4,61e4 <fail>

00005e70 <test_9>:
    5e70:	00e000b7          	lui	ra,0xe00
    5e74:	00b00137          	lui	sp,0xb00
    5e78:	0220a133          	mulhsu	sp,ra,sp
    5e7c:	0000aeb7          	lui	t4,0xa
    5e80:	a00e8e93          	addi	t4,t4,-1536 # 9a00 <fail+0x10>
    5e84:	00900e13          	li	t3,9
    5e88:	35d11e63          	bne	sp,t4,61e4 <fail>

00005e8c <test_10>:
    5e8c:	00d000b7          	lui	ra,0xd00
    5e90:	0210a0b3          	mulhsu	ra,ra,ra
    5e94:	0000beb7          	lui	t4,0xb
    5e98:	900e8e93          	addi	t4,t4,-1792 # a900 <test_36+0x4>
    5e9c:	00a00e13          	li	t3,10
    5ea0:	35d09263          	bne	ra,t4,61e4 <fail>

00005ea4 <test_11>:
    5ea4:	00000213          	li	tp,0
    5ea8:	00d000b7          	lui	ra,0xd00
    5eac:	00b00137          	lui	sp,0xb00
    5eb0:	0220a1b3          	mulhsu	gp,ra,sp
    5eb4:	00018313          	mv	t1,gp
    5eb8:	00120213          	addi	tp,tp,1 # 1 <reset_vec+0x1>
    5ebc:	00200293          	li	t0,2
    5ec0:	fe5214e3          	bne	tp,t0,5ea8 <test_11+0x4>
    5ec4:	00009eb7          	lui	t4,0x9
    5ec8:	f00e8e93          	addi	t4,t4,-256 # 8f00 <test_16+0x10>
    5ecc:	00b00e13          	li	t3,11
    5ed0:	31d31a63          	bne	t1,t4,61e4 <fail>

00005ed4 <test_12>:
    5ed4:	00000213          	li	tp,0
    5ed8:	00e000b7          	lui	ra,0xe00
    5edc:	00b00137          	lui	sp,0xb00
    5ee0:	0220a1b3          	mulhsu	gp,ra,sp
    5ee4:	00000013          	nop
    5ee8:	00018313          	mv	t1,gp
    5eec:	00120213          	addi	tp,tp,1 # 1 <reset_vec+0x1>
    5ef0:	00200293          	li	t0,2
    5ef4:	fe5212e3          	bne	tp,t0,5ed8 <test_12+0x4>
    5ef8:	0000aeb7          	lui	t4,0xa
    5efc:	a00e8e93          	addi	t4,t4,-1536 # 9a00 <fail+0x10>
    5f00:	00c00e13          	li	t3,12
    5f04:	2fd31063          	bne	t1,t4,61e4 <fail>

00005f08 <test_13>:
    5f08:	00000213          	li	tp,0
    5f0c:	00f000b7          	lui	ra,0xf00
    5f10:	00b00137          	lui	sp,0xb00
    5f14:	0220a1b3          	mulhsu	gp,ra,sp
    5f18:	00000013          	nop
    5f1c:	00000013          	nop
    5f20:	00018313          	mv	t1,gp
    5f24:	00120213          	addi	tp,tp,1 # 1 <reset_vec+0x1>
    5f28:	00200293          	li	t0,2
    5f2c:	fe5210e3          	bne	tp,t0,5f0c <test_13+0x4>
    5f30:	0000aeb7          	lui	t4,0xa
    5f34:	500e8e93          	addi	t4,t4,1280 # a500 <test_8+0x8>
    5f38:	00d00e13          	li	t3,13
    5f3c:	2bd31463          	bne	t1,t4,61e4 <fail>

00005f40 <test_14>:
    5f40:	00000213          	li	tp,0
    5f44:	00d000b7          	lui	ra,0xd00
    5f48:	00b00137          	lui	sp,0xb00
    5f4c:	0220a1b3          	mulhsu	gp,ra,sp
    5f50:	00120213          	addi	tp,tp,1 # 1 <reset_vec+0x1>
    5f54:	00200293          	li	t0,2
    5f58:	fe5216e3          	bne	tp,t0,5f44 <test_14+0x4>
    5f5c:	00009eb7          	lui	t4,0x9
    5f60:	f00e8e93          	addi	t4,t4,-256 # 8f00 <test_16+0x10>
    5f64:	00e00e13          	li	t3,14
    5f68:	27d19e63          	bne	gp,t4,61e4 <fail>

00005f6c <test_15>:
    5f6c:	00000213          	li	tp,0
    5f70:	00e000b7          	lui	ra,0xe00
    5f74:	00b00137          	lui	sp,0xb00
    5f78:	00000013          	nop
    5f7c:	0220a1b3          	mulhsu	gp,ra,sp
    5f80:	00120213          	addi	tp,tp,1 # 1 <reset_vec+0x1>
    5f84:	00200293          	li	t0,2
    5f88:	fe5214e3          	bne	tp,t0,5f70 <test_15+0x4>
    5f8c:	0000aeb7          	lui	t4,0xa
    5f90:	a00e8e93          	addi	t4,t4,-1536 # 9a00 <fail+0x10>
    5f94:	00f00e13          	li	t3,15
    5f98:	25d19663          	bne	gp,t4,61e4 <fail>

00005f9c <test_16>:
    5f9c:	00000213          	li	tp,0
    5fa0:	00f000b7          	lui	ra,0xf00
    5fa4:	00b00137          	lui	sp,0xb00
    5fa8:	00000013          	nop
    5fac:	00000013          	nop
    5fb0:	0220a1b3          	mulhsu	gp,ra,sp
    5fb4:	00120213          	addi	tp,tp,1 # 1 <reset_vec+0x1>
    5fb8:	00200293          	li	t0,2
    5fbc:	fe5212e3          	bne	tp,t0,5fa0 <test_16+0x4>
    5fc0:	0000aeb7          	lui	t4,0xa
    5fc4:	500e8e93          	addi	t4,t4,1280 # a500 <test_8+0x8>
    5fc8:	01000e13          	li	t3,16
    5fcc:	21d19c63          	bne	gp,t4,61e4 <fail>

00005fd0 <test_17>:
    5fd0:	00000213          	li	tp,0
    5fd4:	00d000b7          	lui	ra,0xd00
    5fd8:	00000013          	nop
    5fdc:	00b00137          	lui	sp,0xb00
    5fe0:	0220a1b3          	mulhsu	gp,ra,sp
    5fe4:	00120213          	addi	tp,tp,1 # 1 <reset_vec+0x1>
    5fe8:	00200293          	li	t0,2
    5fec:	fe5214e3          	bne	tp,t0,5fd4 <test_17+0x4>
    5ff0:	00009eb7          	lui	t4,0x9
    5ff4:	f00e8e93          	addi	t4,t4,-256 # 8f00 <test_16+0x10>
    5ff8:	01100e13          	li	t3,17
    5ffc:	1fd19463          	bne	gp,t4,61e4 <fail>

00006000 <test_18>:
    6000:	00000213          	li	tp,0
    6004:	00e000b7          	lui	ra,0xe00
    6008:	00000013          	nop
    600c:	00b00137          	lui	sp,0xb00
    6010:	00000013          	nop
    6014:	0220a1b3          	mulhsu	gp,ra,sp
    6018:	00120213          	addi	tp,tp,1 # 1 <reset_vec+0x1>
    601c:	00200293          	li	t0,2
    6020:	fe5212e3          	bne	tp,t0,6004 <test_18+0x4>
    6024:	0000aeb7          	lui	t4,0xa
    6028:	a00e8e93          	addi	t4,t4,-1536 # 9a00 <fail+0x10>
    602c:	01200e13          	li	t3,18
    6030:	1bd19a63          	bne	gp,t4,61e4 <fail>

00006034 <test_19>:
    6034:	00000213          	li	tp,0
    6038:	00f000b7          	lui	ra,0xf00
    603c:	00000013          	nop
    6040:	00000013          	nop
    6044:	00b00137          	lui	sp,0xb00
    6048:	0220a1b3          	mulhsu	gp,ra,sp
    604c:	00120213          	addi	tp,tp,1 # 1 <reset_vec+0x1>
    6050:	00200293          	li	t0,2
    6054:	fe5212e3          	bne	tp,t0,6038 <test_19+0x4>
    6058:	0000aeb7          	lui	t4,0xa
    605c:	500e8e93          	addi	t4,t4,1280 # a500 <test_8+0x8>
    6060:	01300e13          	li	t3,19
    6064:	19d19063          	bne	gp,t4,61e4 <fail>

00006068 <test_20>:
    6068:	00000213          	li	tp,0
    606c:	00b00137          	lui	sp,0xb00
    6070:	00d000b7          	lui	ra,0xd00
    6074:	0220a1b3          	mulhsu	gp,ra,sp
    6078:	00120213          	addi	tp,tp,1 # 1 <reset_vec+0x1>
    607c:	00200293          	li	t0,2
    6080:	fe5216e3          	bne	tp,t0,606c <test_20+0x4>
    6084:	00009eb7          	lui	t4,0x9
    6088:	f00e8e93          	addi	t4,t4,-256 # 8f00 <test_16+0x10>
    608c:	01400e13          	li	t3,20
    6090:	15d19a63          	bne	gp,t4,61e4 <fail>

00006094 <test_21>:
    6094:	00000213          	li	tp,0
    6098:	00b00137          	lui	sp,0xb00
    609c:	00e000b7          	lui	ra,0xe00
    60a0:	00000013          	nop
    60a4:	0220a1b3          	mulhsu	gp,ra,sp
    60a8:	00120213          	addi	tp,tp,1 # 1 <reset_vec+0x1>
    60ac:	00200293          	li	t0,2
    60b0:	fe5214e3          	bne	tp,t0,6098 <test_21+0x4>
    60b4:	0000aeb7          	lui	t4,0xa
    60b8:	a00e8e93          	addi	t4,t4,-1536 # 9a00 <fail+0x10>
    60bc:	01500e13          	li	t3,21
    60c0:	13d19263          	bne	gp,t4,61e4 <fail>

000060c4 <test_22>:
    60c4:	00000213          	li	tp,0
    60c8:	00b00137          	lui	sp,0xb00
    60cc:	00f000b7          	lui	ra,0xf00
    60d0:	00000013          	nop
    60d4:	00000013          	nop
    60d8:	0220a1b3          	mulhsu	gp,ra,sp
    60dc:	00120213          	addi	tp,tp,1 # 1 <reset_vec+0x1>
    60e0:	00200293          	li	t0,2
    60e4:	fe5212e3          	bne	tp,t0,60c8 <test_22+0x4>
    60e8:	0000aeb7          	lui	t4,0xa
    60ec:	500e8e93          	addi	t4,t4,1280 # a500 <test_8+0x8>
    60f0:	01600e13          	li	t3,22
    60f4:	0fd19863          	bne	gp,t4,61e4 <fail>

000060f8 <test_23>:
    60f8:	00000213          	li	tp,0
    60fc:	00b00137          	lui	sp,0xb00
    6100:	00000013          	nop
    6104:	00d000b7          	lui	ra,0xd00
    6108:	0220a1b3          	mulhsu	gp,ra,sp
    610c:	00120213          	addi	tp,tp,1 # 1 <reset_vec+0x1>
    6110:	00200293          	li	t0,2
    6114:	fe5214e3          	bne	tp,t0,60fc <test_23+0x4>
    6118:	00009eb7          	lui	t4,0x9
    611c:	f00e8e93          	addi	t4,t4,-256 # 8f00 <test_16+0x10>
    6120:	01700e13          	li	t3,23
    6124:	0dd19063          	bne	gp,t4,61e4 <fail>

00006128 <test_24>:
    6128:	00000213          	li	tp,0
    612c:	00b00137          	lui	sp,0xb00
    6130:	00000013          	nop
    6134:	00e000b7          	lui	ra,0xe00
    6138:	00000013          	nop
    613c:	0220a1b3          	mulhsu	gp,ra,sp
    6140:	00120213          	addi	tp,tp,1 # 1 <reset_vec+0x1>
    6144:	00200293          	li	t0,2
    6148:	fe5212e3          	bne	tp,t0,612c <test_24+0x4>
    614c:	0000aeb7          	lui	t4,0xa
    6150:	a00e8e93          	addi	t4,t4,-1536 # 9a00 <fail+0x10>
    6154:	01800e13          	li	t3,24
    6158:	09d19663          	bne	gp,t4,61e4 <fail>

0000615c <test_25>:
    615c:	00000213          	li	tp,0
    6160:	00b00137          	lui	sp,0xb00
    6164:	00000013          	nop
    6168:	00000013          	nop
    616c:	00f000b7          	lui	ra,0xf00
    6170:	0220a1b3          	mulhsu	gp,ra,sp
    6174:	00120213          	addi	tp,tp,1 # 1 <reset_vec+0x1>
    6178:	00200293          	li	t0,2
    617c:	fe5212e3          	bne	tp,t0,6160 <test_25+0x4>
    6180:	0000aeb7          	lui	t4,0xa
    6184:	500e8e93          	addi	t4,t4,1280 # a500 <test_8+0x8>
    6188:	01900e13          	li	t3,25
    618c:	05d19c63          	bne	gp,t4,61e4 <fail>

00006190 <test_26>:
    6190:	7c0000b7          	lui	ra,0x7c000
    6194:	02102133          	mulhsu	sp,zero,ra
    6198:	00000e93          	li	t4,0
    619c:	01a00e13          	li	t3,26
    61a0:	05d11263          	bne	sp,t4,61e4 <fail>

000061a4 <test_27>:
    61a4:	800000b7          	lui	ra,0x80000
    61a8:	0200a133          	mulhsu	sp,ra,zero
    61ac:	00000e93          	li	t4,0
    61b0:	01b00e13          	li	t3,27
    61b4:	03d11863          	bne	sp,t4,61e4 <fail>

000061b8 <test_28>:
    61b8:	020020b3          	mulhsu	ra,zero,zero
    61bc:	00000e93          	li	t4,0
    61c0:	01c00e13          	li	t3,28
    61c4:	03d09063          	bne	ra,t4,61e4 <fail>

000061c8 <test_29>:
    61c8:	021000b7          	lui	ra,0x2100
    61cc:	02200137          	lui	sp,0x2200
    61d0:	0220a033          	mulhsu	zero,ra,sp
    61d4:	00000e93          	li	t4,0
    61d8:	01d00e13          	li	t3,29
    61dc:	01d01463          	bne	zero,t4,61e4 <fail>
    61e0:	05c01863          	bne	zero,t3,6230 <pass>

000061e4 <fail>:
    61e4:	00000513          	li	a0,0
    61e8:	10000537          	lui	a0,0x10000
    61ec:	04500593          	li	a1,69
    61f0:	05200613          	li	a2,82
    61f4:	04f00693          	li	a3,79
    61f8:	00b52023          	sw	a1,0(a0) # 10000000 <end+0xfff3903>
    61fc:	00c52023          	sw	a2,0(a0)
    6200:	00c52023          	sw	a2,0(a0)
    6204:	00d52023          	sw	a3,0(a0)
    6208:	00c52023          	sw	a2,0(a0)
    620c:	030e0593          	addi	a1,t3,48
    6210:	02000613          	li	a2,32
    6214:	03a00693          	li	a3,58
    6218:	00d52023          	sw	a3,0(a0)
    621c:	00c52023          	sw	a2,0(a0)
    6220:	00b52023          	sw	a1,0(a0)
    6224:	00a00713          	li	a4,10
    6228:	00e52023          	sw	a4,0(a0)
    622c:	830fa06f          	j	25c <mulhsu_ret>

00006230 <pass>:
    6230:	00000513          	li	a0,0
    6234:	10000537          	lui	a0,0x10000
    6238:	04f00593          	li	a1,79
    623c:	04b00613          	li	a2,75
    6240:	00a00693          	li	a3,10
    6244:	00b52023          	sw	a1,0(a0) # 10000000 <end+0xfff3903>
    6248:	00c52023          	sw	a2,0(a0)
    624c:	00d52023          	sw	a3,0(a0)
    6250:	80cfa06f          	j	25c <mulhsu_ret>

00006254 <mulhu>:
    6254:	00006537          	lui	a0,0x6
    6258:	27850513          	addi	a0,a0,632 # 6278 <.test_name>
    625c:	00000613          	li	a2,0
    6260:	10000637          	lui	a2,0x10000

00006264 <.prname_next>:
    6264:	00050583          	lb	a1,0(a0)
    6268:	00058c63          	beqz	a1,6280 <.prname_done>
    626c:	00b62023          	sw	a1,0(a2) # 10000000 <end+0xfff3903>
    6270:	00150513          	addi	a0,a0,1
    6274:	ff1ff06f          	j	6264 <.prname_next>

00006278 <.test_name>:
    6278:	686c756d          	.word	0x686c756d
    627c:	00000075          	.word	0x00000075

00006280 <.prname_done>:
    6280:	00000613          	li	a2,0
    6284:	10000637          	lui	a2,0x10000
    6288:	02e00593          	li	a1,46
    628c:	00b62023          	sw	a1,0(a2) # 10000000 <end+0xfff3903>
    6290:	00b62023          	sw	a1,0(a2)

00006294 <test_2>:
    6294:	00000093          	li	ra,0
    6298:	00000113          	li	sp,0
    629c:	0220b1b3          	mulhu	gp,ra,sp
    62a0:	00000e93          	li	t4,0
    62a4:	00200e13          	li	t3,2
    62a8:	4bd19a63          	bne	gp,t4,675c <fail>

000062ac <test_3>:
    62ac:	00100093          	li	ra,1
    62b0:	00100113          	li	sp,1
    62b4:	0220b1b3          	mulhu	gp,ra,sp
    62b8:	00000e93          	li	t4,0
    62bc:	00300e13          	li	t3,3
    62c0:	49d19e63          	bne	gp,t4,675c <fail>

000062c4 <test_4>:
    62c4:	00300093          	li	ra,3
    62c8:	00700113          	li	sp,7
    62cc:	0220b1b3          	mulhu	gp,ra,sp
    62d0:	00000e93          	li	t4,0
    62d4:	00400e13          	li	t3,4
    62d8:	49d19263          	bne	gp,t4,675c <fail>

000062dc <test_5>:
    62dc:	00000093          	li	ra,0
    62e0:	ffff8137          	lui	sp,0xffff8
    62e4:	0220b1b3          	mulhu	gp,ra,sp
    62e8:	00000e93          	li	t4,0
    62ec:	00500e13          	li	t3,5
    62f0:	47d19663          	bne	gp,t4,675c <fail>

000062f4 <test_6>:
    62f4:	800000b7          	lui	ra,0x80000
    62f8:	00000113          	li	sp,0
    62fc:	0220b1b3          	mulhu	gp,ra,sp
    6300:	00000e93          	li	t4,0
    6304:	00600e13          	li	t3,6
    6308:	45d19a63          	bne	gp,t4,675c <fail>

0000630c <test_7>:
    630c:	800000b7          	lui	ra,0x80000
    6310:	ffff8137          	lui	sp,0xffff8
    6314:	0220b1b3          	mulhu	gp,ra,sp
    6318:	7fffceb7          	lui	t4,0x7fffc
    631c:	00700e13          	li	t3,7
    6320:	43d19e63          	bne	gp,t4,675c <fail>

00006324 <test_30>:
    6324:	aaaab0b7          	lui	ra,0xaaaab
    6328:	aab08093          	addi	ra,ra,-1365 # aaaaaaab <end+0xaaa9e3ae>
    632c:	00030137          	lui	sp,0x30
    6330:	e7d10113          	addi	sp,sp,-387 # 2fe7d <end+0x23780>
    6334:	0220b1b3          	mulhu	gp,ra,sp
    6338:	00020eb7          	lui	t4,0x20
    633c:	efee8e93          	addi	t4,t4,-258 # 1fefe <end+0x13801>
    6340:	01e00e13          	li	t3,30
    6344:	41d19c63          	bne	gp,t4,675c <fail>

00006348 <test_31>:
    6348:	000300b7          	lui	ra,0x30
    634c:	e7d08093          	addi	ra,ra,-387 # 2fe7d <end+0x23780>
    6350:	aaaab137          	lui	sp,0xaaaab
    6354:	aab10113          	addi	sp,sp,-1365 # aaaaaaab <end+0xaaa9e3ae>
    6358:	0220b1b3          	mulhu	gp,ra,sp
    635c:	00020eb7          	lui	t4,0x20
    6360:	efee8e93          	addi	t4,t4,-258 # 1fefe <end+0x13801>
    6364:	01f00e13          	li	t3,31
    6368:	3fd19a63          	bne	gp,t4,675c <fail>

0000636c <test_32>:
    636c:	ff0000b7          	lui	ra,0xff000
    6370:	ff000137          	lui	sp,0xff000
    6374:	0220b1b3          	mulhu	gp,ra,sp
    6378:	fe010eb7          	lui	t4,0xfe010
    637c:	02000e13          	li	t3,32
    6380:	3dd19e63          	bne	gp,t4,675c <fail>

00006384 <test_33>:
    6384:	fff00093          	li	ra,-1
    6388:	fff00113          	li	sp,-1
    638c:	0220b1b3          	mulhu	gp,ra,sp
    6390:	ffe00e93          	li	t4,-2
    6394:	02100e13          	li	t3,33
    6398:	3dd19263          	bne	gp,t4,675c <fail>

0000639c <test_34>:
    639c:	fff00093          	li	ra,-1
    63a0:	00100113          	li	sp,1
    63a4:	0220b1b3          	mulhu	gp,ra,sp
    63a8:	00000e93          	li	t4,0
    63ac:	02200e13          	li	t3,34
    63b0:	3bd19663          	bne	gp,t4,675c <fail>

000063b4 <test_35>:
    63b4:	00100093          	li	ra,1
    63b8:	fff00113          	li	sp,-1
    63bc:	0220b1b3          	mulhu	gp,ra,sp
    63c0:	00000e93          	li	t4,0
    63c4:	02300e13          	li	t3,35
    63c8:	39d19a63          	bne	gp,t4,675c <fail>

000063cc <test_8>:
    63cc:	00d000b7          	lui	ra,0xd00
    63d0:	00b00137          	lui	sp,0xb00
    63d4:	0220b0b3          	mulhu	ra,ra,sp
    63d8:	00009eb7          	lui	t4,0x9
    63dc:	f00e8e93          	addi	t4,t4,-256 # 8f00 <test_16+0x10>
    63e0:	00800e13          	li	t3,8
    63e4:	37d09c63          	bne	ra,t4,675c <fail>

000063e8 <test_9>:
    63e8:	00e000b7          	lui	ra,0xe00
    63ec:	00b00137          	lui	sp,0xb00
    63f0:	0220b133          	mulhu	sp,ra,sp
    63f4:	0000aeb7          	lui	t4,0xa
    63f8:	a00e8e93          	addi	t4,t4,-1536 # 9a00 <fail+0x10>
    63fc:	00900e13          	li	t3,9
    6400:	35d11e63          	bne	sp,t4,675c <fail>

00006404 <test_10>:
    6404:	00d000b7          	lui	ra,0xd00
    6408:	0210b0b3          	mulhu	ra,ra,ra
    640c:	0000beb7          	lui	t4,0xb
    6410:	900e8e93          	addi	t4,t4,-1792 # a900 <test_36+0x4>
    6414:	00a00e13          	li	t3,10
    6418:	35d09263          	bne	ra,t4,675c <fail>

0000641c <test_11>:
    641c:	00000213          	li	tp,0
    6420:	00d000b7          	lui	ra,0xd00
    6424:	00b00137          	lui	sp,0xb00
    6428:	0220b1b3          	mulhu	gp,ra,sp
    642c:	00018313          	mv	t1,gp
    6430:	00120213          	addi	tp,tp,1 # 1 <reset_vec+0x1>
    6434:	00200293          	li	t0,2
    6438:	fe5214e3          	bne	tp,t0,6420 <test_11+0x4>
    643c:	00009eb7          	lui	t4,0x9
    6440:	f00e8e93          	addi	t4,t4,-256 # 8f00 <test_16+0x10>
    6444:	00b00e13          	li	t3,11
    6448:	31d31a63          	bne	t1,t4,675c <fail>

0000644c <test_12>:
    644c:	00000213          	li	tp,0
    6450:	00e000b7          	lui	ra,0xe00
    6454:	00b00137          	lui	sp,0xb00
    6458:	0220b1b3          	mulhu	gp,ra,sp
    645c:	00000013          	nop
    6460:	00018313          	mv	t1,gp
    6464:	00120213          	addi	tp,tp,1 # 1 <reset_vec+0x1>
    6468:	00200293          	li	t0,2
    646c:	fe5212e3          	bne	tp,t0,6450 <test_12+0x4>
    6470:	0000aeb7          	lui	t4,0xa
    6474:	a00e8e93          	addi	t4,t4,-1536 # 9a00 <fail+0x10>
    6478:	00c00e13          	li	t3,12
    647c:	2fd31063          	bne	t1,t4,675c <fail>

00006480 <test_13>:
    6480:	00000213          	li	tp,0
    6484:	00f000b7          	lui	ra,0xf00
    6488:	00b00137          	lui	sp,0xb00
    648c:	0220b1b3          	mulhu	gp,ra,sp
    6490:	00000013          	nop
    6494:	00000013          	nop
    6498:	00018313          	mv	t1,gp
    649c:	00120213          	addi	tp,tp,1 # 1 <reset_vec+0x1>
    64a0:	00200293          	li	t0,2
    64a4:	fe5210e3          	bne	tp,t0,6484 <test_13+0x4>
    64a8:	0000aeb7          	lui	t4,0xa
    64ac:	500e8e93          	addi	t4,t4,1280 # a500 <test_8+0x8>
    64b0:	00d00e13          	li	t3,13
    64b4:	2bd31463          	bne	t1,t4,675c <fail>

000064b8 <test_14>:
    64b8:	00000213          	li	tp,0
    64bc:	00d000b7          	lui	ra,0xd00
    64c0:	00b00137          	lui	sp,0xb00
    64c4:	0220b1b3          	mulhu	gp,ra,sp
    64c8:	00120213          	addi	tp,tp,1 # 1 <reset_vec+0x1>
    64cc:	00200293          	li	t0,2
    64d0:	fe5216e3          	bne	tp,t0,64bc <test_14+0x4>
    64d4:	00009eb7          	lui	t4,0x9
    64d8:	f00e8e93          	addi	t4,t4,-256 # 8f00 <test_16+0x10>
    64dc:	00e00e13          	li	t3,14
    64e0:	27d19e63          	bne	gp,t4,675c <fail>

000064e4 <test_15>:
    64e4:	00000213          	li	tp,0
    64e8:	00e000b7          	lui	ra,0xe00
    64ec:	00b00137          	lui	sp,0xb00
    64f0:	00000013          	nop
    64f4:	0220b1b3          	mulhu	gp,ra,sp
    64f8:	00120213          	addi	tp,tp,1 # 1 <reset_vec+0x1>
    64fc:	00200293          	li	t0,2
    6500:	fe5214e3          	bne	tp,t0,64e8 <test_15+0x4>
    6504:	0000aeb7          	lui	t4,0xa
    6508:	a00e8e93          	addi	t4,t4,-1536 # 9a00 <fail+0x10>
    650c:	00f00e13          	li	t3,15
    6510:	25d19663          	bne	gp,t4,675c <fail>

00006514 <test_16>:
    6514:	00000213          	li	tp,0
    6518:	00f000b7          	lui	ra,0xf00
    651c:	00b00137          	lui	sp,0xb00
    6520:	00000013          	nop
    6524:	00000013          	nop
    6528:	0220b1b3          	mulhu	gp,ra,sp
    652c:	00120213          	addi	tp,tp,1 # 1 <reset_vec+0x1>
    6530:	00200293          	li	t0,2
    6534:	fe5212e3          	bne	tp,t0,6518 <test_16+0x4>
    6538:	0000aeb7          	lui	t4,0xa
    653c:	500e8e93          	addi	t4,t4,1280 # a500 <test_8+0x8>
    6540:	01000e13          	li	t3,16
    6544:	21d19c63          	bne	gp,t4,675c <fail>

00006548 <test_17>:
    6548:	00000213          	li	tp,0
    654c:	00d000b7          	lui	ra,0xd00
    6550:	00000013          	nop
    6554:	00b00137          	lui	sp,0xb00
    6558:	0220b1b3          	mulhu	gp,ra,sp
    655c:	00120213          	addi	tp,tp,1 # 1 <reset_vec+0x1>
    6560:	00200293          	li	t0,2
    6564:	fe5214e3          	bne	tp,t0,654c <test_17+0x4>
    6568:	00009eb7          	lui	t4,0x9
    656c:	f00e8e93          	addi	t4,t4,-256 # 8f00 <test_16+0x10>
    6570:	01100e13          	li	t3,17
    6574:	1fd19463          	bne	gp,t4,675c <fail>

00006578 <test_18>:
    6578:	00000213          	li	tp,0
    657c:	00e000b7          	lui	ra,0xe00
    6580:	00000013          	nop
    6584:	00b00137          	lui	sp,0xb00
    6588:	00000013          	nop
    658c:	0220b1b3          	mulhu	gp,ra,sp
    6590:	00120213          	addi	tp,tp,1 # 1 <reset_vec+0x1>
    6594:	00200293          	li	t0,2
    6598:	fe5212e3          	bne	tp,t0,657c <test_18+0x4>
    659c:	0000aeb7          	lui	t4,0xa
    65a0:	a00e8e93          	addi	t4,t4,-1536 # 9a00 <fail+0x10>
    65a4:	01200e13          	li	t3,18
    65a8:	1bd19a63          	bne	gp,t4,675c <fail>

000065ac <test_19>:
    65ac:	00000213          	li	tp,0
    65b0:	00f000b7          	lui	ra,0xf00
    65b4:	00000013          	nop
    65b8:	00000013          	nop
    65bc:	00b00137          	lui	sp,0xb00
    65c0:	0220b1b3          	mulhu	gp,ra,sp
    65c4:	00120213          	addi	tp,tp,1 # 1 <reset_vec+0x1>
    65c8:	00200293          	li	t0,2
    65cc:	fe5212e3          	bne	tp,t0,65b0 <test_19+0x4>
    65d0:	0000aeb7          	lui	t4,0xa
    65d4:	500e8e93          	addi	t4,t4,1280 # a500 <test_8+0x8>
    65d8:	01300e13          	li	t3,19
    65dc:	19d19063          	bne	gp,t4,675c <fail>

000065e0 <test_20>:
    65e0:	00000213          	li	tp,0
    65e4:	00b00137          	lui	sp,0xb00
    65e8:	00d000b7          	lui	ra,0xd00
    65ec:	0220b1b3          	mulhu	gp,ra,sp
    65f0:	00120213          	addi	tp,tp,1 # 1 <reset_vec+0x1>
    65f4:	00200293          	li	t0,2
    65f8:	fe5216e3          	bne	tp,t0,65e4 <test_20+0x4>
    65fc:	00009eb7          	lui	t4,0x9
    6600:	f00e8e93          	addi	t4,t4,-256 # 8f00 <test_16+0x10>
    6604:	01400e13          	li	t3,20
    6608:	15d19a63          	bne	gp,t4,675c <fail>

0000660c <test_21>:
    660c:	00000213          	li	tp,0
    6610:	00b00137          	lui	sp,0xb00
    6614:	00e000b7          	lui	ra,0xe00
    6618:	00000013          	nop
    661c:	0220b1b3          	mulhu	gp,ra,sp
    6620:	00120213          	addi	tp,tp,1 # 1 <reset_vec+0x1>
    6624:	00200293          	li	t0,2
    6628:	fe5214e3          	bne	tp,t0,6610 <test_21+0x4>
    662c:	0000aeb7          	lui	t4,0xa
    6630:	a00e8e93          	addi	t4,t4,-1536 # 9a00 <fail+0x10>
    6634:	01500e13          	li	t3,21
    6638:	13d19263          	bne	gp,t4,675c <fail>

0000663c <test_22>:
    663c:	00000213          	li	tp,0
    6640:	00b00137          	lui	sp,0xb00
    6644:	00f000b7          	lui	ra,0xf00
    6648:	00000013          	nop
    664c:	00000013          	nop
    6650:	0220b1b3          	mulhu	gp,ra,sp
    6654:	00120213          	addi	tp,tp,1 # 1 <reset_vec+0x1>
    6658:	00200293          	li	t0,2
    665c:	fe5212e3          	bne	tp,t0,6640 <test_22+0x4>
    6660:	0000aeb7          	lui	t4,0xa
    6664:	500e8e93          	addi	t4,t4,1280 # a500 <test_8+0x8>
    6668:	01600e13          	li	t3,22
    666c:	0fd19863          	bne	gp,t4,675c <fail>

00006670 <test_23>:
    6670:	00000213          	li	tp,0
    6674:	00b00137          	lui	sp,0xb00
    6678:	00000013          	nop
    667c:	00d000b7          	lui	ra,0xd00
    6680:	0220b1b3          	mulhu	gp,ra,sp
    6684:	00120213          	addi	tp,tp,1 # 1 <reset_vec+0x1>
    6688:	00200293          	li	t0,2
    668c:	fe5214e3          	bne	tp,t0,6674 <test_23+0x4>
    6690:	00009eb7          	lui	t4,0x9
    6694:	f00e8e93          	addi	t4,t4,-256 # 8f00 <test_16+0x10>
    6698:	01700e13          	li	t3,23
    669c:	0dd19063          	bne	gp,t4,675c <fail>

000066a0 <test_24>:
    66a0:	00000213          	li	tp,0
    66a4:	00b00137          	lui	sp,0xb00
    66a8:	00000013          	nop
    66ac:	00e000b7          	lui	ra,0xe00
    66b0:	00000013          	nop
    66b4:	0220b1b3          	mulhu	gp,ra,sp
    66b8:	00120213          	addi	tp,tp,1 # 1 <reset_vec+0x1>
    66bc:	00200293          	li	t0,2
    66c0:	fe5212e3          	bne	tp,t0,66a4 <test_24+0x4>
    66c4:	0000aeb7          	lui	t4,0xa
    66c8:	a00e8e93          	addi	t4,t4,-1536 # 9a00 <fail+0x10>
    66cc:	01800e13          	li	t3,24
    66d0:	09d19663          	bne	gp,t4,675c <fail>

000066d4 <test_25>:
    66d4:	00000213          	li	tp,0
    66d8:	00b00137          	lui	sp,0xb00
    66dc:	00000013          	nop
    66e0:	00000013          	nop
    66e4:	00f000b7          	lui	ra,0xf00
    66e8:	0220b1b3          	mulhu	gp,ra,sp
    66ec:	00120213          	addi	tp,tp,1 # 1 <reset_vec+0x1>
    66f0:	00200293          	li	t0,2
    66f4:	fe5212e3          	bne	tp,t0,66d8 <test_25+0x4>
    66f8:	0000aeb7          	lui	t4,0xa
    66fc:	500e8e93          	addi	t4,t4,1280 # a500 <test_8+0x8>
    6700:	01900e13          	li	t3,25
    6704:	05d19c63          	bne	gp,t4,675c <fail>

00006708 <test_26>:
    6708:	7c0000b7          	lui	ra,0x7c000
    670c:	02103133          	mulhu	sp,zero,ra
    6710:	00000e93          	li	t4,0
    6714:	01a00e13          	li	t3,26
    6718:	05d11263          	bne	sp,t4,675c <fail>

0000671c <test_27>:
    671c:	800000b7          	lui	ra,0x80000
    6720:	0200b133          	mulhu	sp,ra,zero
    6724:	00000e93          	li	t4,0
    6728:	01b00e13          	li	t3,27
    672c:	03d11863          	bne	sp,t4,675c <fail>

00006730 <test_28>:
    6730:	020030b3          	mulhu	ra,zero,zero
    6734:	00000e93          	li	t4,0
    6738:	01c00e13          	li	t3,28
    673c:	03d09063          	bne	ra,t4,675c <fail>

00006740 <test_29>:
    6740:	021000b7          	lui	ra,0x2100
    6744:	02200137          	lui	sp,0x2200
    6748:	0220b033          	mulhu	zero,ra,sp
    674c:	00000e93          	li	t4,0
    6750:	01d00e13          	li	t3,29
    6754:	01d01463          	bne	zero,t4,675c <fail>
    6758:	05c01863          	bne	zero,t3,67a8 <pass>

0000675c <fail>:
    675c:	00000513          	li	a0,0
    6760:	10000537          	lui	a0,0x10000
    6764:	04500593          	li	a1,69
    6768:	05200613          	li	a2,82
    676c:	04f00693          	li	a3,79
    6770:	00b52023          	sw	a1,0(a0) # 10000000 <end+0xfff3903>
    6774:	00c52023          	sw	a2,0(a0)
    6778:	00c52023          	sw	a2,0(a0)
    677c:	00d52023          	sw	a3,0(a0)
    6780:	00c52023          	sw	a2,0(a0)
    6784:	030e0593          	addi	a1,t3,48
    6788:	02000613          	li	a2,32
    678c:	03a00693          	li	a3,58
    6790:	00d52023          	sw	a3,0(a0)
    6794:	00c52023          	sw	a2,0(a0)
    6798:	00b52023          	sw	a1,0(a0)
    679c:	00a00713          	li	a4,10
    67a0:	00e52023          	sw	a4,0(a0)
    67a4:	ac1f906f          	j	264 <mulhu_ret>

000067a8 <pass>:
    67a8:	00000513          	li	a0,0
    67ac:	10000537          	lui	a0,0x10000
    67b0:	04f00593          	li	a1,79
    67b4:	04b00613          	li	a2,75
    67b8:	00a00693          	li	a3,10
    67bc:	00b52023          	sw	a1,0(a0) # 10000000 <end+0xfff3903>
    67c0:	00c52023          	sw	a2,0(a0)
    67c4:	00d52023          	sw	a3,0(a0)
    67c8:	a9df906f          	j	264 <mulhu_ret>

000067cc <or>:
    67cc:	00006537          	lui	a0,0x6
    67d0:	7f050513          	addi	a0,a0,2032 # 67f0 <.test_name>
    67d4:	00000613          	li	a2,0
    67d8:	10000637          	lui	a2,0x10000

000067dc <.prname_next>:
    67dc:	00050583          	lb	a1,0(a0)
    67e0:	00058a63          	beqz	a1,67f4 <.prname_done>
    67e4:	00b62023          	sw	a1,0(a2) # 10000000 <end+0xfff3903>
    67e8:	00150513          	addi	a0,a0,1
    67ec:	ff1ff06f          	j	67dc <.prname_next>

000067f0 <.test_name>:
    67f0:	0000726f          	.word	0x0000726f

000067f4 <.prname_done>:
    67f4:	00000613          	li	a2,0
    67f8:	10000637          	lui	a2,0x10000
    67fc:	02e00593          	li	a1,46
    6800:	00b62023          	sw	a1,0(a2) # 10000000 <end+0xfff3903>
    6804:	00b62023          	sw	a1,0(a2)

00006808 <test_2>:
    6808:	ff0100b7          	lui	ra,0xff010
    680c:	f0008093          	addi	ra,ra,-256 # ff00ff00 <end+0xff003803>
    6810:	0f0f1137          	lui	sp,0xf0f1
    6814:	f0f10113          	addi	sp,sp,-241 # f0f0f0f <end+0xf0e4812>
    6818:	0020e1b3          	or	gp,ra,sp
    681c:	ff100eb7          	lui	t4,0xff100
    6820:	f0fe8e93          	addi	t4,t4,-241 # ff0fff0f <end+0xff0f3812>
    6824:	00200e13          	li	t3,2
    6828:	4bd19263          	bne	gp,t4,6ccc <fail>

0000682c <test_3>:
    682c:	0ff010b7          	lui	ra,0xff01
    6830:	ff008093          	addi	ra,ra,-16 # ff00ff0 <end+0xfef48f3>
    6834:	f0f0f137          	lui	sp,0xf0f0f
    6838:	0f010113          	addi	sp,sp,240 # f0f0f0f0 <end+0xf0f029f3>
    683c:	0020e1b3          	or	gp,ra,sp
    6840:	fff10eb7          	lui	t4,0xfff10
    6844:	ff0e8e93          	addi	t4,t4,-16 # fff0fff0 <end+0xfff038f3>
    6848:	00300e13          	li	t3,3
    684c:	49d19063          	bne	gp,t4,6ccc <fail>

00006850 <test_4>:
    6850:	00ff00b7          	lui	ra,0xff0
    6854:	0ff08093          	addi	ra,ra,255 # ff00ff <end+0xfe3a02>
    6858:	0f0f1137          	lui	sp,0xf0f1
    685c:	f0f10113          	addi	sp,sp,-241 # f0f0f0f <end+0xf0e4812>
    6860:	0020e1b3          	or	gp,ra,sp
    6864:	0fff1eb7          	lui	t4,0xfff1
    6868:	fffe8e93          	addi	t4,t4,-1 # fff0fff <end+0xffe4902>
    686c:	00400e13          	li	t3,4
    6870:	45d19e63          	bne	gp,t4,6ccc <fail>

00006874 <test_5>:
    6874:	f00ff0b7          	lui	ra,0xf00ff
    6878:	00f08093          	addi	ra,ra,15 # f00ff00f <end+0xf00f2912>
    687c:	f0f0f137          	lui	sp,0xf0f0f
    6880:	0f010113          	addi	sp,sp,240 # f0f0f0f0 <end+0xf0f029f3>
    6884:	0020e1b3          	or	gp,ra,sp
    6888:	f0fffeb7          	lui	t4,0xf0fff
    688c:	0ffe8e93          	addi	t4,t4,255 # f0fff0ff <end+0xf0ff2a02>
    6890:	00500e13          	li	t3,5
    6894:	43d19c63          	bne	gp,t4,6ccc <fail>

00006898 <test_6>:
    6898:	ff0100b7          	lui	ra,0xff010
    689c:	f0008093          	addi	ra,ra,-256 # ff00ff00 <end+0xff003803>
    68a0:	0f0f1137          	lui	sp,0xf0f1
    68a4:	f0f10113          	addi	sp,sp,-241 # f0f0f0f <end+0xf0e4812>
    68a8:	0020e0b3          	or	ra,ra,sp
    68ac:	ff100eb7          	lui	t4,0xff100
    68b0:	f0fe8e93          	addi	t4,t4,-241 # ff0fff0f <end+0xff0f3812>
    68b4:	00600e13          	li	t3,6
    68b8:	41d09a63          	bne	ra,t4,6ccc <fail>

000068bc <test_7>:
    68bc:	ff0100b7          	lui	ra,0xff010
    68c0:	f0008093          	addi	ra,ra,-256 # ff00ff00 <end+0xff003803>
    68c4:	0f0f1137          	lui	sp,0xf0f1
    68c8:	f0f10113          	addi	sp,sp,-241 # f0f0f0f <end+0xf0e4812>
    68cc:	0020e133          	or	sp,ra,sp
    68d0:	ff100eb7          	lui	t4,0xff100
    68d4:	f0fe8e93          	addi	t4,t4,-241 # ff0fff0f <end+0xff0f3812>
    68d8:	00700e13          	li	t3,7
    68dc:	3fd11863          	bne	sp,t4,6ccc <fail>

000068e0 <test_8>:
    68e0:	ff0100b7          	lui	ra,0xff010
    68e4:	f0008093          	addi	ra,ra,-256 # ff00ff00 <end+0xff003803>
    68e8:	0010e0b3          	or	ra,ra,ra
    68ec:	ff010eb7          	lui	t4,0xff010
    68f0:	f00e8e93          	addi	t4,t4,-256 # ff00ff00 <end+0xff003803>
    68f4:	00800e13          	li	t3,8
    68f8:	3dd09a63          	bne	ra,t4,6ccc <fail>

000068fc <test_9>:
    68fc:	00000213          	li	tp,0
    6900:	ff0100b7          	lui	ra,0xff010
    6904:	f0008093          	addi	ra,ra,-256 # ff00ff00 <end+0xff003803>
    6908:	0f0f1137          	lui	sp,0xf0f1
    690c:	f0f10113          	addi	sp,sp,-241 # f0f0f0f <end+0xf0e4812>
    6910:	0020e1b3          	or	gp,ra,sp
    6914:	00018313          	mv	t1,gp
    6918:	00120213          	addi	tp,tp,1 # 1 <reset_vec+0x1>
    691c:	00200293          	li	t0,2
    6920:	fe5210e3          	bne	tp,t0,6900 <test_9+0x4>
    6924:	ff100eb7          	lui	t4,0xff100
    6928:	f0fe8e93          	addi	t4,t4,-241 # ff0fff0f <end+0xff0f3812>
    692c:	00900e13          	li	t3,9
    6930:	39d31e63          	bne	t1,t4,6ccc <fail>

00006934 <test_10>:
    6934:	00000213          	li	tp,0
    6938:	0ff010b7          	lui	ra,0xff01
    693c:	ff008093          	addi	ra,ra,-16 # ff00ff0 <end+0xfef48f3>
    6940:	f0f0f137          	lui	sp,0xf0f0f
    6944:	0f010113          	addi	sp,sp,240 # f0f0f0f0 <end+0xf0f029f3>
    6948:	0020e1b3          	or	gp,ra,sp
    694c:	00000013          	nop
    6950:	00018313          	mv	t1,gp
    6954:	00120213          	addi	tp,tp,1 # 1 <reset_vec+0x1>
    6958:	00200293          	li	t0,2
    695c:	fc521ee3          	bne	tp,t0,6938 <test_10+0x4>
    6960:	fff10eb7          	lui	t4,0xfff10
    6964:	ff0e8e93          	addi	t4,t4,-16 # fff0fff0 <end+0xfff038f3>
    6968:	00a00e13          	li	t3,10
    696c:	37d31063          	bne	t1,t4,6ccc <fail>

00006970 <test_11>:
    6970:	00000213          	li	tp,0
    6974:	00ff00b7          	lui	ra,0xff0
    6978:	0ff08093          	addi	ra,ra,255 # ff00ff <end+0xfe3a02>
    697c:	0f0f1137          	lui	sp,0xf0f1
    6980:	f0f10113          	addi	sp,sp,-241 # f0f0f0f <end+0xf0e4812>
    6984:	0020e1b3          	or	gp,ra,sp
    6988:	00000013          	nop
    698c:	00000013          	nop
    6990:	00018313          	mv	t1,gp
    6994:	00120213          	addi	tp,tp,1 # 1 <reset_vec+0x1>
    6998:	00200293          	li	t0,2
    699c:	fc521ce3          	bne	tp,t0,6974 <test_11+0x4>
    69a0:	0fff1eb7          	lui	t4,0xfff1
    69a4:	fffe8e93          	addi	t4,t4,-1 # fff0fff <end+0xffe4902>
    69a8:	00b00e13          	li	t3,11
    69ac:	33d31063          	bne	t1,t4,6ccc <fail>

000069b0 <test_12>:
    69b0:	00000213          	li	tp,0
    69b4:	ff0100b7          	lui	ra,0xff010
    69b8:	f0008093          	addi	ra,ra,-256 # ff00ff00 <end+0xff003803>
    69bc:	0f0f1137          	lui	sp,0xf0f1
    69c0:	f0f10113          	addi	sp,sp,-241 # f0f0f0f <end+0xf0e4812>
    69c4:	0020e1b3          	or	gp,ra,sp
    69c8:	00120213          	addi	tp,tp,1 # 1 <reset_vec+0x1>
    69cc:	00200293          	li	t0,2
    69d0:	fe5212e3          	bne	tp,t0,69b4 <test_12+0x4>
    69d4:	ff100eb7          	lui	t4,0xff100
    69d8:	f0fe8e93          	addi	t4,t4,-241 # ff0fff0f <end+0xff0f3812>
    69dc:	00c00e13          	li	t3,12
    69e0:	2fd19663          	bne	gp,t4,6ccc <fail>

000069e4 <test_13>:
    69e4:	00000213          	li	tp,0
    69e8:	0ff010b7          	lui	ra,0xff01
    69ec:	ff008093          	addi	ra,ra,-16 # ff00ff0 <end+0xfef48f3>
    69f0:	f0f0f137          	lui	sp,0xf0f0f
    69f4:	0f010113          	addi	sp,sp,240 # f0f0f0f0 <end+0xf0f029f3>
    69f8:	00000013          	nop
    69fc:	0020e1b3          	or	gp,ra,sp
    6a00:	00120213          	addi	tp,tp,1 # 1 <reset_vec+0x1>
    6a04:	00200293          	li	t0,2
    6a08:	fe5210e3          	bne	tp,t0,69e8 <test_13+0x4>
    6a0c:	fff10eb7          	lui	t4,0xfff10
    6a10:	ff0e8e93          	addi	t4,t4,-16 # fff0fff0 <end+0xfff038f3>
    6a14:	00d00e13          	li	t3,13
    6a18:	2bd19a63          	bne	gp,t4,6ccc <fail>

00006a1c <test_14>:
    6a1c:	00000213          	li	tp,0
    6a20:	00ff00b7          	lui	ra,0xff0
    6a24:	0ff08093          	addi	ra,ra,255 # ff00ff <end+0xfe3a02>
    6a28:	0f0f1137          	lui	sp,0xf0f1
    6a2c:	f0f10113          	addi	sp,sp,-241 # f0f0f0f <end+0xf0e4812>
    6a30:	00000013          	nop
    6a34:	00000013          	nop
    6a38:	0020e1b3          	or	gp,ra,sp
    6a3c:	00120213          	addi	tp,tp,1 # 1 <reset_vec+0x1>
    6a40:	00200293          	li	t0,2
    6a44:	fc521ee3          	bne	tp,t0,6a20 <test_14+0x4>
    6a48:	0fff1eb7          	lui	t4,0xfff1
    6a4c:	fffe8e93          	addi	t4,t4,-1 # fff0fff <end+0xffe4902>
    6a50:	00e00e13          	li	t3,14
    6a54:	27d19c63          	bne	gp,t4,6ccc <fail>

00006a58 <test_15>:
    6a58:	00000213          	li	tp,0
    6a5c:	ff0100b7          	lui	ra,0xff010
    6a60:	f0008093          	addi	ra,ra,-256 # ff00ff00 <end+0xff003803>
    6a64:	00000013          	nop
    6a68:	0f0f1137          	lui	sp,0xf0f1
    6a6c:	f0f10113          	addi	sp,sp,-241 # f0f0f0f <end+0xf0e4812>
    6a70:	0020e1b3          	or	gp,ra,sp
    6a74:	00120213          	addi	tp,tp,1 # 1 <reset_vec+0x1>
    6a78:	00200293          	li	t0,2
    6a7c:	fe5210e3          	bne	tp,t0,6a5c <test_15+0x4>
    6a80:	ff100eb7          	lui	t4,0xff100
    6a84:	f0fe8e93          	addi	t4,t4,-241 # ff0fff0f <end+0xff0f3812>
    6a88:	00f00e13          	li	t3,15
    6a8c:	25d19063          	bne	gp,t4,6ccc <fail>

00006a90 <test_16>:
    6a90:	00000213          	li	tp,0
    6a94:	0ff010b7          	lui	ra,0xff01
    6a98:	ff008093          	addi	ra,ra,-16 # ff00ff0 <end+0xfef48f3>
    6a9c:	00000013          	nop
    6aa0:	f0f0f137          	lui	sp,0xf0f0f
    6aa4:	0f010113          	addi	sp,sp,240 # f0f0f0f0 <end+0xf0f029f3>
    6aa8:	00000013          	nop
    6aac:	0020e1b3          	or	gp,ra,sp
    6ab0:	00120213          	addi	tp,tp,1 # 1 <reset_vec+0x1>
    6ab4:	00200293          	li	t0,2
    6ab8:	fc521ee3          	bne	tp,t0,6a94 <test_16+0x4>
    6abc:	fff10eb7          	lui	t4,0xfff10
    6ac0:	ff0e8e93          	addi	t4,t4,-16 # fff0fff0 <end+0xfff038f3>
    6ac4:	01000e13          	li	t3,16
    6ac8:	21d19263          	bne	gp,t4,6ccc <fail>

00006acc <test_17>:
    6acc:	00000213          	li	tp,0
    6ad0:	00ff00b7          	lui	ra,0xff0
    6ad4:	0ff08093          	addi	ra,ra,255 # ff00ff <end+0xfe3a02>
    6ad8:	00000013          	nop
    6adc:	00000013          	nop
    6ae0:	0f0f1137          	lui	sp,0xf0f1
    6ae4:	f0f10113          	addi	sp,sp,-241 # f0f0f0f <end+0xf0e4812>
    6ae8:	0020e1b3          	or	gp,ra,sp
    6aec:	00120213          	addi	tp,tp,1 # 1 <reset_vec+0x1>
    6af0:	00200293          	li	t0,2
    6af4:	fc521ee3          	bne	tp,t0,6ad0 <test_17+0x4>
    6af8:	0fff1eb7          	lui	t4,0xfff1
    6afc:	fffe8e93          	addi	t4,t4,-1 # fff0fff <end+0xffe4902>
    6b00:	01100e13          	li	t3,17
    6b04:	1dd19463          	bne	gp,t4,6ccc <fail>

00006b08 <test_18>:
    6b08:	00000213          	li	tp,0
    6b0c:	0f0f1137          	lui	sp,0xf0f1
    6b10:	f0f10113          	addi	sp,sp,-241 # f0f0f0f <end+0xf0e4812>
    6b14:	ff0100b7          	lui	ra,0xff010
    6b18:	f0008093          	addi	ra,ra,-256 # ff00ff00 <end+0xff003803>
    6b1c:	0020e1b3          	or	gp,ra,sp
    6b20:	00120213          	addi	tp,tp,1 # 1 <reset_vec+0x1>
    6b24:	00200293          	li	t0,2
    6b28:	fe5212e3          	bne	tp,t0,6b0c <test_18+0x4>
    6b2c:	ff100eb7          	lui	t4,0xff100
    6b30:	f0fe8e93          	addi	t4,t4,-241 # ff0fff0f <end+0xff0f3812>
    6b34:	01200e13          	li	t3,18
    6b38:	19d19a63          	bne	gp,t4,6ccc <fail>

00006b3c <test_19>:
    6b3c:	00000213          	li	tp,0
    6b40:	f0f0f137          	lui	sp,0xf0f0f
    6b44:	0f010113          	addi	sp,sp,240 # f0f0f0f0 <end+0xf0f029f3>
    6b48:	0ff010b7          	lui	ra,0xff01
    6b4c:	ff008093          	addi	ra,ra,-16 # ff00ff0 <end+0xfef48f3>
    6b50:	00000013          	nop
    6b54:	0020e1b3          	or	gp,ra,sp
    6b58:	00120213          	addi	tp,tp,1 # 1 <reset_vec+0x1>
    6b5c:	00200293          	li	t0,2
    6b60:	fe5210e3          	bne	tp,t0,6b40 <test_19+0x4>
    6b64:	fff10eb7          	lui	t4,0xfff10
    6b68:	ff0e8e93          	addi	t4,t4,-16 # fff0fff0 <end+0xfff038f3>
    6b6c:	01300e13          	li	t3,19
    6b70:	15d19e63          	bne	gp,t4,6ccc <fail>

00006b74 <test_20>:
    6b74:	00000213          	li	tp,0
    6b78:	0f0f1137          	lui	sp,0xf0f1
    6b7c:	f0f10113          	addi	sp,sp,-241 # f0f0f0f <end+0xf0e4812>
    6b80:	00ff00b7          	lui	ra,0xff0
    6b84:	0ff08093          	addi	ra,ra,255 # ff00ff <end+0xfe3a02>
    6b88:	00000013          	nop
    6b8c:	00000013          	nop
    6b90:	0020e1b3          	or	gp,ra,sp
    6b94:	00120213          	addi	tp,tp,1 # 1 <reset_vec+0x1>
    6b98:	00200293          	li	t0,2
    6b9c:	fc521ee3          	bne	tp,t0,6b78 <test_20+0x4>
    6ba0:	0fff1eb7          	lui	t4,0xfff1
    6ba4:	fffe8e93          	addi	t4,t4,-1 # fff0fff <end+0xffe4902>
    6ba8:	01400e13          	li	t3,20
    6bac:	13d19063          	bne	gp,t4,6ccc <fail>

00006bb0 <test_21>:
    6bb0:	00000213          	li	tp,0
    6bb4:	0f0f1137          	lui	sp,0xf0f1
    6bb8:	f0f10113          	addi	sp,sp,-241 # f0f0f0f <end+0xf0e4812>
    6bbc:	00000013          	nop
    6bc0:	ff0100b7          	lui	ra,0xff010
    6bc4:	f0008093          	addi	ra,ra,-256 # ff00ff00 <end+0xff003803>
    6bc8:	0020e1b3          	or	gp,ra,sp
    6bcc:	00120213          	addi	tp,tp,1 # 1 <reset_vec+0x1>
    6bd0:	00200293          	li	t0,2
    6bd4:	fe5210e3          	bne	tp,t0,6bb4 <test_21+0x4>
    6bd8:	ff100eb7          	lui	t4,0xff100
    6bdc:	f0fe8e93          	addi	t4,t4,-241 # ff0fff0f <end+0xff0f3812>
    6be0:	01500e13          	li	t3,21
    6be4:	0fd19463          	bne	gp,t4,6ccc <fail>

00006be8 <test_22>:
    6be8:	00000213          	li	tp,0
    6bec:	f0f0f137          	lui	sp,0xf0f0f
    6bf0:	0f010113          	addi	sp,sp,240 # f0f0f0f0 <end+0xf0f029f3>
    6bf4:	00000013          	nop
    6bf8:	0ff010b7          	lui	ra,0xff01
    6bfc:	ff008093          	addi	ra,ra,-16 # ff00ff0 <end+0xfef48f3>
    6c00:	00000013          	nop
    6c04:	0020e1b3          	or	gp,ra,sp
    6c08:	00120213          	addi	tp,tp,1 # 1 <reset_vec+0x1>
    6c0c:	00200293          	li	t0,2
    6c10:	fc521ee3          	bne	tp,t0,6bec <test_22+0x4>
    6c14:	fff10eb7          	lui	t4,0xfff10
    6c18:	ff0e8e93          	addi	t4,t4,-16 # fff0fff0 <end+0xfff038f3>
    6c1c:	01600e13          	li	t3,22
    6c20:	0bd19663          	bne	gp,t4,6ccc <fail>

00006c24 <test_23>:
    6c24:	00000213          	li	tp,0
    6c28:	0f0f1137          	lui	sp,0xf0f1
    6c2c:	f0f10113          	addi	sp,sp,-241 # f0f0f0f <end+0xf0e4812>
    6c30:	00000013          	nop
    6c34:	00000013          	nop
    6c38:	00ff00b7          	lui	ra,0xff0
    6c3c:	0ff08093          	addi	ra,ra,255 # ff00ff <end+0xfe3a02>
    6c40:	0020e1b3          	or	gp,ra,sp
    6c44:	00120213          	addi	tp,tp,1 # 1 <reset_vec+0x1>
    6c48:	00200293          	li	t0,2
    6c4c:	fc521ee3          	bne	tp,t0,6c28 <test_23+0x4>
    6c50:	0fff1eb7          	lui	t4,0xfff1
    6c54:	fffe8e93          	addi	t4,t4,-1 # fff0fff <end+0xffe4902>
    6c58:	01700e13          	li	t3,23
    6c5c:	07d19863          	bne	gp,t4,6ccc <fail>

00006c60 <test_24>:
    6c60:	ff0100b7          	lui	ra,0xff010
    6c64:	f0008093          	addi	ra,ra,-256 # ff00ff00 <end+0xff003803>
    6c68:	00106133          	or	sp,zero,ra
    6c6c:	ff010eb7          	lui	t4,0xff010
    6c70:	f00e8e93          	addi	t4,t4,-256 # ff00ff00 <end+0xff003803>
    6c74:	01800e13          	li	t3,24
    6c78:	05d11a63          	bne	sp,t4,6ccc <fail>

00006c7c <test_25>:
    6c7c:	00ff00b7          	lui	ra,0xff0
    6c80:	0ff08093          	addi	ra,ra,255 # ff00ff <end+0xfe3a02>
    6c84:	0000e133          	or	sp,ra,zero
    6c88:	00ff0eb7          	lui	t4,0xff0
    6c8c:	0ffe8e93          	addi	t4,t4,255 # ff00ff <end+0xfe3a02>
    6c90:	01900e13          	li	t3,25
    6c94:	03d11c63          	bne	sp,t4,6ccc <fail>

00006c98 <test_26>:
    6c98:	000060b3          	or	ra,zero,zero
    6c9c:	00000e93          	li	t4,0
    6ca0:	01a00e13          	li	t3,26
    6ca4:	03d09463          	bne	ra,t4,6ccc <fail>

00006ca8 <test_27>:
    6ca8:	111110b7          	lui	ra,0x11111
    6cac:	11108093          	addi	ra,ra,273 # 11111111 <end+0x11104a14>
    6cb0:	22222137          	lui	sp,0x22222
    6cb4:	22210113          	addi	sp,sp,546 # 22222222 <end+0x22215b25>
    6cb8:	0020e033          	or	zero,ra,sp
    6cbc:	00000e93          	li	t4,0
    6cc0:	01b00e13          	li	t3,27
    6cc4:	01d01463          	bne	zero,t4,6ccc <fail>
    6cc8:	05c01863          	bne	zero,t3,6d18 <pass>

00006ccc <fail>:
    6ccc:	00000513          	li	a0,0
    6cd0:	10000537          	lui	a0,0x10000
    6cd4:	04500593          	li	a1,69
    6cd8:	05200613          	li	a2,82
    6cdc:	04f00693          	li	a3,79
    6ce0:	00b52023          	sw	a1,0(a0) # 10000000 <end+0xfff3903>
    6ce4:	00c52023          	sw	a2,0(a0)
    6ce8:	00c52023          	sw	a2,0(a0)
    6cec:	00d52023          	sw	a3,0(a0)
    6cf0:	00c52023          	sw	a2,0(a0)
    6cf4:	030e0593          	addi	a1,t3,48
    6cf8:	02000613          	li	a2,32
    6cfc:	03a00693          	li	a3,58
    6d00:	00d52023          	sw	a3,0(a0)
    6d04:	00c52023          	sw	a2,0(a0)
    6d08:	00b52023          	sw	a1,0(a0)
    6d0c:	00a00713          	li	a4,10
    6d10:	00e52023          	sw	a4,0(a0)
    6d14:	d10f906f          	j	224 <or_ret>

00006d18 <pass>:
    6d18:	00000513          	li	a0,0
    6d1c:	10000537          	lui	a0,0x10000
    6d20:	04f00593          	li	a1,79
    6d24:	04b00613          	li	a2,75
    6d28:	00a00693          	li	a3,10
    6d2c:	00b52023          	sw	a1,0(a0) # 10000000 <end+0xfff3903>
    6d30:	00c52023          	sw	a2,0(a0)
    6d34:	00d52023          	sw	a3,0(a0)
    6d38:	cecf906f          	j	224 <or_ret>

00006d3c <ori>:
    6d3c:	00007537          	lui	a0,0x7
    6d40:	d6050513          	addi	a0,a0,-672 # 6d60 <.test_name>
    6d44:	00000613          	li	a2,0
    6d48:	10000637          	lui	a2,0x10000

00006d4c <.prname_next>:
    6d4c:	00050583          	lb	a1,0(a0)
    6d50:	00058a63          	beqz	a1,6d64 <.prname_done>
    6d54:	00b62023          	sw	a1,0(a2) # 10000000 <end+0xfff3903>
    6d58:	00150513          	addi	a0,a0,1
    6d5c:	ff1ff06f          	j	6d4c <.prname_next>

00006d60 <.test_name>:
    6d60:	0069726f          	.word	0x0069726f

00006d64 <.prname_done>:
    6d64:	00000613          	li	a2,0
    6d68:	10000637          	lui	a2,0x10000
    6d6c:	02e00593          	li	a1,46
    6d70:	00b62023          	sw	a1,0(a2) # 10000000 <end+0xfff3903>
    6d74:	00b62023          	sw	a1,0(a2)

00006d78 <test_2>:
    6d78:	ff0100b7          	lui	ra,0xff010
    6d7c:	f0008093          	addi	ra,ra,-256 # ff00ff00 <end+0xff003803>
    6d80:	f0f0e193          	ori	gp,ra,-241
    6d84:	f0f00e93          	li	t4,-241
    6d88:	00200e13          	li	t3,2
    6d8c:	1dd19463          	bne	gp,t4,6f54 <fail>

00006d90 <test_3>:
    6d90:	0ff010b7          	lui	ra,0xff01
    6d94:	ff008093          	addi	ra,ra,-16 # ff00ff0 <end+0xfef48f3>
    6d98:	0f00e193          	ori	gp,ra,240
    6d9c:	0ff01eb7          	lui	t4,0xff01
    6da0:	ff0e8e93          	addi	t4,t4,-16 # ff00ff0 <end+0xfef48f3>
    6da4:	00300e13          	li	t3,3
    6da8:	1bd19663          	bne	gp,t4,6f54 <fail>

00006dac <test_4>:
    6dac:	00ff00b7          	lui	ra,0xff0
    6db0:	0ff08093          	addi	ra,ra,255 # ff00ff <end+0xfe3a02>
    6db4:	70f0e193          	ori	gp,ra,1807
    6db8:	00ff0eb7          	lui	t4,0xff0
    6dbc:	7ffe8e93          	addi	t4,t4,2047 # ff07ff <end+0xfe4102>
    6dc0:	00400e13          	li	t3,4
    6dc4:	19d19863          	bne	gp,t4,6f54 <fail>

00006dc8 <test_5>:
    6dc8:	f00ff0b7          	lui	ra,0xf00ff
    6dcc:	00f08093          	addi	ra,ra,15 # f00ff00f <end+0xf00f2912>
    6dd0:	0f00e193          	ori	gp,ra,240
    6dd4:	f00ffeb7          	lui	t4,0xf00ff
    6dd8:	0ffe8e93          	addi	t4,t4,255 # f00ff0ff <end+0xf00f2a02>
    6ddc:	00500e13          	li	t3,5
    6de0:	17d19a63          	bne	gp,t4,6f54 <fail>

00006de4 <test_6>:
    6de4:	ff0100b7          	lui	ra,0xff010
    6de8:	f0008093          	addi	ra,ra,-256 # ff00ff00 <end+0xff003803>
    6dec:	0f00e093          	ori	ra,ra,240
    6df0:	ff010eb7          	lui	t4,0xff010
    6df4:	ff0e8e93          	addi	t4,t4,-16 # ff00fff0 <end+0xff0038f3>
    6df8:	00600e13          	li	t3,6
    6dfc:	15d09c63          	bne	ra,t4,6f54 <fail>

00006e00 <test_7>:
    6e00:	00000213          	li	tp,0
    6e04:	0ff010b7          	lui	ra,0xff01
    6e08:	ff008093          	addi	ra,ra,-16 # ff00ff0 <end+0xfef48f3>
    6e0c:	0f00e193          	ori	gp,ra,240
    6e10:	00018313          	mv	t1,gp
    6e14:	00120213          	addi	tp,tp,1 # 1 <reset_vec+0x1>
    6e18:	00200293          	li	t0,2
    6e1c:	fe5214e3          	bne	tp,t0,6e04 <test_7+0x4>
    6e20:	0ff01eb7          	lui	t4,0xff01
    6e24:	ff0e8e93          	addi	t4,t4,-16 # ff00ff0 <end+0xfef48f3>
    6e28:	00700e13          	li	t3,7
    6e2c:	13d31463          	bne	t1,t4,6f54 <fail>

00006e30 <test_8>:
    6e30:	00000213          	li	tp,0
    6e34:	00ff00b7          	lui	ra,0xff0
    6e38:	0ff08093          	addi	ra,ra,255 # ff00ff <end+0xfe3a02>
    6e3c:	70f0e193          	ori	gp,ra,1807
    6e40:	00000013          	nop
    6e44:	00018313          	mv	t1,gp
    6e48:	00120213          	addi	tp,tp,1 # 1 <reset_vec+0x1>
    6e4c:	00200293          	li	t0,2
    6e50:	fe5212e3          	bne	tp,t0,6e34 <test_8+0x4>
    6e54:	00ff0eb7          	lui	t4,0xff0
    6e58:	7ffe8e93          	addi	t4,t4,2047 # ff07ff <end+0xfe4102>
    6e5c:	00800e13          	li	t3,8
    6e60:	0fd31a63          	bne	t1,t4,6f54 <fail>

00006e64 <test_9>:
    6e64:	00000213          	li	tp,0
    6e68:	f00ff0b7          	lui	ra,0xf00ff
    6e6c:	00f08093          	addi	ra,ra,15 # f00ff00f <end+0xf00f2912>
    6e70:	0f00e193          	ori	gp,ra,240
    6e74:	00000013          	nop
    6e78:	00000013          	nop
    6e7c:	00018313          	mv	t1,gp
    6e80:	00120213          	addi	tp,tp,1 # 1 <reset_vec+0x1>
    6e84:	00200293          	li	t0,2
    6e88:	fe5210e3          	bne	tp,t0,6e68 <test_9+0x4>
    6e8c:	f00ffeb7          	lui	t4,0xf00ff
    6e90:	0ffe8e93          	addi	t4,t4,255 # f00ff0ff <end+0xf00f2a02>
    6e94:	00900e13          	li	t3,9
    6e98:	0bd31e63          	bne	t1,t4,6f54 <fail>

00006e9c <test_10>:
    6e9c:	00000213          	li	tp,0
    6ea0:	0ff010b7          	lui	ra,0xff01
    6ea4:	ff008093          	addi	ra,ra,-16 # ff00ff0 <end+0xfef48f3>
    6ea8:	0f00e193          	ori	gp,ra,240
    6eac:	00120213          	addi	tp,tp,1 # 1 <reset_vec+0x1>
    6eb0:	00200293          	li	t0,2
    6eb4:	fe5216e3          	bne	tp,t0,6ea0 <test_10+0x4>
    6eb8:	0ff01eb7          	lui	t4,0xff01
    6ebc:	ff0e8e93          	addi	t4,t4,-16 # ff00ff0 <end+0xfef48f3>
    6ec0:	00a00e13          	li	t3,10
    6ec4:	09d19863          	bne	gp,t4,6f54 <fail>

00006ec8 <test_11>:
    6ec8:	00000213          	li	tp,0
    6ecc:	00ff00b7          	lui	ra,0xff0
    6ed0:	0ff08093          	addi	ra,ra,255 # ff00ff <end+0xfe3a02>
    6ed4:	00000013          	nop
    6ed8:	f0f0e193          	ori	gp,ra,-241
    6edc:	00120213          	addi	tp,tp,1 # 1 <reset_vec+0x1>
    6ee0:	00200293          	li	t0,2
    6ee4:	fe5214e3          	bne	tp,t0,6ecc <test_11+0x4>
    6ee8:	fff00e93          	li	t4,-1
    6eec:	00b00e13          	li	t3,11
    6ef0:	07d19263          	bne	gp,t4,6f54 <fail>

00006ef4 <test_12>:
    6ef4:	00000213          	li	tp,0
    6ef8:	f00ff0b7          	lui	ra,0xf00ff
    6efc:	00f08093          	addi	ra,ra,15 # f00ff00f <end+0xf00f2912>
    6f00:	00000013          	nop
    6f04:	00000013          	nop
    6f08:	0f00e193          	ori	gp,ra,240
    6f0c:	00120213          	addi	tp,tp,1 # 1 <reset_vec+0x1>
    6f10:	00200293          	li	t0,2
    6f14:	fe5212e3          	bne	tp,t0,6ef8 <test_12+0x4>
    6f18:	f00ffeb7          	lui	t4,0xf00ff
    6f1c:	0ffe8e93          	addi	t4,t4,255 # f00ff0ff <end+0xf00f2a02>
    6f20:	00c00e13          	li	t3,12
    6f24:	03d19863          	bne	gp,t4,6f54 <fail>

00006f28 <test_13>:
    6f28:	0f006093          	ori	ra,zero,240
    6f2c:	0f000e93          	li	t4,240
    6f30:	00d00e13          	li	t3,13
    6f34:	03d09063          	bne	ra,t4,6f54 <fail>

00006f38 <test_14>:
    6f38:	00ff00b7          	lui	ra,0xff0
    6f3c:	0ff08093          	addi	ra,ra,255 # ff00ff <end+0xfe3a02>
    6f40:	70f0e013          	ori	zero,ra,1807
    6f44:	00000e93          	li	t4,0
    6f48:	00e00e13          	li	t3,14
    6f4c:	01d01463          	bne	zero,t4,6f54 <fail>
    6f50:	05c01863          	bne	zero,t3,6fa0 <pass>

00006f54 <fail>:
    6f54:	00000513          	li	a0,0
    6f58:	10000537          	lui	a0,0x10000
    6f5c:	04500593          	li	a1,69
    6f60:	05200613          	li	a2,82
    6f64:	04f00693          	li	a3,79
    6f68:	00b52023          	sw	a1,0(a0) # 10000000 <end+0xfff3903>
    6f6c:	00c52023          	sw	a2,0(a0)
    6f70:	00c52023          	sw	a2,0(a0)
    6f74:	00d52023          	sw	a3,0(a0)
    6f78:	00c52023          	sw	a2,0(a0)
    6f7c:	030e0593          	addi	a1,t3,48
    6f80:	02000613          	li	a2,32
    6f84:	03a00693          	li	a3,58
    6f88:	00d52023          	sw	a3,0(a0)
    6f8c:	00c52023          	sw	a2,0(a0)
    6f90:	00b52023          	sw	a1,0(a0)
    6f94:	00a00713          	li	a4,10
    6f98:	00e52023          	sw	a4,0(a0)
    6f9c:	a28f906f          	j	1c4 <ori_ret>

00006fa0 <pass>:
    6fa0:	00000513          	li	a0,0
    6fa4:	10000537          	lui	a0,0x10000
    6fa8:	04f00593          	li	a1,79
    6fac:	04b00613          	li	a2,75
    6fb0:	00a00693          	li	a3,10
    6fb4:	00b52023          	sw	a1,0(a0) # 10000000 <end+0xfff3903>
    6fb8:	00c52023          	sw	a2,0(a0)
    6fbc:	00d52023          	sw	a3,0(a0)
    6fc0:	a04f906f          	j	1c4 <ori_ret>

00006fc4 <rdwrctr>:
    6fc4:	00007537          	lui	a0,0x7
    6fc8:	fe850513          	addi	a0,a0,-24 # 6fe8 <.test_name>
    6fcc:	00000613          	li	a2,0
    6fd0:	10000637          	lui	a2,0x10000

00006fd4 <.prname_next>:
    6fd4:	00050583          	lb	a1,0(a0)
    6fd8:	00058c63          	beqz	a1,6ff0 <.prname_done>
    6fdc:	00b62023          	sw	a1,0(a2) # 10000000 <end+0xfff3903>
    6fe0:	00150513          	addi	a0,a0,1
    6fe4:	ff1ff06f          	j	6fd4 <.prname_next>

00006fe8 <.test_name>:
    6fe8:	72776472          	.word	0x72776472
    6fec:	00727463          	.word	0x00727463

00006ff0 <.prname_done>:
    6ff0:	00000613          	li	a2,0
    6ff4:	10000637          	lui	a2,0x10000
    6ff8:	02e00593          	li	a1,46
    6ffc:	00b62023          	sw	a1,0(a2) # 10000000 <end+0xfff3903>
    7000:	00b62023          	sw	a1,0(a2)
    7004:	00200e13          	li	t3,2
    7008:	0000055b          	.word	0x0000055b
    700c:	00300e13          	li	t3,3
    7010:	0010055b          	.word	0x0010055b
    7014:	00400e13          	li	t3,4
    7018:	0020055b          	.word	0x0020055b
    701c:	00500e13          	li	t3,5
    7020:	0030055b          	.word	0x0030055b
    7024:	00000513          	li	a0,0
    7028:	8005005b          	.word	0x8005005b
    702c:	00000013          	nop
    7030:	00000013          	nop
    7034:	0000055b          	.word	0x0000055b
    7038:	06400293          	li	t0,100
    703c:	00600e13          	li	t3,6
    7040:	0ea2e063          	bltu	t0,a0,7120 <fail>
    7044:	10000537          	lui	a0,0x10000
    7048:	8005005b          	.word	0x8005005b
    704c:	0000055b          	.word	0x0000055b
    7050:	100002b7          	lui	t0,0x10000
    7054:	3e800313          	li	t1,1000
    7058:	006282b3          	add	t0,t0,t1
    705c:	00700e13          	li	t3,7
    7060:	0ca2e063          	bltu	t0,a0,7120 <fail>
    7064:	00000513          	li	a0,0
    7068:	8005005b          	.word	0x8005005b
    706c:	0000055b          	.word	0x0000055b
    7070:	00050293          	mv	t0,a0
    7074:	00000013          	nop
    7078:	00000013          	nop
    707c:	00000013          	nop
    7080:	00000013          	nop
    7084:	00000013          	nop
    7088:	0000055b          	.word	0x0000055b
    708c:	00800e13          	li	t3,8
    7090:	08a2f863          	bgeu	t0,a0,7120 <fail>
    7094:	00000513          	li	a0,0
    7098:	8015005b          	.word	0x8015005b
    709c:	0010055b          	.word	0x0010055b
    70a0:	00050293          	mv	t0,a0
    70a4:	00000013          	nop
    70a8:	00000013          	nop
    70ac:	00000013          	nop
    70b0:	0010055b          	.word	0x0010055b
    70b4:	00900e13          	li	t3,9
    70b8:	06a2f463          	bgeu	t0,a0,7120 <fail>
    70bc:	00000513          	li	a0,0
    70c0:	8025005b          	.word	0x8025005b
    70c4:	0020055b          	.word	0x0020055b
    70c8:	00050293          	mv	t0,a0
    70cc:	00005317          	auipc	t1,0x5
    70d0:	23830313          	addi	t1,t1,568 # c304 <test_data>
    70d4:	00032383          	lw	t2,0(t1)
    70d8:	00432383          	lw	t2,4(t1)
    70dc:	0020055b          	.word	0x0020055b
    70e0:	00a00e13          	li	t3,10
    70e4:	02a2fe63          	bgeu	t0,a0,7120 <fail>
    70e8:	00000513          	li	a0,0
    70ec:	8035005b          	.word	0x8035005b
    70f0:	0030055b          	.word	0x0030055b
    70f4:	00050293          	mv	t0,a0
    70f8:	00005317          	auipc	t1,0x5
    70fc:	20c30313          	addi	t1,t1,524 # c304 <test_data>
    7100:	00032023          	sw	zero,0(t1)
    7104:	00032223          	sw	zero,4(t1)
    7108:	0030055b          	.word	0x0030055b
    710c:	00b00e13          	li	t3,11
    7110:	00a2f863          	bgeu	t0,a0,7120 <fail>
    7114:	00c00e13          	li	t3,12
    7118:	8000005b          	.word	0x8000005b
    711c:	05c01863          	bne	zero,t3,716c <pass>

00007120 <fail>:
    7120:	00000513          	li	a0,0
    7124:	10000537          	lui	a0,0x10000
    7128:	04500593          	li	a1,69
    712c:	05200613          	li	a2,82
    7130:	04f00693          	li	a3,79
    7134:	00b52023          	sw	a1,0(a0) # 10000000 <end+0xfff3903>
    7138:	00c52023          	sw	a2,0(a0)
    713c:	00c52023          	sw	a2,0(a0)
    7140:	00d52023          	sw	a3,0(a0)
    7144:	00c52023          	sw	a2,0(a0)
    7148:	030e0593          	addi	a1,t3,48
    714c:	02000613          	li	a2,32
    7150:	03a00693          	li	a3,58
    7154:	00d52023          	sw	a3,0(a0)
    7158:	00c52023          	sw	a2,0(a0)
    715c:	00b52023          	sw	a1,0(a0)
    7160:	00a00713          	li	a4,10
    7164:	00e52023          	sw	a4,0(a0)
    7168:	8d4f906f          	j	23c <rdwrctr_ret>

0000716c <pass>:
    716c:	00000513          	li	a0,0
    7170:	10000537          	lui	a0,0x10000
    7174:	04f00593          	li	a1,79
    7178:	04b00613          	li	a2,75
    717c:	00a00693          	li	a3,10
    7180:	00b52023          	sw	a1,0(a0) # 10000000 <end+0xfff3903>
    7184:	00c52023          	sw	a2,0(a0)
    7188:	00d52023          	sw	a3,0(a0)
    718c:	8b0f906f          	j	23c <rdwrctr_ret>

00007190 <rem>:
    7190:	00007537          	lui	a0,0x7
    7194:	1b450513          	addi	a0,a0,436 # 71b4 <.test_name>
    7198:	00000613          	li	a2,0
    719c:	10000637          	lui	a2,0x10000

000071a0 <.prname_next>:
    71a0:	00050583          	lb	a1,0(a0)
    71a4:	00058a63          	beqz	a1,71b8 <.prname_done>
    71a8:	00b62023          	sw	a1,0(a2) # 10000000 <end+0xfff3903>
    71ac:	00150513          	addi	a0,a0,1
    71b0:	ff1ff06f          	j	71a0 <.prname_next>

000071b4 <.test_name>:
    71b4:	006d6572          	.word	0x006d6572

000071b8 <.prname_done>:
    71b8:	00000613          	li	a2,0
    71bc:	10000637          	lui	a2,0x10000
    71c0:	02e00593          	li	a1,46
    71c4:	00b62023          	sw	a1,0(a2) # 10000000 <end+0xfff3903>
    71c8:	00b62023          	sw	a1,0(a2)

000071cc <test_2>:
    71cc:	01400093          	li	ra,20
    71d0:	00600113          	li	sp,6
    71d4:	0220e1b3          	rem	gp,ra,sp
    71d8:	00200e93          	li	t4,2
    71dc:	00200e13          	li	t3,2
    71e0:	0dd19463          	bne	gp,t4,72a8 <fail>

000071e4 <test_3>:
    71e4:	fec00093          	li	ra,-20
    71e8:	00600113          	li	sp,6
    71ec:	0220e1b3          	rem	gp,ra,sp
    71f0:	ffe00e93          	li	t4,-2
    71f4:	00300e13          	li	t3,3
    71f8:	0bd19863          	bne	gp,t4,72a8 <fail>

000071fc <test_4>:
    71fc:	01400093          	li	ra,20
    7200:	ffa00113          	li	sp,-6
    7204:	0220e1b3          	rem	gp,ra,sp
    7208:	00200e93          	li	t4,2
    720c:	00400e13          	li	t3,4
    7210:	09d19c63          	bne	gp,t4,72a8 <fail>

00007214 <test_5>:
    7214:	fec00093          	li	ra,-20
    7218:	ffa00113          	li	sp,-6
    721c:	0220e1b3          	rem	gp,ra,sp
    7220:	ffe00e93          	li	t4,-2
    7224:	00500e13          	li	t3,5
    7228:	09d19063          	bne	gp,t4,72a8 <fail>

0000722c <test_6>:
    722c:	800000b7          	lui	ra,0x80000
    7230:	00100113          	li	sp,1
    7234:	0220e1b3          	rem	gp,ra,sp
    7238:	00000e93          	li	t4,0
    723c:	00600e13          	li	t3,6
    7240:	07d19463          	bne	gp,t4,72a8 <fail>

00007244 <test_7>:
    7244:	800000b7          	lui	ra,0x80000
    7248:	fff00113          	li	sp,-1
    724c:	0220e1b3          	rem	gp,ra,sp
    7250:	00000e93          	li	t4,0
    7254:	00700e13          	li	t3,7
    7258:	05d19863          	bne	gp,t4,72a8 <fail>

0000725c <test_8>:
    725c:	800000b7          	lui	ra,0x80000
    7260:	00000113          	li	sp,0
    7264:	0220e1b3          	rem	gp,ra,sp
    7268:	80000eb7          	lui	t4,0x80000
    726c:	00800e13          	li	t3,8
    7270:	03d19c63          	bne	gp,t4,72a8 <fail>

00007274 <test_9>:
    7274:	00100093          	li	ra,1
    7278:	00000113          	li	sp,0
    727c:	0220e1b3          	rem	gp,ra,sp
    7280:	00100e93          	li	t4,1
    7284:	00900e13          	li	t3,9
    7288:	03d19063          	bne	gp,t4,72a8 <fail>

0000728c <test_10>:
    728c:	00000093          	li	ra,0
    7290:	00000113          	li	sp,0
    7294:	0220e1b3          	rem	gp,ra,sp
    7298:	00000e93          	li	t4,0
    729c:	00a00e13          	li	t3,10
    72a0:	01d19463          	bne	gp,t4,72a8 <fail>
    72a4:	05c01863          	bne	zero,t3,72f4 <pass>

000072a8 <fail>:
    72a8:	00000513          	li	a0,0
    72ac:	10000537          	lui	a0,0x10000
    72b0:	04500593          	li	a1,69
    72b4:	05200613          	li	a2,82
    72b8:	04f00693          	li	a3,79
    72bc:	00b52023          	sw	a1,0(a0) # 10000000 <end+0xfff3903>
    72c0:	00c52023          	sw	a2,0(a0)
    72c4:	00c52023          	sw	a2,0(a0)
    72c8:	00d52023          	sw	a3,0(a0)
    72cc:	00c52023          	sw	a2,0(a0)
    72d0:	030e0593          	addi	a1,t3,48
    72d4:	02000613          	li	a2,32
    72d8:	03a00693          	li	a3,58
    72dc:	00d52023          	sw	a3,0(a0)
    72e0:	00c52023          	sw	a2,0(a0)
    72e4:	00b52023          	sw	a1,0(a0)
    72e8:	00a00713          	li	a4,10
    72ec:	00e52023          	sw	a4,0(a0)
    72f0:	f95f806f          	j	284 <rem_ret>

000072f4 <pass>:
    72f4:	00000513          	li	a0,0
    72f8:	10000537          	lui	a0,0x10000
    72fc:	04f00593          	li	a1,79
    7300:	04b00613          	li	a2,75
    7304:	00a00693          	li	a3,10
    7308:	00b52023          	sw	a1,0(a0) # 10000000 <end+0xfff3903>
    730c:	00c52023          	sw	a2,0(a0)
    7310:	00d52023          	sw	a3,0(a0)
    7314:	f71f806f          	j	284 <rem_ret>

00007318 <remu>:
    7318:	00007537          	lui	a0,0x7
    731c:	33c50513          	addi	a0,a0,828 # 733c <.test_name>
    7320:	00000613          	li	a2,0
    7324:	10000637          	lui	a2,0x10000

00007328 <.prname_next>:
    7328:	00050583          	lb	a1,0(a0)
    732c:	00058c63          	beqz	a1,7344 <.prname_done>
    7330:	00b62023          	sw	a1,0(a2) # 10000000 <end+0xfff3903>
    7334:	00150513          	addi	a0,a0,1
    7338:	ff1ff06f          	j	7328 <.prname_next>

0000733c <.test_name>:
    733c:	756d6572          	.word	0x756d6572
    7340:	00000000          	.word	0x00000000

00007344 <.prname_done>:
    7344:	00000613          	li	a2,0
    7348:	10000637          	lui	a2,0x10000
    734c:	02e00593          	li	a1,46
    7350:	00b62023          	sw	a1,0(a2) # 10000000 <end+0xfff3903>
    7354:	00b62023          	sw	a1,0(a2)

00007358 <test_2>:
    7358:	01400093          	li	ra,20
    735c:	00600113          	li	sp,6
    7360:	0220f1b3          	remu	gp,ra,sp
    7364:	00200e93          	li	t4,2
    7368:	00200e13          	li	t3,2
    736c:	0dd19463          	bne	gp,t4,7434 <fail>

00007370 <test_3>:
    7370:	fec00093          	li	ra,-20
    7374:	00600113          	li	sp,6
    7378:	0220f1b3          	remu	gp,ra,sp
    737c:	00200e93          	li	t4,2
    7380:	00300e13          	li	t3,3
    7384:	0bd19863          	bne	gp,t4,7434 <fail>

00007388 <test_4>:
    7388:	01400093          	li	ra,20
    738c:	ffa00113          	li	sp,-6
    7390:	0220f1b3          	remu	gp,ra,sp
    7394:	01400e93          	li	t4,20
    7398:	00400e13          	li	t3,4
    739c:	09d19c63          	bne	gp,t4,7434 <fail>

000073a0 <test_5>:
    73a0:	fec00093          	li	ra,-20
    73a4:	ffa00113          	li	sp,-6
    73a8:	0220f1b3          	remu	gp,ra,sp
    73ac:	fec00e93          	li	t4,-20
    73b0:	00500e13          	li	t3,5
    73b4:	09d19063          	bne	gp,t4,7434 <fail>

000073b8 <test_6>:
    73b8:	800000b7          	lui	ra,0x80000
    73bc:	00100113          	li	sp,1
    73c0:	0220f1b3          	remu	gp,ra,sp
    73c4:	00000e93          	li	t4,0
    73c8:	00600e13          	li	t3,6
    73cc:	07d19463          	bne	gp,t4,7434 <fail>

000073d0 <test_7>:
    73d0:	800000b7          	lui	ra,0x80000
    73d4:	fff00113          	li	sp,-1
    73d8:	0220f1b3          	remu	gp,ra,sp
    73dc:	80000eb7          	lui	t4,0x80000
    73e0:	00700e13          	li	t3,7
    73e4:	05d19863          	bne	gp,t4,7434 <fail>

000073e8 <test_8>:
    73e8:	800000b7          	lui	ra,0x80000
    73ec:	00000113          	li	sp,0
    73f0:	0220f1b3          	remu	gp,ra,sp
    73f4:	80000eb7          	lui	t4,0x80000
    73f8:	00800e13          	li	t3,8
    73fc:	03d19c63          	bne	gp,t4,7434 <fail>

00007400 <test_9>:
    7400:	00100093          	li	ra,1
    7404:	00000113          	li	sp,0
    7408:	0220f1b3          	remu	gp,ra,sp
    740c:	00100e93          	li	t4,1
    7410:	00900e13          	li	t3,9
    7414:	03d19063          	bne	gp,t4,7434 <fail>

00007418 <test_10>:
    7418:	00000093          	li	ra,0
    741c:	00000113          	li	sp,0
    7420:	0220f1b3          	remu	gp,ra,sp
    7424:	00000e93          	li	t4,0
    7428:	00a00e13          	li	t3,10
    742c:	01d19463          	bne	gp,t4,7434 <fail>
    7430:	05c01863          	bne	zero,t3,7480 <pass>

00007434 <fail>:
    7434:	00000513          	li	a0,0
    7438:	10000537          	lui	a0,0x10000
    743c:	04500593          	li	a1,69
    7440:	05200613          	li	a2,82
    7444:	04f00693          	li	a3,79
    7448:	00b52023          	sw	a1,0(a0) # 10000000 <end+0xfff3903>
    744c:	00c52023          	sw	a2,0(a0)
    7450:	00c52023          	sw	a2,0(a0)
    7454:	00d52023          	sw	a3,0(a0)
    7458:	00c52023          	sw	a2,0(a0)
    745c:	030e0593          	addi	a1,t3,48
    7460:	02000613          	li	a2,32
    7464:	03a00693          	li	a3,58
    7468:	00d52023          	sw	a3,0(a0)
    746c:	00c52023          	sw	a2,0(a0)
    7470:	00b52023          	sw	a1,0(a0)
    7474:	00a00713          	li	a4,10
    7478:	00e52023          	sw	a4,0(a0)
    747c:	e11f806f          	j	28c <remu_ret>

00007480 <pass>:
    7480:	00000513          	li	a0,0
    7484:	10000537          	lui	a0,0x10000
    7488:	04f00593          	li	a1,79
    748c:	04b00613          	li	a2,75
    7490:	00a00693          	li	a3,10
    7494:	00b52023          	sw	a1,0(a0) # 10000000 <end+0xfff3903>
    7498:	00c52023          	sw	a2,0(a0)
    749c:	00d52023          	sw	a3,0(a0)
    74a0:	dedf806f          	j	28c <remu_ret>

000074a4 <sb>:
    74a4:	00007537          	lui	a0,0x7
    74a8:	4c850513          	addi	a0,a0,1224 # 74c8 <.test_name>
    74ac:	00000613          	li	a2,0
    74b0:	10000637          	lui	a2,0x10000

000074b4 <.prname_next>:
    74b4:	00050583          	lb	a1,0(a0)
    74b8:	00058a63          	beqz	a1,74cc <.prname_done>
    74bc:	00b62023          	sw	a1,0(a2) # 10000000 <end+0xfff3903>
    74c0:	00150513          	addi	a0,a0,1
    74c4:	ff1ff06f          	j	74b4 <.prname_next>

000074c8 <.test_name>:
    74c8:	00006273          	.word	0x00006273

000074cc <.prname_done>:
    74cc:	00000613          	li	a2,0
    74d0:	10000637          	lui	a2,0x10000
    74d4:	02e00593          	li	a1,46
    74d8:	00b62023          	sw	a1,0(a2) # 10000000 <end+0xfff3903>
    74dc:	00b62023          	sw	a1,0(a2)

000074e0 <test_2>:
    74e0:	00005097          	auipc	ra,0x5
    74e4:	ed008093          	addi	ra,ra,-304 # c3b0 <tdat>
    74e8:	faa00113          	li	sp,-86
    74ec:	00208023          	sb	sp,0(ra)
    74f0:	00008183          	lb	gp,0(ra)
    74f4:	faa00e93          	li	t4,-86
    74f8:	00200e13          	li	t3,2
    74fc:	3dd19c63          	bne	gp,t4,78d4 <fail>

00007500 <test_3>:
    7500:	00005097          	auipc	ra,0x5
    7504:	eb008093          	addi	ra,ra,-336 # c3b0 <tdat>
    7508:	00000113          	li	sp,0
    750c:	002080a3          	sb	sp,1(ra)
    7510:	00108183          	lb	gp,1(ra)
    7514:	00000e93          	li	t4,0
    7518:	00300e13          	li	t3,3
    751c:	3bd19c63          	bne	gp,t4,78d4 <fail>

00007520 <test_4>:
    7520:	00005097          	auipc	ra,0x5
    7524:	e9008093          	addi	ra,ra,-368 # c3b0 <tdat>
    7528:	fffff137          	lui	sp,0xfffff
    752c:	fa010113          	addi	sp,sp,-96 # ffffefa0 <end+0xffff28a3>
    7530:	00208123          	sb	sp,2(ra)
    7534:	00209183          	lh	gp,2(ra)
    7538:	fffffeb7          	lui	t4,0xfffff
    753c:	fa0e8e93          	addi	t4,t4,-96 # ffffefa0 <end+0xffff28a3>
    7540:	00400e13          	li	t3,4
    7544:	39d19863          	bne	gp,t4,78d4 <fail>

00007548 <test_5>:
    7548:	00005097          	auipc	ra,0x5
    754c:	e6808093          	addi	ra,ra,-408 # c3b0 <tdat>
    7550:	00a00113          	li	sp,10
    7554:	002081a3          	sb	sp,3(ra)
    7558:	00308183          	lb	gp,3(ra)
    755c:	00a00e93          	li	t4,10
    7560:	00500e13          	li	t3,5
    7564:	37d19863          	bne	gp,t4,78d4 <fail>

00007568 <test_6>:
    7568:	00005097          	auipc	ra,0x5
    756c:	e4f08093          	addi	ra,ra,-433 # c3b7 <tdat8>
    7570:	faa00113          	li	sp,-86
    7574:	fe208ea3          	sb	sp,-3(ra)
    7578:	ffd08183          	lb	gp,-3(ra)
    757c:	faa00e93          	li	t4,-86
    7580:	00600e13          	li	t3,6
    7584:	35d19863          	bne	gp,t4,78d4 <fail>

00007588 <test_7>:
    7588:	00005097          	auipc	ra,0x5
    758c:	e2f08093          	addi	ra,ra,-465 # c3b7 <tdat8>
    7590:	00000113          	li	sp,0
    7594:	fe208f23          	sb	sp,-2(ra)
    7598:	ffe08183          	lb	gp,-2(ra)
    759c:	00000e93          	li	t4,0
    75a0:	00700e13          	li	t3,7
    75a4:	33d19863          	bne	gp,t4,78d4 <fail>

000075a8 <test_8>:
    75a8:	00005097          	auipc	ra,0x5
    75ac:	e0f08093          	addi	ra,ra,-497 # c3b7 <tdat8>
    75b0:	fa000113          	li	sp,-96
    75b4:	fe208fa3          	sb	sp,-1(ra)
    75b8:	fff08183          	lb	gp,-1(ra)
    75bc:	fa000e93          	li	t4,-96
    75c0:	00800e13          	li	t3,8
    75c4:	31d19863          	bne	gp,t4,78d4 <fail>

000075c8 <test_9>:
    75c8:	00005097          	auipc	ra,0x5
    75cc:	def08093          	addi	ra,ra,-529 # c3b7 <tdat8>
    75d0:	00a00113          	li	sp,10
    75d4:	00208023          	sb	sp,0(ra)
    75d8:	00008183          	lb	gp,0(ra)
    75dc:	00a00e93          	li	t4,10
    75e0:	00900e13          	li	t3,9
    75e4:	2fd19863          	bne	gp,t4,78d4 <fail>

000075e8 <test_10>:
    75e8:	00005097          	auipc	ra,0x5
    75ec:	dd008093          	addi	ra,ra,-560 # c3b8 <tdat9>
    75f0:	12345137          	lui	sp,0x12345
    75f4:	67810113          	addi	sp,sp,1656 # 12345678 <end+0x12338f7b>
    75f8:	fe008213          	addi	tp,ra,-32
    75fc:	02220023          	sb	sp,32(tp) # 20 <start+0x1c>
    7600:	00008183          	lb	gp,0(ra)
    7604:	07800e93          	li	t4,120
    7608:	00a00e13          	li	t3,10
    760c:	2dd19463          	bne	gp,t4,78d4 <fail>

00007610 <test_11>:
    7610:	00005097          	auipc	ra,0x5
    7614:	da808093          	addi	ra,ra,-600 # c3b8 <tdat9>
    7618:	00003137          	lui	sp,0x3
    761c:	09810113          	addi	sp,sp,152 # 3098 <test_2+0x18>
    7620:	ffa08093          	addi	ra,ra,-6
    7624:	002083a3          	sb	sp,7(ra)
    7628:	00005217          	auipc	tp,0x5
    762c:	d9120213          	addi	tp,tp,-623 # c3b9 <tdat10>
    7630:	00020183          	lb	gp,0(tp) # 0 <reset_vec>
    7634:	f9800e93          	li	t4,-104
    7638:	00b00e13          	li	t3,11
    763c:	29d19c63          	bne	gp,t4,78d4 <fail>

00007640 <test_12>:
    7640:	00c00e13          	li	t3,12
    7644:	00000213          	li	tp,0
    7648:	fdd00093          	li	ra,-35
    764c:	00005117          	auipc	sp,0x5
    7650:	d6410113          	addi	sp,sp,-668 # c3b0 <tdat>
    7654:	00110023          	sb	ra,0(sp)
    7658:	00010183          	lb	gp,0(sp)
    765c:	fdd00e93          	li	t4,-35
    7660:	27d19a63          	bne	gp,t4,78d4 <fail>
    7664:	00120213          	addi	tp,tp,1 # 1 <reset_vec+0x1>
    7668:	00200293          	li	t0,2
    766c:	fc521ee3          	bne	tp,t0,7648 <test_12+0x8>

00007670 <test_13>:
    7670:	00d00e13          	li	t3,13
    7674:	00000213          	li	tp,0
    7678:	fcd00093          	li	ra,-51
    767c:	00005117          	auipc	sp,0x5
    7680:	d3410113          	addi	sp,sp,-716 # c3b0 <tdat>
    7684:	00000013          	nop
    7688:	001100a3          	sb	ra,1(sp)
    768c:	00110183          	lb	gp,1(sp)
    7690:	fcd00e93          	li	t4,-51
    7694:	25d19063          	bne	gp,t4,78d4 <fail>
    7698:	00120213          	addi	tp,tp,1 # 1 <reset_vec+0x1>
    769c:	00200293          	li	t0,2
    76a0:	fc521ce3          	bne	tp,t0,7678 <test_13+0x8>

000076a4 <test_14>:
    76a4:	00e00e13          	li	t3,14
    76a8:	00000213          	li	tp,0
    76ac:	fcc00093          	li	ra,-52
    76b0:	00005117          	auipc	sp,0x5
    76b4:	d0010113          	addi	sp,sp,-768 # c3b0 <tdat>
    76b8:	00000013          	nop
    76bc:	00000013          	nop
    76c0:	00110123          	sb	ra,2(sp)
    76c4:	00210183          	lb	gp,2(sp)
    76c8:	fcc00e93          	li	t4,-52
    76cc:	21d19463          	bne	gp,t4,78d4 <fail>
    76d0:	00120213          	addi	tp,tp,1 # 1 <reset_vec+0x1>
    76d4:	00200293          	li	t0,2
    76d8:	fc521ae3          	bne	tp,t0,76ac <test_14+0x8>

000076dc <test_15>:
    76dc:	00f00e13          	li	t3,15
    76e0:	00000213          	li	tp,0
    76e4:	fbc00093          	li	ra,-68
    76e8:	00000013          	nop
    76ec:	00005117          	auipc	sp,0x5
    76f0:	cc410113          	addi	sp,sp,-828 # c3b0 <tdat>
    76f4:	001101a3          	sb	ra,3(sp)
    76f8:	00310183          	lb	gp,3(sp)
    76fc:	fbc00e93          	li	t4,-68
    7700:	1dd19a63          	bne	gp,t4,78d4 <fail>
    7704:	00120213          	addi	tp,tp,1 # 1 <reset_vec+0x1>
    7708:	00200293          	li	t0,2
    770c:	fc521ce3          	bne	tp,t0,76e4 <test_15+0x8>

00007710 <test_16>:
    7710:	01000e13          	li	t3,16
    7714:	00000213          	li	tp,0
    7718:	fbb00093          	li	ra,-69
    771c:	00000013          	nop
    7720:	00005117          	auipc	sp,0x5
    7724:	c9010113          	addi	sp,sp,-880 # c3b0 <tdat>
    7728:	00000013          	nop
    772c:	00110223          	sb	ra,4(sp)
    7730:	00410183          	lb	gp,4(sp)
    7734:	fbb00e93          	li	t4,-69
    7738:	19d19e63          	bne	gp,t4,78d4 <fail>
    773c:	00120213          	addi	tp,tp,1 # 1 <reset_vec+0x1>
    7740:	00200293          	li	t0,2
    7744:	fc521ae3          	bne	tp,t0,7718 <test_16+0x8>

00007748 <test_17>:
    7748:	01100e13          	li	t3,17
    774c:	00000213          	li	tp,0
    7750:	fab00093          	li	ra,-85
    7754:	00000013          	nop
    7758:	00000013          	nop
    775c:	00005117          	auipc	sp,0x5
    7760:	c5410113          	addi	sp,sp,-940 # c3b0 <tdat>
    7764:	001102a3          	sb	ra,5(sp)
    7768:	00510183          	lb	gp,5(sp)
    776c:	fab00e93          	li	t4,-85
    7770:	17d19263          	bne	gp,t4,78d4 <fail>
    7774:	00120213          	addi	tp,tp,1 # 1 <reset_vec+0x1>
    7778:	00200293          	li	t0,2
    777c:	fc521ae3          	bne	tp,t0,7750 <test_17+0x8>

00007780 <test_18>:
    7780:	01200e13          	li	t3,18
    7784:	00000213          	li	tp,0
    7788:	00005117          	auipc	sp,0x5
    778c:	c2810113          	addi	sp,sp,-984 # c3b0 <tdat>
    7790:	03300093          	li	ra,51
    7794:	00110023          	sb	ra,0(sp)
    7798:	00010183          	lb	gp,0(sp)
    779c:	03300e93          	li	t4,51
    77a0:	13d19a63          	bne	gp,t4,78d4 <fail>
    77a4:	00120213          	addi	tp,tp,1 # 1 <reset_vec+0x1>
    77a8:	00200293          	li	t0,2
    77ac:	fc521ee3          	bne	tp,t0,7788 <test_18+0x8>

000077b0 <test_19>:
    77b0:	01300e13          	li	t3,19
    77b4:	00000213          	li	tp,0
    77b8:	00005117          	auipc	sp,0x5
    77bc:	bf810113          	addi	sp,sp,-1032 # c3b0 <tdat>
    77c0:	02300093          	li	ra,35
    77c4:	00000013          	nop
    77c8:	001100a3          	sb	ra,1(sp)
    77cc:	00110183          	lb	gp,1(sp)
    77d0:	02300e93          	li	t4,35
    77d4:	11d19063          	bne	gp,t4,78d4 <fail>
    77d8:	00120213          	addi	tp,tp,1 # 1 <reset_vec+0x1>
    77dc:	00200293          	li	t0,2
    77e0:	fc521ce3          	bne	tp,t0,77b8 <test_19+0x8>

000077e4 <test_20>:
    77e4:	01400e13          	li	t3,20
    77e8:	00000213          	li	tp,0
    77ec:	00005117          	auipc	sp,0x5
    77f0:	bc410113          	addi	sp,sp,-1084 # c3b0 <tdat>
    77f4:	02200093          	li	ra,34
    77f8:	00000013          	nop
    77fc:	00000013          	nop
    7800:	00110123          	sb	ra,2(sp)
    7804:	00210183          	lb	gp,2(sp)
    7808:	02200e93          	li	t4,34
    780c:	0dd19463          	bne	gp,t4,78d4 <fail>
    7810:	00120213          	addi	tp,tp,1 # 1 <reset_vec+0x1>
    7814:	00200293          	li	t0,2
    7818:	fc521ae3          	bne	tp,t0,77ec <test_20+0x8>

0000781c <test_21>:
    781c:	01500e13          	li	t3,21
    7820:	00000213          	li	tp,0
    7824:	00005117          	auipc	sp,0x5
    7828:	b8c10113          	addi	sp,sp,-1140 # c3b0 <tdat>
    782c:	00000013          	nop
    7830:	01200093          	li	ra,18
    7834:	001101a3          	sb	ra,3(sp)
    7838:	00310183          	lb	gp,3(sp)
    783c:	01200e93          	li	t4,18
    7840:	09d19a63          	bne	gp,t4,78d4 <fail>
    7844:	00120213          	addi	tp,tp,1 # 1 <reset_vec+0x1>
    7848:	00200293          	li	t0,2
    784c:	fc521ce3          	bne	tp,t0,7824 <test_21+0x8>

00007850 <test_22>:
    7850:	01600e13          	li	t3,22
    7854:	00000213          	li	tp,0
    7858:	00005117          	auipc	sp,0x5
    785c:	b5810113          	addi	sp,sp,-1192 # c3b0 <tdat>
    7860:	00000013          	nop
    7864:	01100093          	li	ra,17
    7868:	00000013          	nop
    786c:	00110223          	sb	ra,4(sp)
    7870:	00410183          	lb	gp,4(sp)
    7874:	01100e93          	li	t4,17
    7878:	05d19e63          	bne	gp,t4,78d4 <fail>
    787c:	00120213          	addi	tp,tp,1 # 1 <reset_vec+0x1>
    7880:	00200293          	li	t0,2
    7884:	fc521ae3          	bne	tp,t0,7858 <test_22+0x8>

00007888 <test_23>:
    7888:	01700e13          	li	t3,23
    788c:	00000213          	li	tp,0
    7890:	00005117          	auipc	sp,0x5
    7894:	b2010113          	addi	sp,sp,-1248 # c3b0 <tdat>
    7898:	00000013          	nop
    789c:	00000013          	nop
    78a0:	00100093          	li	ra,1
    78a4:	001102a3          	sb	ra,5(sp)
    78a8:	00510183          	lb	gp,5(sp)
    78ac:	00100e93          	li	t4,1
    78b0:	03d19263          	bne	gp,t4,78d4 <fail>
    78b4:	00120213          	addi	tp,tp,1 # 1 <reset_vec+0x1>
    78b8:	00200293          	li	t0,2
    78bc:	fc521ae3          	bne	tp,t0,7890 <test_23+0x8>
    78c0:	0ef00513          	li	a0,239
    78c4:	00005597          	auipc	a1,0x5
    78c8:	aec58593          	addi	a1,a1,-1300 # c3b0 <tdat>
    78cc:	00a581a3          	sb	a0,3(a1)
    78d0:	05c01863          	bne	zero,t3,7920 <pass>

000078d4 <fail>:
    78d4:	00000513          	li	a0,0
    78d8:	10000537          	lui	a0,0x10000
    78dc:	04500593          	li	a1,69
    78e0:	05200613          	li	a2,82
    78e4:	04f00693          	li	a3,79
    78e8:	00b52023          	sw	a1,0(a0) # 10000000 <end+0xfff3903>
    78ec:	00c52023          	sw	a2,0(a0)
    78f0:	00c52023          	sw	a2,0(a0)
    78f4:	00d52023          	sw	a3,0(a0)
    78f8:	00c52023          	sw	a2,0(a0)
    78fc:	030e0593          	addi	a1,t3,48
    7900:	02000613          	li	a2,32
    7904:	03a00693          	li	a3,58
    7908:	00d52023          	sw	a3,0(a0)
    790c:	00c52023          	sw	a2,0(a0)
    7910:	00b52023          	sw	a1,0(a0)
    7914:	00a00713          	li	a4,10
    7918:	00e52023          	sw	a4,0(a0)
    791c:	879f806f          	j	194 <sb_ret>

00007920 <pass>:
    7920:	00000513          	li	a0,0
    7924:	10000537          	lui	a0,0x10000
    7928:	04f00593          	li	a1,79
    792c:	04b00613          	li	a2,75
    7930:	00a00693          	li	a3,10
    7934:	00b52023          	sw	a1,0(a0) # 10000000 <end+0xfff3903>
    7938:	00c52023          	sw	a2,0(a0)
    793c:	00d52023          	sw	a3,0(a0)
    7940:	855f806f          	j	194 <sb_ret>

00007944 <sh>:
    7944:	00008537          	lui	a0,0x8
    7948:	96850513          	addi	a0,a0,-1688 # 7968 <.test_name>
    794c:	00000613          	li	a2,0
    7950:	10000637          	lui	a2,0x10000

00007954 <.prname_next>:
    7954:	00050583          	lb	a1,0(a0)
    7958:	00058a63          	beqz	a1,796c <.prname_done>
    795c:	00b62023          	sw	a1,0(a2) # 10000000 <end+0xfff3903>
    7960:	00150513          	addi	a0,a0,1
    7964:	ff1ff06f          	j	7954 <.prname_next>

00007968 <.test_name>:
    7968:	00006873          	.word	0x00006873

0000796c <.prname_done>:
    796c:	00000613          	li	a2,0
    7970:	10000637          	lui	a2,0x10000
    7974:	02e00593          	li	a1,46
    7978:	00b62023          	sw	a1,0(a2) # 10000000 <end+0xfff3903>
    797c:	00b62023          	sw	a1,0(a2)

00007980 <test_2>:
    7980:	00005097          	auipc	ra,0x5
    7984:	a6c08093          	addi	ra,ra,-1428 # c3ec <tdat>
    7988:	0aa00113          	li	sp,170
    798c:	00209023          	sh	sp,0(ra)
    7990:	00009183          	lh	gp,0(ra)
    7994:	0aa00e93          	li	t4,170
    7998:	00200e13          	li	t3,2
    799c:	45d19e63          	bne	gp,t4,7df8 <fail>

000079a0 <test_3>:
    79a0:	00005097          	auipc	ra,0x5
    79a4:	a4c08093          	addi	ra,ra,-1460 # c3ec <tdat>
    79a8:	ffffb137          	lui	sp,0xffffb
    79ac:	a0010113          	addi	sp,sp,-1536 # ffffaa00 <end+0xfffee303>
    79b0:	00209123          	sh	sp,2(ra)
    79b4:	00209183          	lh	gp,2(ra)
    79b8:	ffffbeb7          	lui	t4,0xffffb
    79bc:	a00e8e93          	addi	t4,t4,-1536 # ffffaa00 <end+0xfffee303>
    79c0:	00300e13          	li	t3,3
    79c4:	43d19a63          	bne	gp,t4,7df8 <fail>

000079c8 <test_4>:
    79c8:	00005097          	auipc	ra,0x5
    79cc:	a2408093          	addi	ra,ra,-1500 # c3ec <tdat>
    79d0:	beef1137          	lui	sp,0xbeef1
    79d4:	aa010113          	addi	sp,sp,-1376 # beef0aa0 <end+0xbeee43a3>
    79d8:	00209223          	sh	sp,4(ra)
    79dc:	0040a183          	lw	gp,4(ra)
    79e0:	beef1eb7          	lui	t4,0xbeef1
    79e4:	aa0e8e93          	addi	t4,t4,-1376 # beef0aa0 <end+0xbeee43a3>
    79e8:	00400e13          	li	t3,4
    79ec:	41d19663          	bne	gp,t4,7df8 <fail>

000079f0 <test_5>:
    79f0:	00005097          	auipc	ra,0x5
    79f4:	9fc08093          	addi	ra,ra,-1540 # c3ec <tdat>
    79f8:	ffffa137          	lui	sp,0xffffa
    79fc:	00a10113          	addi	sp,sp,10 # ffffa00a <end+0xfffed90d>
    7a00:	00209323          	sh	sp,6(ra)
    7a04:	00609183          	lh	gp,6(ra)
    7a08:	ffffaeb7          	lui	t4,0xffffa
    7a0c:	00ae8e93          	addi	t4,t4,10 # ffffa00a <end+0xfffed90d>
    7a10:	00500e13          	li	t3,5
    7a14:	3fd19263          	bne	gp,t4,7df8 <fail>

00007a18 <test_6>:
    7a18:	00005097          	auipc	ra,0x5
    7a1c:	9e208093          	addi	ra,ra,-1566 # c3fa <tdat8>
    7a20:	0aa00113          	li	sp,170
    7a24:	fe209d23          	sh	sp,-6(ra)
    7a28:	ffa09183          	lh	gp,-6(ra)
    7a2c:	0aa00e93          	li	t4,170
    7a30:	00600e13          	li	t3,6
    7a34:	3dd19263          	bne	gp,t4,7df8 <fail>

00007a38 <test_7>:
    7a38:	00005097          	auipc	ra,0x5
    7a3c:	9c208093          	addi	ra,ra,-1598 # c3fa <tdat8>
    7a40:	ffffb137          	lui	sp,0xffffb
    7a44:	a0010113          	addi	sp,sp,-1536 # ffffaa00 <end+0xfffee303>
    7a48:	fe209e23          	sh	sp,-4(ra)
    7a4c:	ffc09183          	lh	gp,-4(ra)
    7a50:	ffffbeb7          	lui	t4,0xffffb
    7a54:	a00e8e93          	addi	t4,t4,-1536 # ffffaa00 <end+0xfffee303>
    7a58:	00700e13          	li	t3,7
    7a5c:	39d19e63          	bne	gp,t4,7df8 <fail>

00007a60 <test_8>:
    7a60:	00005097          	auipc	ra,0x5
    7a64:	99a08093          	addi	ra,ra,-1638 # c3fa <tdat8>
    7a68:	00001137          	lui	sp,0x1
    7a6c:	aa010113          	addi	sp,sp,-1376 # aa0 <printint+0x2cc>
    7a70:	fe209f23          	sh	sp,-2(ra)
    7a74:	ffe09183          	lh	gp,-2(ra)
    7a78:	00001eb7          	lui	t4,0x1
    7a7c:	aa0e8e93          	addi	t4,t4,-1376 # aa0 <printint+0x2cc>
    7a80:	00800e13          	li	t3,8
    7a84:	37d19a63          	bne	gp,t4,7df8 <fail>

00007a88 <test_9>:
    7a88:	00005097          	auipc	ra,0x5
    7a8c:	97208093          	addi	ra,ra,-1678 # c3fa <tdat8>
    7a90:	ffffa137          	lui	sp,0xffffa
    7a94:	00a10113          	addi	sp,sp,10 # ffffa00a <end+0xfffed90d>
    7a98:	00209023          	sh	sp,0(ra)
    7a9c:	00009183          	lh	gp,0(ra)
    7aa0:	ffffaeb7          	lui	t4,0xffffa
    7aa4:	00ae8e93          	addi	t4,t4,10 # ffffa00a <end+0xfffed90d>
    7aa8:	00900e13          	li	t3,9
    7aac:	35d19663          	bne	gp,t4,7df8 <fail>

00007ab0 <test_10>:
    7ab0:	00005097          	auipc	ra,0x5
    7ab4:	94c08093          	addi	ra,ra,-1716 # c3fc <tdat9>
    7ab8:	12345137          	lui	sp,0x12345
    7abc:	67810113          	addi	sp,sp,1656 # 12345678 <end+0x12338f7b>
    7ac0:	fe008213          	addi	tp,ra,-32
    7ac4:	02221023          	sh	sp,32(tp) # 20 <start+0x1c>
    7ac8:	00009183          	lh	gp,0(ra)
    7acc:	00005eb7          	lui	t4,0x5
    7ad0:	678e8e93          	addi	t4,t4,1656 # 5678 <test_25+0x8>
    7ad4:	00a00e13          	li	t3,10
    7ad8:	33d19063          	bne	gp,t4,7df8 <fail>

00007adc <test_11>:
    7adc:	00005097          	auipc	ra,0x5
    7ae0:	92008093          	addi	ra,ra,-1760 # c3fc <tdat9>
    7ae4:	00003137          	lui	sp,0x3
    7ae8:	09810113          	addi	sp,sp,152 # 3098 <test_2+0x18>
    7aec:	ffb08093          	addi	ra,ra,-5
    7af0:	002093a3          	sh	sp,7(ra)
    7af4:	00005217          	auipc	tp,0x5
    7af8:	90a20213          	addi	tp,tp,-1782 # c3fe <tdat10>
    7afc:	00021183          	lh	gp,0(tp) # 0 <reset_vec>
    7b00:	00003eb7          	lui	t4,0x3
    7b04:	098e8e93          	addi	t4,t4,152 # 3098 <test_2+0x18>
    7b08:	00b00e13          	li	t3,11
    7b0c:	2fd19663          	bne	gp,t4,7df8 <fail>

00007b10 <test_12>:
    7b10:	00c00e13          	li	t3,12
    7b14:	00000213          	li	tp,0
    7b18:	ffffd0b7          	lui	ra,0xffffd
    7b1c:	cdd08093          	addi	ra,ra,-803 # ffffccdd <end+0xffff05e0>
    7b20:	00005117          	auipc	sp,0x5
    7b24:	8cc10113          	addi	sp,sp,-1844 # c3ec <tdat>
    7b28:	00111023          	sh	ra,0(sp)
    7b2c:	00011183          	lh	gp,0(sp)
    7b30:	ffffdeb7          	lui	t4,0xffffd
    7b34:	cdde8e93          	addi	t4,t4,-803 # ffffccdd <end+0xffff05e0>
    7b38:	2dd19063          	bne	gp,t4,7df8 <fail>
    7b3c:	00120213          	addi	tp,tp,1 # 1 <reset_vec+0x1>
    7b40:	00200293          	li	t0,2
    7b44:	fc521ae3          	bne	tp,t0,7b18 <test_12+0x8>

00007b48 <test_13>:
    7b48:	00d00e13          	li	t3,13
    7b4c:	00000213          	li	tp,0
    7b50:	ffffc0b7          	lui	ra,0xffffc
    7b54:	ccd08093          	addi	ra,ra,-819 # ffffbccd <end+0xfffef5d0>
    7b58:	00005117          	auipc	sp,0x5
    7b5c:	89410113          	addi	sp,sp,-1900 # c3ec <tdat>
    7b60:	00000013          	nop
    7b64:	00111123          	sh	ra,2(sp)
    7b68:	00211183          	lh	gp,2(sp)
    7b6c:	ffffceb7          	lui	t4,0xffffc
    7b70:	ccde8e93          	addi	t4,t4,-819 # ffffbccd <end+0xfffef5d0>
    7b74:	29d19263          	bne	gp,t4,7df8 <fail>
    7b78:	00120213          	addi	tp,tp,1 # 1 <reset_vec+0x1>
    7b7c:	00200293          	li	t0,2
    7b80:	fc5218e3          	bne	tp,t0,7b50 <test_13+0x8>

00007b84 <test_14>:
    7b84:	00e00e13          	li	t3,14
    7b88:	00000213          	li	tp,0
    7b8c:	ffffc0b7          	lui	ra,0xffffc
    7b90:	bcc08093          	addi	ra,ra,-1076 # ffffbbcc <end+0xfffef4cf>
    7b94:	00005117          	auipc	sp,0x5
    7b98:	85810113          	addi	sp,sp,-1960 # c3ec <tdat>
    7b9c:	00000013          	nop
    7ba0:	00000013          	nop
    7ba4:	00111223          	sh	ra,4(sp)
    7ba8:	00411183          	lh	gp,4(sp)
    7bac:	ffffceb7          	lui	t4,0xffffc
    7bb0:	bcce8e93          	addi	t4,t4,-1076 # ffffbbcc <end+0xfffef4cf>
    7bb4:	25d19263          	bne	gp,t4,7df8 <fail>
    7bb8:	00120213          	addi	tp,tp,1 # 1 <reset_vec+0x1>
    7bbc:	00200293          	li	t0,2
    7bc0:	fc5216e3          	bne	tp,t0,7b8c <test_14+0x8>

00007bc4 <test_15>:
    7bc4:	00f00e13          	li	t3,15
    7bc8:	00000213          	li	tp,0
    7bcc:	ffffb0b7          	lui	ra,0xffffb
    7bd0:	bbc08093          	addi	ra,ra,-1092 # ffffabbc <end+0xfffee4bf>
    7bd4:	00000013          	nop
    7bd8:	00005117          	auipc	sp,0x5
    7bdc:	81410113          	addi	sp,sp,-2028 # c3ec <tdat>
    7be0:	00111323          	sh	ra,6(sp)
    7be4:	00611183          	lh	gp,6(sp)
    7be8:	ffffbeb7          	lui	t4,0xffffb
    7bec:	bbce8e93          	addi	t4,t4,-1092 # ffffabbc <end+0xfffee4bf>
    7bf0:	21d19463          	bne	gp,t4,7df8 <fail>
    7bf4:	00120213          	addi	tp,tp,1 # 1 <reset_vec+0x1>
    7bf8:	00200293          	li	t0,2
    7bfc:	fc5218e3          	bne	tp,t0,7bcc <test_15+0x8>

00007c00 <test_16>:
    7c00:	01000e13          	li	t3,16
    7c04:	00000213          	li	tp,0
    7c08:	ffffb0b7          	lui	ra,0xffffb
    7c0c:	abb08093          	addi	ra,ra,-1349 # ffffaabb <end+0xfffee3be>
    7c10:	00000013          	nop
    7c14:	00004117          	auipc	sp,0x4
    7c18:	7d810113          	addi	sp,sp,2008 # c3ec <tdat>
    7c1c:	00000013          	nop
    7c20:	00111423          	sh	ra,8(sp)
    7c24:	00811183          	lh	gp,8(sp)
    7c28:	ffffbeb7          	lui	t4,0xffffb
    7c2c:	abbe8e93          	addi	t4,t4,-1349 # ffffaabb <end+0xfffee3be>
    7c30:	1dd19463          	bne	gp,t4,7df8 <fail>
    7c34:	00120213          	addi	tp,tp,1 # 1 <reset_vec+0x1>
    7c38:	00200293          	li	t0,2
    7c3c:	fc5216e3          	bne	tp,t0,7c08 <test_16+0x8>

00007c40 <test_17>:
    7c40:	01100e13          	li	t3,17
    7c44:	00000213          	li	tp,0
    7c48:	ffffe0b7          	lui	ra,0xffffe
    7c4c:	aab08093          	addi	ra,ra,-1365 # ffffdaab <end+0xffff13ae>
    7c50:	00000013          	nop
    7c54:	00000013          	nop
    7c58:	00004117          	auipc	sp,0x4
    7c5c:	79410113          	addi	sp,sp,1940 # c3ec <tdat>
    7c60:	00111523          	sh	ra,10(sp)
    7c64:	00a11183          	lh	gp,10(sp)
    7c68:	ffffeeb7          	lui	t4,0xffffe
    7c6c:	aabe8e93          	addi	t4,t4,-1365 # ffffdaab <end+0xffff13ae>
    7c70:	19d19463          	bne	gp,t4,7df8 <fail>
    7c74:	00120213          	addi	tp,tp,1 # 1 <reset_vec+0x1>
    7c78:	00200293          	li	t0,2
    7c7c:	fc5216e3          	bne	tp,t0,7c48 <test_17+0x8>

00007c80 <test_18>:
    7c80:	01200e13          	li	t3,18
    7c84:	00000213          	li	tp,0
    7c88:	00004117          	auipc	sp,0x4
    7c8c:	76410113          	addi	sp,sp,1892 # c3ec <tdat>
    7c90:	000020b7          	lui	ra,0x2
    7c94:	23308093          	addi	ra,ra,563 # 2233 <test_5+0x7>
    7c98:	00111023          	sh	ra,0(sp)
    7c9c:	00011183          	lh	gp,0(sp)
    7ca0:	00002eb7          	lui	t4,0x2
    7ca4:	233e8e93          	addi	t4,t4,563 # 2233 <test_5+0x7>
    7ca8:	15d19863          	bne	gp,t4,7df8 <fail>
    7cac:	00120213          	addi	tp,tp,1 # 1 <reset_vec+0x1>
    7cb0:	00200293          	li	t0,2
    7cb4:	fc521ae3          	bne	tp,t0,7c88 <test_18+0x8>

00007cb8 <test_19>:
    7cb8:	01300e13          	li	t3,19
    7cbc:	00000213          	li	tp,0
    7cc0:	00004117          	auipc	sp,0x4
    7cc4:	72c10113          	addi	sp,sp,1836 # c3ec <tdat>
    7cc8:	000010b7          	lui	ra,0x1
    7ccc:	22308093          	addi	ra,ra,547 # 1223 <fflush_wait+0xf>
    7cd0:	00000013          	nop
    7cd4:	00111123          	sh	ra,2(sp)
    7cd8:	00211183          	lh	gp,2(sp)
    7cdc:	00001eb7          	lui	t4,0x1
    7ce0:	223e8e93          	addi	t4,t4,547 # 1223 <fflush_wait+0xf>
    7ce4:	11d19a63          	bne	gp,t4,7df8 <fail>
    7ce8:	00120213          	addi	tp,tp,1 # 1 <reset_vec+0x1>
    7cec:	00200293          	li	t0,2
    7cf0:	fc5218e3          	bne	tp,t0,7cc0 <test_19+0x8>

00007cf4 <test_20>:
    7cf4:	01400e13          	li	t3,20
    7cf8:	00000213          	li	tp,0
    7cfc:	00004117          	auipc	sp,0x4
    7d00:	6f010113          	addi	sp,sp,1776 # c3ec <tdat>
    7d04:	000010b7          	lui	ra,0x1
    7d08:	12208093          	addi	ra,ra,290 # 1122 <trap_entry+0x2a>
    7d0c:	00000013          	nop
    7d10:	00000013          	nop
    7d14:	00111223          	sh	ra,4(sp)
    7d18:	00411183          	lh	gp,4(sp)
    7d1c:	00001eb7          	lui	t4,0x1
    7d20:	122e8e93          	addi	t4,t4,290 # 1122 <trap_entry+0x2a>
    7d24:	0dd19a63          	bne	gp,t4,7df8 <fail>
    7d28:	00120213          	addi	tp,tp,1 # 1 <reset_vec+0x1>
    7d2c:	00200293          	li	t0,2
    7d30:	fc5216e3          	bne	tp,t0,7cfc <test_20+0x8>

00007d34 <test_21>:
    7d34:	01500e13          	li	t3,21
    7d38:	00000213          	li	tp,0
    7d3c:	00004117          	auipc	sp,0x4
    7d40:	6b010113          	addi	sp,sp,1712 # c3ec <tdat>
    7d44:	00000013          	nop
    7d48:	11200093          	li	ra,274
    7d4c:	00111323          	sh	ra,6(sp)
    7d50:	00611183          	lh	gp,6(sp)
    7d54:	11200e93          	li	t4,274
    7d58:	0bd19063          	bne	gp,t4,7df8 <fail>
    7d5c:	00120213          	addi	tp,tp,1 # 1 <reset_vec+0x1>
    7d60:	00200293          	li	t0,2
    7d64:	fc521ce3          	bne	tp,t0,7d3c <test_21+0x8>

00007d68 <test_22>:
    7d68:	01600e13          	li	t3,22
    7d6c:	00000213          	li	tp,0
    7d70:	00004117          	auipc	sp,0x4
    7d74:	67c10113          	addi	sp,sp,1660 # c3ec <tdat>
    7d78:	00000013          	nop
    7d7c:	01100093          	li	ra,17
    7d80:	00000013          	nop
    7d84:	00111423          	sh	ra,8(sp)
    7d88:	00811183          	lh	gp,8(sp)
    7d8c:	01100e93          	li	t4,17
    7d90:	07d19463          	bne	gp,t4,7df8 <fail>
    7d94:	00120213          	addi	tp,tp,1 # 1 <reset_vec+0x1>
    7d98:	00200293          	li	t0,2
    7d9c:	fc521ae3          	bne	tp,t0,7d70 <test_22+0x8>

00007da0 <test_23>:
    7da0:	01700e13          	li	t3,23
    7da4:	00000213          	li	tp,0
    7da8:	00004117          	auipc	sp,0x4
    7dac:	64410113          	addi	sp,sp,1604 # c3ec <tdat>
    7db0:	00000013          	nop
    7db4:	00000013          	nop
    7db8:	000030b7          	lui	ra,0x3
    7dbc:	00108093          	addi	ra,ra,1 # 3001 <fail+0x2d>
    7dc0:	00111523          	sh	ra,10(sp)
    7dc4:	00a11183          	lh	gp,10(sp)
    7dc8:	00003eb7          	lui	t4,0x3
    7dcc:	001e8e93          	addi	t4,t4,1 # 3001 <fail+0x2d>
    7dd0:	03d19463          	bne	gp,t4,7df8 <fail>
    7dd4:	00120213          	addi	tp,tp,1 # 1 <reset_vec+0x1>
    7dd8:	00200293          	li	t0,2
    7ddc:	fc5216e3          	bne	tp,t0,7da8 <test_23+0x8>
    7de0:	0000c537          	lui	a0,0xc
    7de4:	eef50513          	addi	a0,a0,-273 # beef <digits.0+0x2db>
    7de8:	00004597          	auipc	a1,0x4
    7dec:	60458593          	addi	a1,a1,1540 # c3ec <tdat>
    7df0:	00a59323          	sh	a0,6(a1)
    7df4:	05c01863          	bne	zero,t3,7e44 <pass>

00007df8 <fail>:
    7df8:	00000513          	li	a0,0
    7dfc:	10000537          	lui	a0,0x10000
    7e00:	04500593          	li	a1,69
    7e04:	05200613          	li	a2,82
    7e08:	04f00693          	li	a3,79
    7e0c:	00b52023          	sw	a1,0(a0) # 10000000 <end+0xfff3903>
    7e10:	00c52023          	sw	a2,0(a0)
    7e14:	00c52023          	sw	a2,0(a0)
    7e18:	00d52023          	sw	a3,0(a0)
    7e1c:	00c52023          	sw	a2,0(a0)
    7e20:	030e0593          	addi	a1,t3,48
    7e24:	02000613          	li	a2,32
    7e28:	03a00693          	li	a3,58
    7e2c:	00d52023          	sw	a3,0(a0)
    7e30:	00c52023          	sw	a2,0(a0)
    7e34:	00b52023          	sw	a1,0(a0)
    7e38:	00a00713          	li	a4,10
    7e3c:	00e52023          	sw	a4,0(a0)
    7e40:	b5cf806f          	j	19c <sh_ret>

00007e44 <pass>:
    7e44:	00000513          	li	a0,0
    7e48:	10000537          	lui	a0,0x10000
    7e4c:	04f00593          	li	a1,79
    7e50:	04b00613          	li	a2,75
    7e54:	00a00693          	li	a3,10
    7e58:	00b52023          	sw	a1,0(a0) # 10000000 <end+0xfff3903>
    7e5c:	00c52023          	sw	a2,0(a0)
    7e60:	00d52023          	sw	a3,0(a0)
    7e64:	b38f806f          	j	19c <sh_ret>

00007e68 <simple>:
    7e68:	00008537          	lui	a0,0x8
    7e6c:	e8c50513          	addi	a0,a0,-372 # 7e8c <.test_name>
    7e70:	00000613          	li	a2,0
    7e74:	10000637          	lui	a2,0x10000

00007e78 <.prname_next>:
    7e78:	00050583          	lb	a1,0(a0)
    7e7c:	00058c63          	beqz	a1,7e94 <.prname_done>
    7e80:	00b62023          	sw	a1,0(a2) # 10000000 <end+0xfff3903>
    7e84:	00150513          	addi	a0,a0,1
    7e88:	ff1ff06f          	j	7e78 <.prname_next>

00007e8c <.test_name>:
    7e8c:	706d6973          	.word	0x706d6973
    7e90:	0000656c          	.word	0x0000656c

00007e94 <.prname_done>:
    7e94:	00000613          	li	a2,0
    7e98:	10000637          	lui	a2,0x10000
    7e9c:	02e00593          	li	a1,46
    7ea0:	00b62023          	sw	a1,0(a2) # 10000000 <end+0xfff3903>
    7ea4:	00b62023          	sw	a1,0(a2)
    7ea8:	00000513          	li	a0,0
    7eac:	10000537          	lui	a0,0x10000
    7eb0:	04f00593          	li	a1,79
    7eb4:	04b00613          	li	a2,75
    7eb8:	00a00693          	li	a3,10
    7ebc:	00b52023          	sw	a1,0(a0) # 10000000 <end+0xfff3903>
    7ec0:	00c52023          	sw	a2,0(a0)
    7ec4:	00d52023          	sw	a3,0(a0)
    7ec8:	b6cf806f          	j	234 <simple_ret>

00007ecc <sll>:
    7ecc:	00008537          	lui	a0,0x8
    7ed0:	ef050513          	addi	a0,a0,-272 # 7ef0 <.test_name>
    7ed4:	00000613          	li	a2,0
    7ed8:	10000637          	lui	a2,0x10000

00007edc <.prname_next>:
    7edc:	00050583          	lb	a1,0(a0)
    7ee0:	00058a63          	beqz	a1,7ef4 <.prname_done>
    7ee4:	00b62023          	sw	a1,0(a2) # 10000000 <end+0xfff3903>
    7ee8:	00150513          	addi	a0,a0,1
    7eec:	ff1ff06f          	j	7edc <.prname_next>

00007ef0 <.test_name>:
    7ef0:	006c6c73          	.word	0x006c6c73

00007ef4 <.prname_done>:
    7ef4:	00000613          	li	a2,0
    7ef8:	10000637          	lui	a2,0x10000
    7efc:	02e00593          	li	a1,46
    7f00:	00b62023          	sw	a1,0(a2) # 10000000 <end+0xfff3903>
    7f04:	00b62023          	sw	a1,0(a2)

00007f08 <test_2>:
    7f08:	00100093          	li	ra,1
    7f0c:	00000113          	li	sp,0
    7f10:	002091b3          	sll	gp,ra,sp
    7f14:	00100e93          	li	t4,1
    7f18:	00200e13          	li	t3,2
    7f1c:	55d19c63          	bne	gp,t4,8474 <fail>

00007f20 <test_3>:
    7f20:	00100093          	li	ra,1
    7f24:	00100113          	li	sp,1
    7f28:	002091b3          	sll	gp,ra,sp
    7f2c:	00200e93          	li	t4,2
    7f30:	00300e13          	li	t3,3
    7f34:	55d19063          	bne	gp,t4,8474 <fail>

00007f38 <test_4>:
    7f38:	00100093          	li	ra,1
    7f3c:	00700113          	li	sp,7
    7f40:	002091b3          	sll	gp,ra,sp
    7f44:	08000e93          	li	t4,128
    7f48:	00400e13          	li	t3,4
    7f4c:	53d19463          	bne	gp,t4,8474 <fail>

00007f50 <test_5>:
    7f50:	00100093          	li	ra,1
    7f54:	00e00113          	li	sp,14
    7f58:	002091b3          	sll	gp,ra,sp
    7f5c:	00004eb7          	lui	t4,0x4
    7f60:	00500e13          	li	t3,5
    7f64:	51d19863          	bne	gp,t4,8474 <fail>

00007f68 <test_6>:
    7f68:	00100093          	li	ra,1
    7f6c:	01f00113          	li	sp,31
    7f70:	002091b3          	sll	gp,ra,sp
    7f74:	80000eb7          	lui	t4,0x80000
    7f78:	00600e13          	li	t3,6
    7f7c:	4fd19c63          	bne	gp,t4,8474 <fail>

00007f80 <test_7>:
    7f80:	fff00093          	li	ra,-1
    7f84:	00000113          	li	sp,0
    7f88:	002091b3          	sll	gp,ra,sp
    7f8c:	fff00e93          	li	t4,-1
    7f90:	00700e13          	li	t3,7
    7f94:	4fd19063          	bne	gp,t4,8474 <fail>

00007f98 <test_8>:
    7f98:	fff00093          	li	ra,-1
    7f9c:	00100113          	li	sp,1
    7fa0:	002091b3          	sll	gp,ra,sp
    7fa4:	ffe00e93          	li	t4,-2
    7fa8:	00800e13          	li	t3,8
    7fac:	4dd19463          	bne	gp,t4,8474 <fail>

00007fb0 <test_9>:
    7fb0:	fff00093          	li	ra,-1
    7fb4:	00700113          	li	sp,7
    7fb8:	002091b3          	sll	gp,ra,sp
    7fbc:	f8000e93          	li	t4,-128
    7fc0:	00900e13          	li	t3,9
    7fc4:	4bd19863          	bne	gp,t4,8474 <fail>

00007fc8 <test_10>:
    7fc8:	fff00093          	li	ra,-1
    7fcc:	00e00113          	li	sp,14
    7fd0:	002091b3          	sll	gp,ra,sp
    7fd4:	ffffceb7          	lui	t4,0xffffc
    7fd8:	00a00e13          	li	t3,10
    7fdc:	49d19c63          	bne	gp,t4,8474 <fail>

00007fe0 <test_11>:
    7fe0:	fff00093          	li	ra,-1
    7fe4:	01f00113          	li	sp,31
    7fe8:	002091b3          	sll	gp,ra,sp
    7fec:	80000eb7          	lui	t4,0x80000
    7ff0:	00b00e13          	li	t3,11
    7ff4:	49d19063          	bne	gp,t4,8474 <fail>

00007ff8 <test_12>:
    7ff8:	212120b7          	lui	ra,0x21212
    7ffc:	12108093          	addi	ra,ra,289 # 21212121 <end+0x21205a24>
    8000:	00000113          	li	sp,0
    8004:	002091b3          	sll	gp,ra,sp
    8008:	21212eb7          	lui	t4,0x21212
    800c:	121e8e93          	addi	t4,t4,289 # 21212121 <end+0x21205a24>
    8010:	00c00e13          	li	t3,12
    8014:	47d19063          	bne	gp,t4,8474 <fail>

00008018 <test_13>:
    8018:	212120b7          	lui	ra,0x21212
    801c:	12108093          	addi	ra,ra,289 # 21212121 <end+0x21205a24>
    8020:	00100113          	li	sp,1
    8024:	002091b3          	sll	gp,ra,sp
    8028:	42424eb7          	lui	t4,0x42424
    802c:	242e8e93          	addi	t4,t4,578 # 42424242 <end+0x42417b45>
    8030:	00d00e13          	li	t3,13
    8034:	45d19063          	bne	gp,t4,8474 <fail>

00008038 <test_14>:
    8038:	212120b7          	lui	ra,0x21212
    803c:	12108093          	addi	ra,ra,289 # 21212121 <end+0x21205a24>
    8040:	00700113          	li	sp,7
    8044:	002091b3          	sll	gp,ra,sp
    8048:	90909eb7          	lui	t4,0x90909
    804c:	080e8e93          	addi	t4,t4,128 # 90909080 <end+0x908fc983>
    8050:	00e00e13          	li	t3,14
    8054:	43d19063          	bne	gp,t4,8474 <fail>

00008058 <test_15>:
    8058:	212120b7          	lui	ra,0x21212
    805c:	12108093          	addi	ra,ra,289 # 21212121 <end+0x21205a24>
    8060:	00e00113          	li	sp,14
    8064:	002091b3          	sll	gp,ra,sp
    8068:	48484eb7          	lui	t4,0x48484
    806c:	00f00e13          	li	t3,15
    8070:	41d19263          	bne	gp,t4,8474 <fail>

00008074 <test_16>:
    8074:	212120b7          	lui	ra,0x21212
    8078:	12108093          	addi	ra,ra,289 # 21212121 <end+0x21205a24>
    807c:	01f00113          	li	sp,31
    8080:	002091b3          	sll	gp,ra,sp
    8084:	80000eb7          	lui	t4,0x80000
    8088:	01000e13          	li	t3,16
    808c:	3fd19463          	bne	gp,t4,8474 <fail>

00008090 <test_17>:
    8090:	212120b7          	lui	ra,0x21212
    8094:	12108093          	addi	ra,ra,289 # 21212121 <end+0x21205a24>
    8098:	fe000113          	li	sp,-32
    809c:	002091b3          	sll	gp,ra,sp
    80a0:	21212eb7          	lui	t4,0x21212
    80a4:	121e8e93          	addi	t4,t4,289 # 21212121 <end+0x21205a24>
    80a8:	01100e13          	li	t3,17
    80ac:	3dd19463          	bne	gp,t4,8474 <fail>

000080b0 <test_18>:
    80b0:	212120b7          	lui	ra,0x21212
    80b4:	12108093          	addi	ra,ra,289 # 21212121 <end+0x21205a24>
    80b8:	fe100113          	li	sp,-31
    80bc:	002091b3          	sll	gp,ra,sp
    80c0:	42424eb7          	lui	t4,0x42424
    80c4:	242e8e93          	addi	t4,t4,578 # 42424242 <end+0x42417b45>
    80c8:	01200e13          	li	t3,18
    80cc:	3bd19463          	bne	gp,t4,8474 <fail>

000080d0 <test_19>:
    80d0:	212120b7          	lui	ra,0x21212
    80d4:	12108093          	addi	ra,ra,289 # 21212121 <end+0x21205a24>
    80d8:	fe700113          	li	sp,-25
    80dc:	002091b3          	sll	gp,ra,sp
    80e0:	90909eb7          	lui	t4,0x90909
    80e4:	080e8e93          	addi	t4,t4,128 # 90909080 <end+0x908fc983>
    80e8:	01300e13          	li	t3,19
    80ec:	39d19463          	bne	gp,t4,8474 <fail>

000080f0 <test_20>:
    80f0:	212120b7          	lui	ra,0x21212
    80f4:	12108093          	addi	ra,ra,289 # 21212121 <end+0x21205a24>
    80f8:	fee00113          	li	sp,-18
    80fc:	002091b3          	sll	gp,ra,sp
    8100:	48484eb7          	lui	t4,0x48484
    8104:	01400e13          	li	t3,20
    8108:	37d19663          	bne	gp,t4,8474 <fail>

0000810c <test_21>:
    810c:	212120b7          	lui	ra,0x21212
    8110:	12008093          	addi	ra,ra,288 # 21212120 <end+0x21205a23>
    8114:	fff00113          	li	sp,-1
    8118:	002091b3          	sll	gp,ra,sp
    811c:	00000e93          	li	t4,0
    8120:	01500e13          	li	t3,21
    8124:	35d19863          	bne	gp,t4,8474 <fail>

00008128 <test_22>:
    8128:	00100093          	li	ra,1
    812c:	00700113          	li	sp,7
    8130:	002090b3          	sll	ra,ra,sp
    8134:	08000e93          	li	t4,128
    8138:	01600e13          	li	t3,22
    813c:	33d09c63          	bne	ra,t4,8474 <fail>

00008140 <test_23>:
    8140:	00100093          	li	ra,1
    8144:	00e00113          	li	sp,14
    8148:	00209133          	sll	sp,ra,sp
    814c:	00004eb7          	lui	t4,0x4
    8150:	01700e13          	li	t3,23
    8154:	33d11063          	bne	sp,t4,8474 <fail>

00008158 <test_24>:
    8158:	00300093          	li	ra,3
    815c:	001090b3          	sll	ra,ra,ra
    8160:	01800e93          	li	t4,24
    8164:	01800e13          	li	t3,24
    8168:	31d09663          	bne	ra,t4,8474 <fail>

0000816c <test_25>:
    816c:	00000213          	li	tp,0
    8170:	00100093          	li	ra,1
    8174:	00700113          	li	sp,7
    8178:	002091b3          	sll	gp,ra,sp
    817c:	00018313          	mv	t1,gp
    8180:	00120213          	addi	tp,tp,1 # 1 <reset_vec+0x1>
    8184:	00200293          	li	t0,2
    8188:	fe5214e3          	bne	tp,t0,8170 <test_25+0x4>
    818c:	08000e93          	li	t4,128
    8190:	01900e13          	li	t3,25
    8194:	2fd31063          	bne	t1,t4,8474 <fail>

00008198 <test_26>:
    8198:	00000213          	li	tp,0
    819c:	00100093          	li	ra,1
    81a0:	00e00113          	li	sp,14
    81a4:	002091b3          	sll	gp,ra,sp
    81a8:	00000013          	nop
    81ac:	00018313          	mv	t1,gp
    81b0:	00120213          	addi	tp,tp,1 # 1 <reset_vec+0x1>
    81b4:	00200293          	li	t0,2
    81b8:	fe5212e3          	bne	tp,t0,819c <test_26+0x4>
    81bc:	00004eb7          	lui	t4,0x4
    81c0:	01a00e13          	li	t3,26
    81c4:	2bd31863          	bne	t1,t4,8474 <fail>

000081c8 <test_27>:
    81c8:	00000213          	li	tp,0
    81cc:	00100093          	li	ra,1
    81d0:	01f00113          	li	sp,31
    81d4:	002091b3          	sll	gp,ra,sp
    81d8:	00000013          	nop
    81dc:	00000013          	nop
    81e0:	00018313          	mv	t1,gp
    81e4:	00120213          	addi	tp,tp,1 # 1 <reset_vec+0x1>
    81e8:	00200293          	li	t0,2
    81ec:	fe5210e3          	bne	tp,t0,81cc <test_27+0x4>
    81f0:	80000eb7          	lui	t4,0x80000
    81f4:	01b00e13          	li	t3,27
    81f8:	27d31e63          	bne	t1,t4,8474 <fail>

000081fc <test_28>:
    81fc:	00000213          	li	tp,0
    8200:	00100093          	li	ra,1
    8204:	00700113          	li	sp,7
    8208:	002091b3          	sll	gp,ra,sp
    820c:	00120213          	addi	tp,tp,1 # 1 <reset_vec+0x1>
    8210:	00200293          	li	t0,2
    8214:	fe5216e3          	bne	tp,t0,8200 <test_28+0x4>
    8218:	08000e93          	li	t4,128
    821c:	01c00e13          	li	t3,28
    8220:	25d19a63          	bne	gp,t4,8474 <fail>

00008224 <test_29>:
    8224:	00000213          	li	tp,0
    8228:	00100093          	li	ra,1
    822c:	00e00113          	li	sp,14
    8230:	00000013          	nop
    8234:	002091b3          	sll	gp,ra,sp
    8238:	00120213          	addi	tp,tp,1 # 1 <reset_vec+0x1>
    823c:	00200293          	li	t0,2
    8240:	fe5214e3          	bne	tp,t0,8228 <test_29+0x4>
    8244:	00004eb7          	lui	t4,0x4
    8248:	01d00e13          	li	t3,29
    824c:	23d19463          	bne	gp,t4,8474 <fail>

00008250 <test_30>:
    8250:	00000213          	li	tp,0
    8254:	00100093          	li	ra,1
    8258:	01f00113          	li	sp,31
    825c:	00000013          	nop
    8260:	00000013          	nop
    8264:	002091b3          	sll	gp,ra,sp
    8268:	00120213          	addi	tp,tp,1 # 1 <reset_vec+0x1>
    826c:	00200293          	li	t0,2
    8270:	fe5212e3          	bne	tp,t0,8254 <test_30+0x4>
    8274:	80000eb7          	lui	t4,0x80000
    8278:	01e00e13          	li	t3,30
    827c:	1fd19c63          	bne	gp,t4,8474 <fail>

00008280 <test_31>:
    8280:	00000213          	li	tp,0
    8284:	00100093          	li	ra,1
    8288:	00000013          	nop
    828c:	00700113          	li	sp,7
    8290:	002091b3          	sll	gp,ra,sp
    8294:	00120213          	addi	tp,tp,1 # 1 <reset_vec+0x1>
    8298:	00200293          	li	t0,2
    829c:	fe5214e3          	bne	tp,t0,8284 <test_31+0x4>
    82a0:	08000e93          	li	t4,128
    82a4:	01f00e13          	li	t3,31
    82a8:	1dd19663          	bne	gp,t4,8474 <fail>

000082ac <test_32>:
    82ac:	00000213          	li	tp,0
    82b0:	00100093          	li	ra,1
    82b4:	00000013          	nop
    82b8:	00e00113          	li	sp,14
    82bc:	00000013          	nop
    82c0:	002091b3          	sll	gp,ra,sp
    82c4:	00120213          	addi	tp,tp,1 # 1 <reset_vec+0x1>
    82c8:	00200293          	li	t0,2
    82cc:	fe5212e3          	bne	tp,t0,82b0 <test_32+0x4>
    82d0:	00004eb7          	lui	t4,0x4
    82d4:	02000e13          	li	t3,32
    82d8:	19d19e63          	bne	gp,t4,8474 <fail>

000082dc <test_33>:
    82dc:	00000213          	li	tp,0
    82e0:	00100093          	li	ra,1
    82e4:	00000013          	nop
    82e8:	00000013          	nop
    82ec:	01f00113          	li	sp,31
    82f0:	002091b3          	sll	gp,ra,sp
    82f4:	00120213          	addi	tp,tp,1 # 1 <reset_vec+0x1>
    82f8:	00200293          	li	t0,2
    82fc:	fe5212e3          	bne	tp,t0,82e0 <test_33+0x4>
    8300:	80000eb7          	lui	t4,0x80000
    8304:	02100e13          	li	t3,33
    8308:	17d19663          	bne	gp,t4,8474 <fail>

0000830c <test_34>:
    830c:	00000213          	li	tp,0
    8310:	00700113          	li	sp,7
    8314:	00100093          	li	ra,1
    8318:	002091b3          	sll	gp,ra,sp
    831c:	00120213          	addi	tp,tp,1 # 1 <reset_vec+0x1>
    8320:	00200293          	li	t0,2
    8324:	fe5216e3          	bne	tp,t0,8310 <test_34+0x4>
    8328:	08000e93          	li	t4,128
    832c:	02200e13          	li	t3,34
    8330:	15d19263          	bne	gp,t4,8474 <fail>

00008334 <test_35>:
    8334:	00000213          	li	tp,0
    8338:	00e00113          	li	sp,14
    833c:	00100093          	li	ra,1
    8340:	00000013          	nop
    8344:	002091b3          	sll	gp,ra,sp
    8348:	00120213          	addi	tp,tp,1 # 1 <reset_vec+0x1>
    834c:	00200293          	li	t0,2
    8350:	fe5214e3          	bne	tp,t0,8338 <test_35+0x4>
    8354:	00004eb7          	lui	t4,0x4
    8358:	02300e13          	li	t3,35
    835c:	11d19c63          	bne	gp,t4,8474 <fail>

00008360 <test_36>:
    8360:	00000213          	li	tp,0
    8364:	01f00113          	li	sp,31
    8368:	00100093          	li	ra,1
    836c:	00000013          	nop
    8370:	00000013          	nop
    8374:	002091b3          	sll	gp,ra,sp
    8378:	00120213          	addi	tp,tp,1 # 1 <reset_vec+0x1>
    837c:	00200293          	li	t0,2
    8380:	fe5212e3          	bne	tp,t0,8364 <test_36+0x4>
    8384:	80000eb7          	lui	t4,0x80000
    8388:	02400e13          	li	t3,36
    838c:	0fd19463          	bne	gp,t4,8474 <fail>

00008390 <test_37>:
    8390:	00000213          	li	tp,0
    8394:	00700113          	li	sp,7
    8398:	00000013          	nop
    839c:	00100093          	li	ra,1
    83a0:	002091b3          	sll	gp,ra,sp
    83a4:	00120213          	addi	tp,tp,1 # 1 <reset_vec+0x1>
    83a8:	00200293          	li	t0,2
    83ac:	fe5214e3          	bne	tp,t0,8394 <test_37+0x4>
    83b0:	08000e93          	li	t4,128
    83b4:	02500e13          	li	t3,37
    83b8:	0bd19e63          	bne	gp,t4,8474 <fail>

000083bc <test_38>:
    83bc:	00000213          	li	tp,0
    83c0:	00e00113          	li	sp,14
    83c4:	00000013          	nop
    83c8:	00100093          	li	ra,1
    83cc:	00000013          	nop
    83d0:	002091b3          	sll	gp,ra,sp
    83d4:	00120213          	addi	tp,tp,1 # 1 <reset_vec+0x1>
    83d8:	00200293          	li	t0,2
    83dc:	fe5212e3          	bne	tp,t0,83c0 <test_38+0x4>
    83e0:	00004eb7          	lui	t4,0x4
    83e4:	02600e13          	li	t3,38
    83e8:	09d19663          	bne	gp,t4,8474 <fail>

000083ec <test_39>:
    83ec:	00000213          	li	tp,0
    83f0:	01f00113          	li	sp,31
    83f4:	00000013          	nop
    83f8:	00000013          	nop
    83fc:	00100093          	li	ra,1
    8400:	002091b3          	sll	gp,ra,sp
    8404:	00120213          	addi	tp,tp,1 # 1 <reset_vec+0x1>
    8408:	00200293          	li	t0,2
    840c:	fe5212e3          	bne	tp,t0,83f0 <test_39+0x4>
    8410:	80000eb7          	lui	t4,0x80000
    8414:	02700e13          	li	t3,39
    8418:	05d19e63          	bne	gp,t4,8474 <fail>

0000841c <test_40>:
    841c:	00f00093          	li	ra,15
    8420:	00101133          	sll	sp,zero,ra
    8424:	00000e93          	li	t4,0
    8428:	02800e13          	li	t3,40
    842c:	05d11463          	bne	sp,t4,8474 <fail>

00008430 <test_41>:
    8430:	02000093          	li	ra,32
    8434:	00009133          	sll	sp,ra,zero
    8438:	02000e93          	li	t4,32
    843c:	02900e13          	li	t3,41
    8440:	03d11a63          	bne	sp,t4,8474 <fail>

00008444 <test_42>:
    8444:	000010b3          	sll	ra,zero,zero
    8448:	00000e93          	li	t4,0
    844c:	02a00e13          	li	t3,42
    8450:	03d09263          	bne	ra,t4,8474 <fail>

00008454 <test_43>:
    8454:	40000093          	li	ra,1024
    8458:	00001137          	lui	sp,0x1
    845c:	80010113          	addi	sp,sp,-2048 # 800 <printint+0x2c>
    8460:	00209033          	sll	zero,ra,sp
    8464:	00000e93          	li	t4,0
    8468:	02b00e13          	li	t3,43
    846c:	01d01463          	bne	zero,t4,8474 <fail>
    8470:	05c01863          	bne	zero,t3,84c0 <pass>

00008474 <fail>:
    8474:	00000513          	li	a0,0
    8478:	10000537          	lui	a0,0x10000
    847c:	04500593          	li	a1,69
    8480:	05200613          	li	a2,82
    8484:	04f00693          	li	a3,79
    8488:	00b52023          	sw	a1,0(a0) # 10000000 <end+0xfff3903>
    848c:	00c52023          	sw	a2,0(a0)
    8490:	00c52023          	sw	a2,0(a0)
    8494:	00d52023          	sw	a3,0(a0)
    8498:	00c52023          	sw	a2,0(a0)
    849c:	030e0593          	addi	a1,t3,48
    84a0:	02000613          	li	a2,32
    84a4:	03a00693          	li	a3,58
    84a8:	00d52023          	sw	a3,0(a0)
    84ac:	00c52023          	sw	a2,0(a0)
    84b0:	00b52023          	sw	a1,0(a0)
    84b4:	00a00713          	li	a4,10
    84b8:	00e52023          	sw	a4,0(a0)
    84bc:	d41f706f          	j	1fc <sll_ret>

000084c0 <pass>:
    84c0:	00000513          	li	a0,0
    84c4:	10000537          	lui	a0,0x10000
    84c8:	04f00593          	li	a1,79
    84cc:	04b00613          	li	a2,75
    84d0:	00a00693          	li	a3,10
    84d4:	00b52023          	sw	a1,0(a0) # 10000000 <end+0xfff3903>
    84d8:	00c52023          	sw	a2,0(a0)
    84dc:	00d52023          	sw	a3,0(a0)
    84e0:	d1df706f          	j	1fc <sll_ret>

000084e4 <slli>:
    84e4:	00008537          	lui	a0,0x8
    84e8:	50850513          	addi	a0,a0,1288 # 8508 <.test_name>
    84ec:	00000613          	li	a2,0
    84f0:	10000637          	lui	a2,0x10000

000084f4 <.prname_next>:
    84f4:	00050583          	lb	a1,0(a0)
    84f8:	00058c63          	beqz	a1,8510 <.prname_done>
    84fc:	00b62023          	sw	a1,0(a2) # 10000000 <end+0xfff3903>
    8500:	00150513          	addi	a0,a0,1
    8504:	ff1ff06f          	j	84f4 <.prname_next>

00008508 <.test_name>:
    8508:	696c6c73          	.word	0x696c6c73
    850c:	00000000          	.word	0x00000000

00008510 <.prname_done>:
    8510:	00000613          	li	a2,0
    8514:	10000637          	lui	a2,0x10000
    8518:	02e00593          	li	a1,46
    851c:	00b62023          	sw	a1,0(a2) # 10000000 <end+0xfff3903>
    8520:	00b62023          	sw	a1,0(a2)

00008524 <test_2>:
    8524:	00100093          	li	ra,1
    8528:	00009193          	slli	gp,ra,0x0
    852c:	00100e93          	li	t4,1
    8530:	00200e13          	li	t3,2
    8534:	27d19a63          	bne	gp,t4,87a8 <fail>

00008538 <test_3>:
    8538:	00100093          	li	ra,1
    853c:	00109193          	slli	gp,ra,0x1
    8540:	00200e93          	li	t4,2
    8544:	00300e13          	li	t3,3
    8548:	27d19063          	bne	gp,t4,87a8 <fail>

0000854c <test_4>:
    854c:	00100093          	li	ra,1
    8550:	00709193          	slli	gp,ra,0x7
    8554:	08000e93          	li	t4,128
    8558:	00400e13          	li	t3,4
    855c:	25d19663          	bne	gp,t4,87a8 <fail>

00008560 <test_5>:
    8560:	00100093          	li	ra,1
    8564:	00e09193          	slli	gp,ra,0xe
    8568:	00004eb7          	lui	t4,0x4
    856c:	00500e13          	li	t3,5
    8570:	23d19c63          	bne	gp,t4,87a8 <fail>

00008574 <test_6>:
    8574:	00100093          	li	ra,1
    8578:	01f09193          	slli	gp,ra,0x1f
    857c:	80000eb7          	lui	t4,0x80000
    8580:	00600e13          	li	t3,6
    8584:	23d19263          	bne	gp,t4,87a8 <fail>

00008588 <test_7>:
    8588:	fff00093          	li	ra,-1
    858c:	00009193          	slli	gp,ra,0x0
    8590:	fff00e93          	li	t4,-1
    8594:	00700e13          	li	t3,7
    8598:	21d19863          	bne	gp,t4,87a8 <fail>

0000859c <test_8>:
    859c:	fff00093          	li	ra,-1
    85a0:	00109193          	slli	gp,ra,0x1
    85a4:	ffe00e93          	li	t4,-2
    85a8:	00800e13          	li	t3,8
    85ac:	1fd19e63          	bne	gp,t4,87a8 <fail>

000085b0 <test_9>:
    85b0:	fff00093          	li	ra,-1
    85b4:	00709193          	slli	gp,ra,0x7
    85b8:	f8000e93          	li	t4,-128
    85bc:	00900e13          	li	t3,9
    85c0:	1fd19463          	bne	gp,t4,87a8 <fail>

000085c4 <test_10>:
    85c4:	fff00093          	li	ra,-1
    85c8:	00e09193          	slli	gp,ra,0xe
    85cc:	ffffceb7          	lui	t4,0xffffc
    85d0:	00a00e13          	li	t3,10
    85d4:	1dd19a63          	bne	gp,t4,87a8 <fail>

000085d8 <test_11>:
    85d8:	fff00093          	li	ra,-1
    85dc:	01f09193          	slli	gp,ra,0x1f
    85e0:	80000eb7          	lui	t4,0x80000
    85e4:	00b00e13          	li	t3,11
    85e8:	1dd19063          	bne	gp,t4,87a8 <fail>

000085ec <test_12>:
    85ec:	212120b7          	lui	ra,0x21212
    85f0:	12108093          	addi	ra,ra,289 # 21212121 <end+0x21205a24>
    85f4:	00009193          	slli	gp,ra,0x0
    85f8:	21212eb7          	lui	t4,0x21212
    85fc:	121e8e93          	addi	t4,t4,289 # 21212121 <end+0x21205a24>
    8600:	00c00e13          	li	t3,12
    8604:	1bd19263          	bne	gp,t4,87a8 <fail>

00008608 <test_13>:
    8608:	212120b7          	lui	ra,0x21212
    860c:	12108093          	addi	ra,ra,289 # 21212121 <end+0x21205a24>
    8610:	00109193          	slli	gp,ra,0x1
    8614:	42424eb7          	lui	t4,0x42424
    8618:	242e8e93          	addi	t4,t4,578 # 42424242 <end+0x42417b45>
    861c:	00d00e13          	li	t3,13
    8620:	19d19463          	bne	gp,t4,87a8 <fail>

00008624 <test_14>:
    8624:	212120b7          	lui	ra,0x21212
    8628:	12108093          	addi	ra,ra,289 # 21212121 <end+0x21205a24>
    862c:	00709193          	slli	gp,ra,0x7
    8630:	90909eb7          	lui	t4,0x90909
    8634:	080e8e93          	addi	t4,t4,128 # 90909080 <end+0x908fc983>
    8638:	00e00e13          	li	t3,14
    863c:	17d19663          	bne	gp,t4,87a8 <fail>

00008640 <test_15>:
    8640:	212120b7          	lui	ra,0x21212
    8644:	12108093          	addi	ra,ra,289 # 21212121 <end+0x21205a24>
    8648:	00e09193          	slli	gp,ra,0xe
    864c:	48484eb7          	lui	t4,0x48484
    8650:	00f00e13          	li	t3,15
    8654:	15d19a63          	bne	gp,t4,87a8 <fail>

00008658 <test_16>:
    8658:	212120b7          	lui	ra,0x21212
    865c:	12108093          	addi	ra,ra,289 # 21212121 <end+0x21205a24>
    8660:	01f09193          	slli	gp,ra,0x1f
    8664:	80000eb7          	lui	t4,0x80000
    8668:	01000e13          	li	t3,16
    866c:	13d19e63          	bne	gp,t4,87a8 <fail>

00008670 <test_17>:
    8670:	00100093          	li	ra,1
    8674:	00709093          	slli	ra,ra,0x7
    8678:	08000e93          	li	t4,128
    867c:	01100e13          	li	t3,17
    8680:	13d09463          	bne	ra,t4,87a8 <fail>

00008684 <test_18>:
    8684:	00000213          	li	tp,0
    8688:	00100093          	li	ra,1
    868c:	00709193          	slli	gp,ra,0x7
    8690:	00018313          	mv	t1,gp
    8694:	00120213          	addi	tp,tp,1 # 1 <reset_vec+0x1>
    8698:	00200293          	li	t0,2
    869c:	fe5216e3          	bne	tp,t0,8688 <test_18+0x4>
    86a0:	08000e93          	li	t4,128
    86a4:	01200e13          	li	t3,18
    86a8:	11d31063          	bne	t1,t4,87a8 <fail>

000086ac <test_19>:
    86ac:	00000213          	li	tp,0
    86b0:	00100093          	li	ra,1
    86b4:	00e09193          	slli	gp,ra,0xe
    86b8:	00000013          	nop
    86bc:	00018313          	mv	t1,gp
    86c0:	00120213          	addi	tp,tp,1 # 1 <reset_vec+0x1>
    86c4:	00200293          	li	t0,2
    86c8:	fe5214e3          	bne	tp,t0,86b0 <test_19+0x4>
    86cc:	00004eb7          	lui	t4,0x4
    86d0:	01300e13          	li	t3,19
    86d4:	0dd31a63          	bne	t1,t4,87a8 <fail>

000086d8 <test_20>:
    86d8:	00000213          	li	tp,0
    86dc:	00100093          	li	ra,1
    86e0:	01f09193          	slli	gp,ra,0x1f
    86e4:	00000013          	nop
    86e8:	00000013          	nop
    86ec:	00018313          	mv	t1,gp
    86f0:	00120213          	addi	tp,tp,1 # 1 <reset_vec+0x1>
    86f4:	00200293          	li	t0,2
    86f8:	fe5212e3          	bne	tp,t0,86dc <test_20+0x4>
    86fc:	80000eb7          	lui	t4,0x80000
    8700:	01400e13          	li	t3,20
    8704:	0bd31263          	bne	t1,t4,87a8 <fail>

00008708 <test_21>:
    8708:	00000213          	li	tp,0
    870c:	00100093          	li	ra,1
    8710:	00709193          	slli	gp,ra,0x7
    8714:	00120213          	addi	tp,tp,1 # 1 <reset_vec+0x1>
    8718:	00200293          	li	t0,2
    871c:	fe5218e3          	bne	tp,t0,870c <test_21+0x4>
    8720:	08000e93          	li	t4,128
    8724:	01500e13          	li	t3,21
    8728:	09d19063          	bne	gp,t4,87a8 <fail>

0000872c <test_22>:
    872c:	00000213          	li	tp,0
    8730:	00100093          	li	ra,1
    8734:	00000013          	nop
    8738:	00e09193          	slli	gp,ra,0xe
    873c:	00120213          	addi	tp,tp,1 # 1 <reset_vec+0x1>
    8740:	00200293          	li	t0,2
    8744:	fe5216e3          	bne	tp,t0,8730 <test_22+0x4>
    8748:	00004eb7          	lui	t4,0x4
    874c:	01600e13          	li	t3,22
    8750:	05d19c63          	bne	gp,t4,87a8 <fail>

00008754 <test_23>:
    8754:	00000213          	li	tp,0
    8758:	00100093          	li	ra,1
    875c:	00000013          	nop
    8760:	00000013          	nop
    8764:	01f09193          	slli	gp,ra,0x1f
    8768:	00120213          	addi	tp,tp,1 # 1 <reset_vec+0x1>
    876c:	00200293          	li	t0,2
    8770:	fe5214e3          	bne	tp,t0,8758 <test_23+0x4>
    8774:	80000eb7          	lui	t4,0x80000
    8778:	01700e13          	li	t3,23
    877c:	03d19663          	bne	gp,t4,87a8 <fail>

00008780 <test_24>:
    8780:	01f01093          	slli	ra,zero,0x1f
    8784:	00000e93          	li	t4,0
    8788:	01800e13          	li	t3,24
    878c:	01d09e63          	bne	ra,t4,87a8 <fail>

00008790 <test_25>:
    8790:	02100093          	li	ra,33
    8794:	01409013          	slli	zero,ra,0x14
    8798:	00000e93          	li	t4,0
    879c:	01900e13          	li	t3,25
    87a0:	01d01463          	bne	zero,t4,87a8 <fail>
    87a4:	05c01863          	bne	zero,t3,87f4 <pass>

000087a8 <fail>:
    87a8:	00000513          	li	a0,0
    87ac:	10000537          	lui	a0,0x10000
    87b0:	04500593          	li	a1,69
    87b4:	05200613          	li	a2,82
    87b8:	04f00693          	li	a3,79
    87bc:	00b52023          	sw	a1,0(a0) # 10000000 <end+0xfff3903>
    87c0:	00c52023          	sw	a2,0(a0)
    87c4:	00c52023          	sw	a2,0(a0)
    87c8:	00d52023          	sw	a3,0(a0)
    87cc:	00c52023          	sw	a2,0(a0)
    87d0:	030e0593          	addi	a1,t3,48
    87d4:	02000613          	li	a2,32
    87d8:	03a00693          	li	a3,58
    87dc:	00d52023          	sw	a3,0(a0)
    87e0:	00c52023          	sw	a2,0(a0)
    87e4:	00b52023          	sw	a1,0(a0)
    87e8:	00a00713          	li	a4,10
    87ec:	00e52023          	sw	a4,0(a0)
    87f0:	9e5f706f          	j	1d4 <slli_ret>

000087f4 <pass>:
    87f4:	00000513          	li	a0,0
    87f8:	10000537          	lui	a0,0x10000
    87fc:	04f00593          	li	a1,79
    8800:	04b00613          	li	a2,75
    8804:	00a00693          	li	a3,10
    8808:	00b52023          	sw	a1,0(a0) # 10000000 <end+0xfff3903>
    880c:	00c52023          	sw	a2,0(a0)
    8810:	00d52023          	sw	a3,0(a0)
    8814:	9c1f706f          	j	1d4 <slli_ret>

00008818 <slt>:
    8818:	00009537          	lui	a0,0x9
    881c:	83c50513          	addi	a0,a0,-1988 # 883c <.test_name>
    8820:	00000613          	li	a2,0
    8824:	10000637          	lui	a2,0x10000

00008828 <.prname_next>:
    8828:	00050583          	lb	a1,0(a0)
    882c:	00058a63          	beqz	a1,8840 <.prname_done>
    8830:	00b62023          	sw	a1,0(a2) # 10000000 <end+0xfff3903>
    8834:	00150513          	addi	a0,a0,1
    8838:	ff1ff06f          	j	8828 <.prname_next>

0000883c <.test_name>:
    883c:	00746c73          	.word	0x00746c73

00008840 <.prname_done>:
    8840:	00000613          	li	a2,0
    8844:	10000637          	lui	a2,0x10000
    8848:	02e00593          	li	a1,46
    884c:	00b62023          	sw	a1,0(a2) # 10000000 <end+0xfff3903>
    8850:	00b62023          	sw	a1,0(a2)

00008854 <test_2>:
    8854:	00000093          	li	ra,0
    8858:	00000113          	li	sp,0
    885c:	0020a1b3          	slt	gp,ra,sp
    8860:	00000e93          	li	t4,0
    8864:	00200e13          	li	t3,2
    8868:	4bd19a63          	bne	gp,t4,8d1c <fail>

0000886c <test_3>:
    886c:	00100093          	li	ra,1
    8870:	00100113          	li	sp,1
    8874:	0020a1b3          	slt	gp,ra,sp
    8878:	00000e93          	li	t4,0
    887c:	00300e13          	li	t3,3
    8880:	49d19e63          	bne	gp,t4,8d1c <fail>

00008884 <test_4>:
    8884:	00300093          	li	ra,3
    8888:	00700113          	li	sp,7
    888c:	0020a1b3          	slt	gp,ra,sp
    8890:	00100e93          	li	t4,1
    8894:	00400e13          	li	t3,4
    8898:	49d19263          	bne	gp,t4,8d1c <fail>

0000889c <test_5>:
    889c:	00700093          	li	ra,7
    88a0:	00300113          	li	sp,3
    88a4:	0020a1b3          	slt	gp,ra,sp
    88a8:	00000e93          	li	t4,0
    88ac:	00500e13          	li	t3,5
    88b0:	47d19663          	bne	gp,t4,8d1c <fail>

000088b4 <test_6>:
    88b4:	00000093          	li	ra,0
    88b8:	ffff8137          	lui	sp,0xffff8
    88bc:	0020a1b3          	slt	gp,ra,sp
    88c0:	00000e93          	li	t4,0
    88c4:	00600e13          	li	t3,6
    88c8:	45d19a63          	bne	gp,t4,8d1c <fail>

000088cc <test_7>:
    88cc:	800000b7          	lui	ra,0x80000
    88d0:	00000113          	li	sp,0
    88d4:	0020a1b3          	slt	gp,ra,sp
    88d8:	00100e93          	li	t4,1
    88dc:	00700e13          	li	t3,7
    88e0:	43d19e63          	bne	gp,t4,8d1c <fail>

000088e4 <test_8>:
    88e4:	800000b7          	lui	ra,0x80000
    88e8:	ffff8137          	lui	sp,0xffff8
    88ec:	0020a1b3          	slt	gp,ra,sp
    88f0:	00100e93          	li	t4,1
    88f4:	00800e13          	li	t3,8
    88f8:	43d19263          	bne	gp,t4,8d1c <fail>

000088fc <test_9>:
    88fc:	00000093          	li	ra,0
    8900:	00008137          	lui	sp,0x8
    8904:	fff10113          	addi	sp,sp,-1 # 7fff <test_12+0x7>
    8908:	0020a1b3          	slt	gp,ra,sp
    890c:	00100e93          	li	t4,1
    8910:	00900e13          	li	t3,9
    8914:	41d19463          	bne	gp,t4,8d1c <fail>

00008918 <test_10>:
    8918:	800000b7          	lui	ra,0x80000
    891c:	fff08093          	addi	ra,ra,-1 # 7fffffff <end+0x7fff3902>
    8920:	00000113          	li	sp,0
    8924:	0020a1b3          	slt	gp,ra,sp
    8928:	00000e93          	li	t4,0
    892c:	00a00e13          	li	t3,10
    8930:	3fd19663          	bne	gp,t4,8d1c <fail>

00008934 <test_11>:
    8934:	800000b7          	lui	ra,0x80000
    8938:	fff08093          	addi	ra,ra,-1 # 7fffffff <end+0x7fff3902>
    893c:	00008137          	lui	sp,0x8
    8940:	fff10113          	addi	sp,sp,-1 # 7fff <test_12+0x7>
    8944:	0020a1b3          	slt	gp,ra,sp
    8948:	00000e93          	li	t4,0
    894c:	00b00e13          	li	t3,11
    8950:	3dd19663          	bne	gp,t4,8d1c <fail>

00008954 <test_12>:
    8954:	800000b7          	lui	ra,0x80000
    8958:	00008137          	lui	sp,0x8
    895c:	fff10113          	addi	sp,sp,-1 # 7fff <test_12+0x7>
    8960:	0020a1b3          	slt	gp,ra,sp
    8964:	00100e93          	li	t4,1
    8968:	00c00e13          	li	t3,12
    896c:	3bd19863          	bne	gp,t4,8d1c <fail>

00008970 <test_13>:
    8970:	800000b7          	lui	ra,0x80000
    8974:	fff08093          	addi	ra,ra,-1 # 7fffffff <end+0x7fff3902>
    8978:	ffff8137          	lui	sp,0xffff8
    897c:	0020a1b3          	slt	gp,ra,sp
    8980:	00000e93          	li	t4,0
    8984:	00d00e13          	li	t3,13
    8988:	39d19a63          	bne	gp,t4,8d1c <fail>

0000898c <test_14>:
    898c:	00000093          	li	ra,0
    8990:	fff00113          	li	sp,-1
    8994:	0020a1b3          	slt	gp,ra,sp
    8998:	00000e93          	li	t4,0
    899c:	00e00e13          	li	t3,14
    89a0:	37d19e63          	bne	gp,t4,8d1c <fail>

000089a4 <test_15>:
    89a4:	fff00093          	li	ra,-1
    89a8:	00100113          	li	sp,1
    89ac:	0020a1b3          	slt	gp,ra,sp
    89b0:	00100e93          	li	t4,1
    89b4:	00f00e13          	li	t3,15
    89b8:	37d19263          	bne	gp,t4,8d1c <fail>

000089bc <test_16>:
    89bc:	fff00093          	li	ra,-1
    89c0:	fff00113          	li	sp,-1
    89c4:	0020a1b3          	slt	gp,ra,sp
    89c8:	00000e93          	li	t4,0
    89cc:	01000e13          	li	t3,16
    89d0:	35d19663          	bne	gp,t4,8d1c <fail>

000089d4 <test_17>:
    89d4:	00e00093          	li	ra,14
    89d8:	00d00113          	li	sp,13
    89dc:	0020a0b3          	slt	ra,ra,sp
    89e0:	00000e93          	li	t4,0
    89e4:	01100e13          	li	t3,17
    89e8:	33d09a63          	bne	ra,t4,8d1c <fail>

000089ec <test_18>:
    89ec:	00b00093          	li	ra,11
    89f0:	00d00113          	li	sp,13
    89f4:	0020a133          	slt	sp,ra,sp
    89f8:	00100e93          	li	t4,1
    89fc:	01200e13          	li	t3,18
    8a00:	31d11e63          	bne	sp,t4,8d1c <fail>

00008a04 <test_19>:
    8a04:	00d00093          	li	ra,13
    8a08:	0010a0b3          	slt	ra,ra,ra
    8a0c:	00000e93          	li	t4,0
    8a10:	01300e13          	li	t3,19
    8a14:	31d09463          	bne	ra,t4,8d1c <fail>

00008a18 <test_20>:
    8a18:	00000213          	li	tp,0
    8a1c:	00b00093          	li	ra,11
    8a20:	00d00113          	li	sp,13
    8a24:	0020a1b3          	slt	gp,ra,sp
    8a28:	00018313          	mv	t1,gp
    8a2c:	00120213          	addi	tp,tp,1 # 1 <reset_vec+0x1>
    8a30:	00200293          	li	t0,2
    8a34:	fe5214e3          	bne	tp,t0,8a1c <test_20+0x4>
    8a38:	00100e93          	li	t4,1
    8a3c:	01400e13          	li	t3,20
    8a40:	2dd31e63          	bne	t1,t4,8d1c <fail>

00008a44 <test_21>:
    8a44:	00000213          	li	tp,0
    8a48:	00e00093          	li	ra,14
    8a4c:	00d00113          	li	sp,13
    8a50:	0020a1b3          	slt	gp,ra,sp
    8a54:	00000013          	nop
    8a58:	00018313          	mv	t1,gp
    8a5c:	00120213          	addi	tp,tp,1 # 1 <reset_vec+0x1>
    8a60:	00200293          	li	t0,2
    8a64:	fe5212e3          	bne	tp,t0,8a48 <test_21+0x4>
    8a68:	00000e93          	li	t4,0
    8a6c:	01500e13          	li	t3,21
    8a70:	2bd31663          	bne	t1,t4,8d1c <fail>

00008a74 <test_22>:
    8a74:	00000213          	li	tp,0
    8a78:	00c00093          	li	ra,12
    8a7c:	00d00113          	li	sp,13
    8a80:	0020a1b3          	slt	gp,ra,sp
    8a84:	00000013          	nop
    8a88:	00000013          	nop
    8a8c:	00018313          	mv	t1,gp
    8a90:	00120213          	addi	tp,tp,1 # 1 <reset_vec+0x1>
    8a94:	00200293          	li	t0,2
    8a98:	fe5210e3          	bne	tp,t0,8a78 <test_22+0x4>
    8a9c:	00100e93          	li	t4,1
    8aa0:	01600e13          	li	t3,22
    8aa4:	27d31c63          	bne	t1,t4,8d1c <fail>

00008aa8 <test_23>:
    8aa8:	00000213          	li	tp,0
    8aac:	00e00093          	li	ra,14
    8ab0:	00d00113          	li	sp,13
    8ab4:	0020a1b3          	slt	gp,ra,sp
    8ab8:	00120213          	addi	tp,tp,1 # 1 <reset_vec+0x1>
    8abc:	00200293          	li	t0,2
    8ac0:	fe5216e3          	bne	tp,t0,8aac <test_23+0x4>
    8ac4:	00000e93          	li	t4,0
    8ac8:	01700e13          	li	t3,23
    8acc:	25d19863          	bne	gp,t4,8d1c <fail>

00008ad0 <test_24>:
    8ad0:	00000213          	li	tp,0
    8ad4:	00b00093          	li	ra,11
    8ad8:	00d00113          	li	sp,13
    8adc:	00000013          	nop
    8ae0:	0020a1b3          	slt	gp,ra,sp
    8ae4:	00120213          	addi	tp,tp,1 # 1 <reset_vec+0x1>
    8ae8:	00200293          	li	t0,2
    8aec:	fe5214e3          	bne	tp,t0,8ad4 <test_24+0x4>
    8af0:	00100e93          	li	t4,1
    8af4:	01800e13          	li	t3,24
    8af8:	23d19263          	bne	gp,t4,8d1c <fail>

00008afc <test_25>:
    8afc:	00000213          	li	tp,0
    8b00:	00f00093          	li	ra,15
    8b04:	00d00113          	li	sp,13
    8b08:	00000013          	nop
    8b0c:	00000013          	nop
    8b10:	0020a1b3          	slt	gp,ra,sp
    8b14:	00120213          	addi	tp,tp,1 # 1 <reset_vec+0x1>
    8b18:	00200293          	li	t0,2
    8b1c:	fe5212e3          	bne	tp,t0,8b00 <test_25+0x4>
    8b20:	00000e93          	li	t4,0
    8b24:	01900e13          	li	t3,25
    8b28:	1fd19a63          	bne	gp,t4,8d1c <fail>

00008b2c <test_26>:
    8b2c:	00000213          	li	tp,0
    8b30:	00a00093          	li	ra,10
    8b34:	00000013          	nop
    8b38:	00d00113          	li	sp,13
    8b3c:	0020a1b3          	slt	gp,ra,sp
    8b40:	00120213          	addi	tp,tp,1 # 1 <reset_vec+0x1>
    8b44:	00200293          	li	t0,2
    8b48:	fe5214e3          	bne	tp,t0,8b30 <test_26+0x4>
    8b4c:	00100e93          	li	t4,1
    8b50:	01a00e13          	li	t3,26
    8b54:	1dd19463          	bne	gp,t4,8d1c <fail>

00008b58 <test_27>:
    8b58:	00000213          	li	tp,0
    8b5c:	01000093          	li	ra,16
    8b60:	00000013          	nop
    8b64:	00d00113          	li	sp,13
    8b68:	00000013          	nop
    8b6c:	0020a1b3          	slt	gp,ra,sp
    8b70:	00120213          	addi	tp,tp,1 # 1 <reset_vec+0x1>
    8b74:	00200293          	li	t0,2
    8b78:	fe5212e3          	bne	tp,t0,8b5c <test_27+0x4>
    8b7c:	00000e93          	li	t4,0
    8b80:	01b00e13          	li	t3,27
    8b84:	19d19c63          	bne	gp,t4,8d1c <fail>

00008b88 <test_28>:
    8b88:	00000213          	li	tp,0
    8b8c:	00900093          	li	ra,9
    8b90:	00000013          	nop
    8b94:	00000013          	nop
    8b98:	00d00113          	li	sp,13
    8b9c:	0020a1b3          	slt	gp,ra,sp
    8ba0:	00120213          	addi	tp,tp,1 # 1 <reset_vec+0x1>
    8ba4:	00200293          	li	t0,2
    8ba8:	fe5212e3          	bne	tp,t0,8b8c <test_28+0x4>
    8bac:	00100e93          	li	t4,1
    8bb0:	01c00e13          	li	t3,28
    8bb4:	17d19463          	bne	gp,t4,8d1c <fail>

00008bb8 <test_29>:
    8bb8:	00000213          	li	tp,0
    8bbc:	00d00113          	li	sp,13
    8bc0:	01100093          	li	ra,17
    8bc4:	0020a1b3          	slt	gp,ra,sp
    8bc8:	00120213          	addi	tp,tp,1 # 1 <reset_vec+0x1>
    8bcc:	00200293          	li	t0,2
    8bd0:	fe5216e3          	bne	tp,t0,8bbc <test_29+0x4>
    8bd4:	00000e93          	li	t4,0
    8bd8:	01d00e13          	li	t3,29
    8bdc:	15d19063          	bne	gp,t4,8d1c <fail>

00008be0 <test_30>:
    8be0:	00000213          	li	tp,0
    8be4:	00d00113          	li	sp,13
    8be8:	00800093          	li	ra,8
    8bec:	00000013          	nop
    8bf0:	0020a1b3          	slt	gp,ra,sp
    8bf4:	00120213          	addi	tp,tp,1 # 1 <reset_vec+0x1>
    8bf8:	00200293          	li	t0,2
    8bfc:	fe5214e3          	bne	tp,t0,8be4 <test_30+0x4>
    8c00:	00100e93          	li	t4,1
    8c04:	01e00e13          	li	t3,30
    8c08:	11d19a63          	bne	gp,t4,8d1c <fail>

00008c0c <test_31>:
    8c0c:	00000213          	li	tp,0
    8c10:	00d00113          	li	sp,13
    8c14:	01200093          	li	ra,18
    8c18:	00000013          	nop
    8c1c:	00000013          	nop
    8c20:	0020a1b3          	slt	gp,ra,sp
    8c24:	00120213          	addi	tp,tp,1 # 1 <reset_vec+0x1>
    8c28:	00200293          	li	t0,2
    8c2c:	fe5212e3          	bne	tp,t0,8c10 <test_31+0x4>
    8c30:	00000e93          	li	t4,0
    8c34:	01f00e13          	li	t3,31
    8c38:	0fd19263          	bne	gp,t4,8d1c <fail>

00008c3c <test_32>:
    8c3c:	00000213          	li	tp,0
    8c40:	00d00113          	li	sp,13
    8c44:	00000013          	nop
    8c48:	00700093          	li	ra,7
    8c4c:	0020a1b3          	slt	gp,ra,sp
    8c50:	00120213          	addi	tp,tp,1 # 1 <reset_vec+0x1>
    8c54:	00200293          	li	t0,2
    8c58:	fe5214e3          	bne	tp,t0,8c40 <test_32+0x4>
    8c5c:	00100e93          	li	t4,1
    8c60:	02000e13          	li	t3,32
    8c64:	0bd19c63          	bne	gp,t4,8d1c <fail>

00008c68 <test_33>:
    8c68:	00000213          	li	tp,0
    8c6c:	00d00113          	li	sp,13
    8c70:	00000013          	nop
    8c74:	01300093          	li	ra,19
    8c78:	00000013          	nop
    8c7c:	0020a1b3          	slt	gp,ra,sp
    8c80:	00120213          	addi	tp,tp,1 # 1 <reset_vec+0x1>
    8c84:	00200293          	li	t0,2
    8c88:	fe5212e3          	bne	tp,t0,8c6c <test_33+0x4>
    8c8c:	00000e93          	li	t4,0
    8c90:	02100e13          	li	t3,33
    8c94:	09d19463          	bne	gp,t4,8d1c <fail>

00008c98 <test_34>:
    8c98:	00000213          	li	tp,0
    8c9c:	00d00113          	li	sp,13
    8ca0:	00000013          	nop
    8ca4:	00000013          	nop
    8ca8:	00600093          	li	ra,6
    8cac:	0020a1b3          	slt	gp,ra,sp
    8cb0:	00120213          	addi	tp,tp,1 # 1 <reset_vec+0x1>
    8cb4:	00200293          	li	t0,2
    8cb8:	fe5212e3          	bne	tp,t0,8c9c <test_34+0x4>
    8cbc:	00100e93          	li	t4,1
    8cc0:	02200e13          	li	t3,34
    8cc4:	05d19c63          	bne	gp,t4,8d1c <fail>

00008cc8 <test_35>:
    8cc8:	fff00093          	li	ra,-1
    8ccc:	00102133          	sgtz	sp,ra
    8cd0:	00000e93          	li	t4,0
    8cd4:	02300e13          	li	t3,35
    8cd8:	05d11263          	bne	sp,t4,8d1c <fail>

00008cdc <test_36>:
    8cdc:	fff00093          	li	ra,-1
    8ce0:	0000a133          	sltz	sp,ra
    8ce4:	00100e93          	li	t4,1
    8ce8:	02400e13          	li	t3,36
    8cec:	03d11863          	bne	sp,t4,8d1c <fail>

00008cf0 <test_37>:
    8cf0:	000020b3          	sltz	ra,zero
    8cf4:	00000e93          	li	t4,0
    8cf8:	02500e13          	li	t3,37
    8cfc:	03d09063          	bne	ra,t4,8d1c <fail>

00008d00 <test_38>:
    8d00:	01000093          	li	ra,16
    8d04:	01e00113          	li	sp,30
    8d08:	0020a033          	slt	zero,ra,sp
    8d0c:	00000e93          	li	t4,0
    8d10:	02600e13          	li	t3,38
    8d14:	01d01463          	bne	zero,t4,8d1c <fail>
    8d18:	05c01863          	bne	zero,t3,8d68 <pass>

00008d1c <fail>:
    8d1c:	00000513          	li	a0,0
    8d20:	10000537          	lui	a0,0x10000
    8d24:	04500593          	li	a1,69
    8d28:	05200613          	li	a2,82
    8d2c:	04f00693          	li	a3,79
    8d30:	00b52023          	sw	a1,0(a0) # 10000000 <end+0xfff3903>
    8d34:	00c52023          	sw	a2,0(a0)
    8d38:	00c52023          	sw	a2,0(a0)
    8d3c:	00d52023          	sw	a3,0(a0)
    8d40:	00c52023          	sw	a2,0(a0)
    8d44:	030e0593          	addi	a1,t3,48
    8d48:	02000613          	li	a2,32
    8d4c:	03a00693          	li	a3,58
    8d50:	00d52023          	sw	a3,0(a0)
    8d54:	00c52023          	sw	a2,0(a0)
    8d58:	00b52023          	sw	a1,0(a0)
    8d5c:	00a00713          	li	a4,10
    8d60:	00e52023          	sw	a4,0(a0)
    8d64:	ca0f706f          	j	204 <slt_ret>

00008d68 <pass>:
    8d68:	00000513          	li	a0,0
    8d6c:	10000537          	lui	a0,0x10000
    8d70:	04f00593          	li	a1,79
    8d74:	04b00613          	li	a2,75
    8d78:	00a00693          	li	a3,10
    8d7c:	00b52023          	sw	a1,0(a0) # 10000000 <end+0xfff3903>
    8d80:	00c52023          	sw	a2,0(a0)
    8d84:	00d52023          	sw	a3,0(a0)
    8d88:	c7cf706f          	j	204 <slt_ret>

00008d8c <slti>:
    8d8c:	00009537          	lui	a0,0x9
    8d90:	db050513          	addi	a0,a0,-592 # 8db0 <.test_name>
    8d94:	00000613          	li	a2,0
    8d98:	10000637          	lui	a2,0x10000

00008d9c <.prname_next>:
    8d9c:	00050583          	lb	a1,0(a0)
    8da0:	00058c63          	beqz	a1,8db8 <.prname_done>
    8da4:	00b62023          	sw	a1,0(a2) # 10000000 <end+0xfff3903>
    8da8:	00150513          	addi	a0,a0,1
    8dac:	ff1ff06f          	j	8d9c <.prname_next>

00008db0 <.test_name>:
    8db0:	69746c73          	.word	0x69746c73
    8db4:	00000000          	.word	0x00000000

00008db8 <.prname_done>:
    8db8:	00000613          	li	a2,0
    8dbc:	10000637          	lui	a2,0x10000
    8dc0:	02e00593          	li	a1,46
    8dc4:	00b62023          	sw	a1,0(a2) # 10000000 <end+0xfff3903>
    8dc8:	00b62023          	sw	a1,0(a2)

00008dcc <test_2>:
    8dcc:	00000093          	li	ra,0
    8dd0:	0000a193          	slti	gp,ra,0
    8dd4:	00000e93          	li	t4,0
    8dd8:	00200e13          	li	t3,2
    8ddc:	27d19263          	bne	gp,t4,9040 <fail>

00008de0 <test_3>:
    8de0:	00100093          	li	ra,1
    8de4:	0010a193          	slti	gp,ra,1
    8de8:	00000e93          	li	t4,0
    8dec:	00300e13          	li	t3,3
    8df0:	25d19863          	bne	gp,t4,9040 <fail>

00008df4 <test_4>:
    8df4:	00300093          	li	ra,3
    8df8:	0070a193          	slti	gp,ra,7
    8dfc:	00100e93          	li	t4,1
    8e00:	00400e13          	li	t3,4
    8e04:	23d19e63          	bne	gp,t4,9040 <fail>

00008e08 <test_5>:
    8e08:	00700093          	li	ra,7
    8e0c:	0030a193          	slti	gp,ra,3
    8e10:	00000e93          	li	t4,0
    8e14:	00500e13          	li	t3,5
    8e18:	23d19463          	bne	gp,t4,9040 <fail>

00008e1c <test_6>:
    8e1c:	00000093          	li	ra,0
    8e20:	8000a193          	slti	gp,ra,-2048
    8e24:	00000e93          	li	t4,0
    8e28:	00600e13          	li	t3,6
    8e2c:	21d19a63          	bne	gp,t4,9040 <fail>

00008e30 <test_7>:
    8e30:	800000b7          	lui	ra,0x80000
    8e34:	0000a193          	slti	gp,ra,0
    8e38:	00100e93          	li	t4,1
    8e3c:	00700e13          	li	t3,7
    8e40:	21d19063          	bne	gp,t4,9040 <fail>

00008e44 <test_8>:
    8e44:	800000b7          	lui	ra,0x80000
    8e48:	8000a193          	slti	gp,ra,-2048
    8e4c:	00100e93          	li	t4,1
    8e50:	00800e13          	li	t3,8
    8e54:	1fd19663          	bne	gp,t4,9040 <fail>

00008e58 <test_9>:
    8e58:	00000093          	li	ra,0
    8e5c:	7ff0a193          	slti	gp,ra,2047
    8e60:	00100e93          	li	t4,1
    8e64:	00900e13          	li	t3,9
    8e68:	1dd19c63          	bne	gp,t4,9040 <fail>

00008e6c <test_10>:
    8e6c:	800000b7          	lui	ra,0x80000
    8e70:	fff08093          	addi	ra,ra,-1 # 7fffffff <end+0x7fff3902>
    8e74:	0000a193          	slti	gp,ra,0
    8e78:	00000e93          	li	t4,0
    8e7c:	00a00e13          	li	t3,10
    8e80:	1dd19063          	bne	gp,t4,9040 <fail>

00008e84 <test_11>:
    8e84:	800000b7          	lui	ra,0x80000
    8e88:	fff08093          	addi	ra,ra,-1 # 7fffffff <end+0x7fff3902>
    8e8c:	7ff0a193          	slti	gp,ra,2047
    8e90:	00000e93          	li	t4,0
    8e94:	00b00e13          	li	t3,11
    8e98:	1bd19463          	bne	gp,t4,9040 <fail>

00008e9c <test_12>:
    8e9c:	800000b7          	lui	ra,0x80000
    8ea0:	7ff0a193          	slti	gp,ra,2047
    8ea4:	00100e93          	li	t4,1
    8ea8:	00c00e13          	li	t3,12
    8eac:	19d19a63          	bne	gp,t4,9040 <fail>

00008eb0 <test_13>:
    8eb0:	800000b7          	lui	ra,0x80000
    8eb4:	fff08093          	addi	ra,ra,-1 # 7fffffff <end+0x7fff3902>
    8eb8:	8000a193          	slti	gp,ra,-2048
    8ebc:	00000e93          	li	t4,0
    8ec0:	00d00e13          	li	t3,13
    8ec4:	17d19e63          	bne	gp,t4,9040 <fail>

00008ec8 <test_14>:
    8ec8:	00000093          	li	ra,0
    8ecc:	fff0a193          	slti	gp,ra,-1
    8ed0:	00000e93          	li	t4,0
    8ed4:	00e00e13          	li	t3,14
    8ed8:	17d19463          	bne	gp,t4,9040 <fail>

00008edc <test_15>:
    8edc:	fff00093          	li	ra,-1
    8ee0:	0010a193          	slti	gp,ra,1
    8ee4:	00100e93          	li	t4,1
    8ee8:	00f00e13          	li	t3,15
    8eec:	15d19a63          	bne	gp,t4,9040 <fail>

00008ef0 <test_16>:
    8ef0:	fff00093          	li	ra,-1
    8ef4:	fff0a193          	slti	gp,ra,-1
    8ef8:	00000e93          	li	t4,0
    8efc:	01000e13          	li	t3,16
    8f00:	15d19063          	bne	gp,t4,9040 <fail>

00008f04 <test_17>:
    8f04:	00b00093          	li	ra,11
    8f08:	00d0b093          	sltiu	ra,ra,13
    8f0c:	00100e93          	li	t4,1
    8f10:	01100e13          	li	t3,17
    8f14:	13d09663          	bne	ra,t4,9040 <fail>

00008f18 <test_18>:
    8f18:	00000213          	li	tp,0
    8f1c:	00f00093          	li	ra,15
    8f20:	00a0a193          	slti	gp,ra,10
    8f24:	00018313          	mv	t1,gp
    8f28:	00120213          	addi	tp,tp,1 # 1 <reset_vec+0x1>
    8f2c:	00200293          	li	t0,2
    8f30:	fe5216e3          	bne	tp,t0,8f1c <test_18+0x4>
    8f34:	00000e93          	li	t4,0
    8f38:	01200e13          	li	t3,18
    8f3c:	11d31263          	bne	t1,t4,9040 <fail>

00008f40 <test_19>:
    8f40:	00000213          	li	tp,0
    8f44:	00a00093          	li	ra,10
    8f48:	0100a193          	slti	gp,ra,16
    8f4c:	00000013          	nop
    8f50:	00018313          	mv	t1,gp
    8f54:	00120213          	addi	tp,tp,1 # 1 <reset_vec+0x1>
    8f58:	00200293          	li	t0,2
    8f5c:	fe5214e3          	bne	tp,t0,8f44 <test_19+0x4>
    8f60:	00100e93          	li	t4,1
    8f64:	01300e13          	li	t3,19
    8f68:	0dd31c63          	bne	t1,t4,9040 <fail>

00008f6c <test_20>:
    8f6c:	00000213          	li	tp,0
    8f70:	01000093          	li	ra,16
    8f74:	0090a193          	slti	gp,ra,9
    8f78:	00000013          	nop
    8f7c:	00000013          	nop
    8f80:	00018313          	mv	t1,gp
    8f84:	00120213          	addi	tp,tp,1 # 1 <reset_vec+0x1>
    8f88:	00200293          	li	t0,2
    8f8c:	fe5212e3          	bne	tp,t0,8f70 <test_20+0x4>
    8f90:	00000e93          	li	t4,0
    8f94:	01400e13          	li	t3,20
    8f98:	0bd31463          	bne	t1,t4,9040 <fail>

00008f9c <test_21>:
    8f9c:	00000213          	li	tp,0
    8fa0:	00b00093          	li	ra,11
    8fa4:	00f0a193          	slti	gp,ra,15
    8fa8:	00120213          	addi	tp,tp,1 # 1 <reset_vec+0x1>
    8fac:	00200293          	li	t0,2
    8fb0:	fe5218e3          	bne	tp,t0,8fa0 <test_21+0x4>
    8fb4:	00100e93          	li	t4,1
    8fb8:	01500e13          	li	t3,21
    8fbc:	09d19263          	bne	gp,t4,9040 <fail>

00008fc0 <test_22>:
    8fc0:	00000213          	li	tp,0
    8fc4:	01100093          	li	ra,17
    8fc8:	00000013          	nop
    8fcc:	0080a193          	slti	gp,ra,8
    8fd0:	00120213          	addi	tp,tp,1 # 1 <reset_vec+0x1>
    8fd4:	00200293          	li	t0,2
    8fd8:	fe5216e3          	bne	tp,t0,8fc4 <test_22+0x4>
    8fdc:	00000e93          	li	t4,0
    8fe0:	01600e13          	li	t3,22
    8fe4:	05d19e63          	bne	gp,t4,9040 <fail>

00008fe8 <test_23>:
    8fe8:	00000213          	li	tp,0
    8fec:	00c00093          	li	ra,12
    8ff0:	00000013          	nop
    8ff4:	00000013          	nop
    8ff8:	00e0a193          	slti	gp,ra,14
    8ffc:	00120213          	addi	tp,tp,1 # 1 <reset_vec+0x1>
    9000:	00200293          	li	t0,2
    9004:	fe5214e3          	bne	tp,t0,8fec <test_23+0x4>
    9008:	00100e93          	li	t4,1
    900c:	01700e13          	li	t3,23
    9010:	03d19863          	bne	gp,t4,9040 <fail>

00009014 <test_24>:
    9014:	fff02093          	slti	ra,zero,-1
    9018:	00000e93          	li	t4,0
    901c:	01800e13          	li	t3,24
    9020:	03d09063          	bne	ra,t4,9040 <fail>

00009024 <test_25>:
    9024:	00ff00b7          	lui	ra,0xff0
    9028:	0ff08093          	addi	ra,ra,255 # ff00ff <end+0xfe3a02>
    902c:	fff0a013          	slti	zero,ra,-1
    9030:	00000e93          	li	t4,0
    9034:	01900e13          	li	t3,25
    9038:	01d01463          	bne	zero,t4,9040 <fail>
    903c:	05c01863          	bne	zero,t3,908c <pass>

00009040 <fail>:
    9040:	00000513          	li	a0,0
    9044:	10000537          	lui	a0,0x10000
    9048:	04500593          	li	a1,69
    904c:	05200613          	li	a2,82
    9050:	04f00693          	li	a3,79
    9054:	00b52023          	sw	a1,0(a0) # 10000000 <end+0xfff3903>
    9058:	00c52023          	sw	a2,0(a0)
    905c:	00c52023          	sw	a2,0(a0)
    9060:	00d52023          	sw	a3,0(a0)
    9064:	00c52023          	sw	a2,0(a0)
    9068:	030e0593          	addi	a1,t3,48
    906c:	02000613          	li	a2,32
    9070:	03a00693          	li	a3,58
    9074:	00d52023          	sw	a3,0(a0)
    9078:	00c52023          	sw	a2,0(a0)
    907c:	00b52023          	sw	a1,0(a0)
    9080:	00a00713          	li	a4,10
    9084:	00e52023          	sw	a4,0(a0)
    9088:	92cf706f          	j	1b4 <slti_ret>

0000908c <pass>:
    908c:	00000513          	li	a0,0
    9090:	10000537          	lui	a0,0x10000
    9094:	04f00593          	li	a1,79
    9098:	04b00613          	li	a2,75
    909c:	00a00693          	li	a3,10
    90a0:	00b52023          	sw	a1,0(a0) # 10000000 <end+0xfff3903>
    90a4:	00c52023          	sw	a2,0(a0)
    90a8:	00d52023          	sw	a3,0(a0)
    90ac:	908f706f          	j	1b4 <slti_ret>

000090b0 <sra>:
    90b0:	00009537          	lui	a0,0x9
    90b4:	0d450513          	addi	a0,a0,212 # 90d4 <.test_name>
    90b8:	00000613          	li	a2,0
    90bc:	10000637          	lui	a2,0x10000

000090c0 <.prname_next>:
    90c0:	00050583          	lb	a1,0(a0)
    90c4:	00058a63          	beqz	a1,90d8 <.prname_done>
    90c8:	00b62023          	sw	a1,0(a2) # 10000000 <end+0xfff3903>
    90cc:	00150513          	addi	a0,a0,1
    90d0:	ff1ff06f          	j	90c0 <.prname_next>

000090d4 <.test_name>:
    90d4:	00617273          	.word	0x00617273

000090d8 <.prname_done>:
    90d8:	00000613          	li	a2,0
    90dc:	10000637          	lui	a2,0x10000
    90e0:	02e00593          	li	a1,46
    90e4:	00b62023          	sw	a1,0(a2) # 10000000 <end+0xfff3903>
    90e8:	00b62023          	sw	a1,0(a2)

000090ec <test_2>:
    90ec:	800000b7          	lui	ra,0x80000
    90f0:	00000113          	li	sp,0
    90f4:	4020d1b3          	sra	gp,ra,sp
    90f8:	80000eb7          	lui	t4,0x80000
    90fc:	00200e13          	li	t3,2
    9100:	59d19463          	bne	gp,t4,9688 <fail>

00009104 <test_3>:
    9104:	800000b7          	lui	ra,0x80000
    9108:	00100113          	li	sp,1
    910c:	4020d1b3          	sra	gp,ra,sp
    9110:	c0000eb7          	lui	t4,0xc0000
    9114:	00300e13          	li	t3,3
    9118:	57d19863          	bne	gp,t4,9688 <fail>

0000911c <test_4>:
    911c:	800000b7          	lui	ra,0x80000
    9120:	00700113          	li	sp,7
    9124:	4020d1b3          	sra	gp,ra,sp
    9128:	ff000eb7          	lui	t4,0xff000
    912c:	00400e13          	li	t3,4
    9130:	55d19c63          	bne	gp,t4,9688 <fail>

00009134 <test_5>:
    9134:	800000b7          	lui	ra,0x80000
    9138:	00e00113          	li	sp,14
    913c:	4020d1b3          	sra	gp,ra,sp
    9140:	fffe0eb7          	lui	t4,0xfffe0
    9144:	00500e13          	li	t3,5
    9148:	55d19063          	bne	gp,t4,9688 <fail>

0000914c <test_6>:
    914c:	800000b7          	lui	ra,0x80000
    9150:	00108093          	addi	ra,ra,1 # 80000001 <end+0x7fff3904>
    9154:	01f00113          	li	sp,31
    9158:	4020d1b3          	sra	gp,ra,sp
    915c:	fff00e93          	li	t4,-1
    9160:	00600e13          	li	t3,6
    9164:	53d19263          	bne	gp,t4,9688 <fail>

00009168 <test_7>:
    9168:	800000b7          	lui	ra,0x80000
    916c:	fff08093          	addi	ra,ra,-1 # 7fffffff <end+0x7fff3902>
    9170:	00000113          	li	sp,0
    9174:	4020d1b3          	sra	gp,ra,sp
    9178:	80000eb7          	lui	t4,0x80000
    917c:	fffe8e93          	addi	t4,t4,-1 # 7fffffff <end+0x7fff3902>
    9180:	00700e13          	li	t3,7
    9184:	51d19263          	bne	gp,t4,9688 <fail>

00009188 <test_8>:
    9188:	800000b7          	lui	ra,0x80000
    918c:	fff08093          	addi	ra,ra,-1 # 7fffffff <end+0x7fff3902>
    9190:	00100113          	li	sp,1
    9194:	4020d1b3          	sra	gp,ra,sp
    9198:	40000eb7          	lui	t4,0x40000
    919c:	fffe8e93          	addi	t4,t4,-1 # 3fffffff <end+0x3fff3902>
    91a0:	00800e13          	li	t3,8
    91a4:	4fd19263          	bne	gp,t4,9688 <fail>

000091a8 <test_9>:
    91a8:	800000b7          	lui	ra,0x80000
    91ac:	fff08093          	addi	ra,ra,-1 # 7fffffff <end+0x7fff3902>
    91b0:	00700113          	li	sp,7
    91b4:	4020d1b3          	sra	gp,ra,sp
    91b8:	01000eb7          	lui	t4,0x1000
    91bc:	fffe8e93          	addi	t4,t4,-1 # ffffff <end+0xff3902>
    91c0:	00900e13          	li	t3,9
    91c4:	4dd19263          	bne	gp,t4,9688 <fail>

000091c8 <test_10>:
    91c8:	800000b7          	lui	ra,0x80000
    91cc:	fff08093          	addi	ra,ra,-1 # 7fffffff <end+0x7fff3902>
    91d0:	00e00113          	li	sp,14
    91d4:	4020d1b3          	sra	gp,ra,sp
    91d8:	00020eb7          	lui	t4,0x20
    91dc:	fffe8e93          	addi	t4,t4,-1 # 1ffff <end+0x13902>
    91e0:	00a00e13          	li	t3,10
    91e4:	4bd19263          	bne	gp,t4,9688 <fail>

000091e8 <test_11>:
    91e8:	800000b7          	lui	ra,0x80000
    91ec:	fff08093          	addi	ra,ra,-1 # 7fffffff <end+0x7fff3902>
    91f0:	01f00113          	li	sp,31
    91f4:	4020d1b3          	sra	gp,ra,sp
    91f8:	00000e93          	li	t4,0
    91fc:	00b00e13          	li	t3,11
    9200:	49d19463          	bne	gp,t4,9688 <fail>

00009204 <test_12>:
    9204:	818180b7          	lui	ra,0x81818
    9208:	18108093          	addi	ra,ra,385 # 81818181 <end+0x8180ba84>
    920c:	00000113          	li	sp,0
    9210:	4020d1b3          	sra	gp,ra,sp
    9214:	81818eb7          	lui	t4,0x81818
    9218:	181e8e93          	addi	t4,t4,385 # 81818181 <end+0x8180ba84>
    921c:	00c00e13          	li	t3,12
    9220:	47d19463          	bne	gp,t4,9688 <fail>

00009224 <test_13>:
    9224:	818180b7          	lui	ra,0x81818
    9228:	18108093          	addi	ra,ra,385 # 81818181 <end+0x8180ba84>
    922c:	00100113          	li	sp,1
    9230:	4020d1b3          	sra	gp,ra,sp
    9234:	c0c0ceb7          	lui	t4,0xc0c0c
    9238:	0c0e8e93          	addi	t4,t4,192 # c0c0c0c0 <end+0xc0bff9c3>
    923c:	00d00e13          	li	t3,13
    9240:	45d19463          	bne	gp,t4,9688 <fail>

00009244 <test_14>:
    9244:	818180b7          	lui	ra,0x81818
    9248:	18108093          	addi	ra,ra,385 # 81818181 <end+0x8180ba84>
    924c:	00700113          	li	sp,7
    9250:	4020d1b3          	sra	gp,ra,sp
    9254:	ff030eb7          	lui	t4,0xff030
    9258:	303e8e93          	addi	t4,t4,771 # ff030303 <end+0xff023c06>
    925c:	00e00e13          	li	t3,14
    9260:	43d19463          	bne	gp,t4,9688 <fail>

00009264 <test_15>:
    9264:	818180b7          	lui	ra,0x81818
    9268:	18108093          	addi	ra,ra,385 # 81818181 <end+0x8180ba84>
    926c:	00e00113          	li	sp,14
    9270:	4020d1b3          	sra	gp,ra,sp
    9274:	fffe0eb7          	lui	t4,0xfffe0
    9278:	606e8e93          	addi	t4,t4,1542 # fffe0606 <end+0xfffd3f09>
    927c:	00f00e13          	li	t3,15
    9280:	41d19463          	bne	gp,t4,9688 <fail>

00009284 <test_16>:
    9284:	818180b7          	lui	ra,0x81818
    9288:	18108093          	addi	ra,ra,385 # 81818181 <end+0x8180ba84>
    928c:	01f00113          	li	sp,31
    9290:	4020d1b3          	sra	gp,ra,sp
    9294:	fff00e93          	li	t4,-1
    9298:	01000e13          	li	t3,16
    929c:	3fd19663          	bne	gp,t4,9688 <fail>

000092a0 <test_17>:
    92a0:	818180b7          	lui	ra,0x81818
    92a4:	18108093          	addi	ra,ra,385 # 81818181 <end+0x8180ba84>
    92a8:	fc000113          	li	sp,-64
    92ac:	4020d1b3          	sra	gp,ra,sp
    92b0:	81818eb7          	lui	t4,0x81818
    92b4:	181e8e93          	addi	t4,t4,385 # 81818181 <end+0x8180ba84>
    92b8:	01100e13          	li	t3,17
    92bc:	3dd19663          	bne	gp,t4,9688 <fail>

000092c0 <test_18>:
    92c0:	818180b7          	lui	ra,0x81818
    92c4:	18108093          	addi	ra,ra,385 # 81818181 <end+0x8180ba84>
    92c8:	fc100113          	li	sp,-63
    92cc:	4020d1b3          	sra	gp,ra,sp
    92d0:	c0c0ceb7          	lui	t4,0xc0c0c
    92d4:	0c0e8e93          	addi	t4,t4,192 # c0c0c0c0 <end+0xc0bff9c3>
    92d8:	01200e13          	li	t3,18
    92dc:	3bd19663          	bne	gp,t4,9688 <fail>

000092e0 <test_19>:
    92e0:	818180b7          	lui	ra,0x81818
    92e4:	18108093          	addi	ra,ra,385 # 81818181 <end+0x8180ba84>
    92e8:	fc700113          	li	sp,-57
    92ec:	4020d1b3          	sra	gp,ra,sp
    92f0:	ff030eb7          	lui	t4,0xff030
    92f4:	303e8e93          	addi	t4,t4,771 # ff030303 <end+0xff023c06>
    92f8:	01300e13          	li	t3,19
    92fc:	39d19663          	bne	gp,t4,9688 <fail>

00009300 <test_20>:
    9300:	818180b7          	lui	ra,0x81818
    9304:	18108093          	addi	ra,ra,385 # 81818181 <end+0x8180ba84>
    9308:	fce00113          	li	sp,-50
    930c:	4020d1b3          	sra	gp,ra,sp
    9310:	fffe0eb7          	lui	t4,0xfffe0
    9314:	606e8e93          	addi	t4,t4,1542 # fffe0606 <end+0xfffd3f09>
    9318:	01400e13          	li	t3,20
    931c:	37d19663          	bne	gp,t4,9688 <fail>

00009320 <test_21>:
    9320:	818180b7          	lui	ra,0x81818
    9324:	18108093          	addi	ra,ra,385 # 81818181 <end+0x8180ba84>
    9328:	fff00113          	li	sp,-1
    932c:	4020d1b3          	sra	gp,ra,sp
    9330:	fff00e93          	li	t4,-1
    9334:	01500e13          	li	t3,21
    9338:	35d19863          	bne	gp,t4,9688 <fail>

0000933c <test_22>:
    933c:	800000b7          	lui	ra,0x80000
    9340:	00700113          	li	sp,7
    9344:	4020d0b3          	sra	ra,ra,sp
    9348:	ff000eb7          	lui	t4,0xff000
    934c:	01600e13          	li	t3,22
    9350:	33d09c63          	bne	ra,t4,9688 <fail>

00009354 <test_23>:
    9354:	800000b7          	lui	ra,0x80000
    9358:	00e00113          	li	sp,14
    935c:	4020d133          	sra	sp,ra,sp
    9360:	fffe0eb7          	lui	t4,0xfffe0
    9364:	01700e13          	li	t3,23
    9368:	33d11063          	bne	sp,t4,9688 <fail>

0000936c <test_24>:
    936c:	00700093          	li	ra,7
    9370:	4010d0b3          	sra	ra,ra,ra
    9374:	00000e93          	li	t4,0
    9378:	01800e13          	li	t3,24
    937c:	31d09663          	bne	ra,t4,9688 <fail>

00009380 <test_25>:
    9380:	00000213          	li	tp,0
    9384:	800000b7          	lui	ra,0x80000
    9388:	00700113          	li	sp,7
    938c:	4020d1b3          	sra	gp,ra,sp
    9390:	00018313          	mv	t1,gp
    9394:	00120213          	addi	tp,tp,1 # 1 <reset_vec+0x1>
    9398:	00200293          	li	t0,2
    939c:	fe5214e3          	bne	tp,t0,9384 <test_25+0x4>
    93a0:	ff000eb7          	lui	t4,0xff000
    93a4:	01900e13          	li	t3,25
    93a8:	2fd31063          	bne	t1,t4,9688 <fail>

000093ac <test_26>:
    93ac:	00000213          	li	tp,0
    93b0:	800000b7          	lui	ra,0x80000
    93b4:	00e00113          	li	sp,14
    93b8:	4020d1b3          	sra	gp,ra,sp
    93bc:	00000013          	nop
    93c0:	00018313          	mv	t1,gp
    93c4:	00120213          	addi	tp,tp,1 # 1 <reset_vec+0x1>
    93c8:	00200293          	li	t0,2
    93cc:	fe5212e3          	bne	tp,t0,93b0 <test_26+0x4>
    93d0:	fffe0eb7          	lui	t4,0xfffe0
    93d4:	01a00e13          	li	t3,26
    93d8:	2bd31863          	bne	t1,t4,9688 <fail>

000093dc <test_27>:
    93dc:	00000213          	li	tp,0
    93e0:	800000b7          	lui	ra,0x80000
    93e4:	01f00113          	li	sp,31
    93e8:	4020d1b3          	sra	gp,ra,sp
    93ec:	00000013          	nop
    93f0:	00000013          	nop
    93f4:	00018313          	mv	t1,gp
    93f8:	00120213          	addi	tp,tp,1 # 1 <reset_vec+0x1>
    93fc:	00200293          	li	t0,2
    9400:	fe5210e3          	bne	tp,t0,93e0 <test_27+0x4>
    9404:	fff00e93          	li	t4,-1
    9408:	01b00e13          	li	t3,27
    940c:	27d31e63          	bne	t1,t4,9688 <fail>

00009410 <test_28>:
    9410:	00000213          	li	tp,0
    9414:	800000b7          	lui	ra,0x80000
    9418:	00700113          	li	sp,7
    941c:	4020d1b3          	sra	gp,ra,sp
    9420:	00120213          	addi	tp,tp,1 # 1 <reset_vec+0x1>
    9424:	00200293          	li	t0,2
    9428:	fe5216e3          	bne	tp,t0,9414 <test_28+0x4>
    942c:	ff000eb7          	lui	t4,0xff000
    9430:	01c00e13          	li	t3,28
    9434:	25d19a63          	bne	gp,t4,9688 <fail>

00009438 <test_29>:
    9438:	00000213          	li	tp,0
    943c:	800000b7          	lui	ra,0x80000
    9440:	00e00113          	li	sp,14
    9444:	00000013          	nop
    9448:	4020d1b3          	sra	gp,ra,sp
    944c:	00120213          	addi	tp,tp,1 # 1 <reset_vec+0x1>
    9450:	00200293          	li	t0,2
    9454:	fe5214e3          	bne	tp,t0,943c <test_29+0x4>
    9458:	fffe0eb7          	lui	t4,0xfffe0
    945c:	01d00e13          	li	t3,29
    9460:	23d19463          	bne	gp,t4,9688 <fail>

00009464 <test_30>:
    9464:	00000213          	li	tp,0
    9468:	800000b7          	lui	ra,0x80000
    946c:	01f00113          	li	sp,31
    9470:	00000013          	nop
    9474:	00000013          	nop
    9478:	4020d1b3          	sra	gp,ra,sp
    947c:	00120213          	addi	tp,tp,1 # 1 <reset_vec+0x1>
    9480:	00200293          	li	t0,2
    9484:	fe5212e3          	bne	tp,t0,9468 <test_30+0x4>
    9488:	fff00e93          	li	t4,-1
    948c:	01e00e13          	li	t3,30
    9490:	1fd19c63          	bne	gp,t4,9688 <fail>

00009494 <test_31>:
    9494:	00000213          	li	tp,0
    9498:	800000b7          	lui	ra,0x80000
    949c:	00000013          	nop
    94a0:	00700113          	li	sp,7
    94a4:	4020d1b3          	sra	gp,ra,sp
    94a8:	00120213          	addi	tp,tp,1 # 1 <reset_vec+0x1>
    94ac:	00200293          	li	t0,2
    94b0:	fe5214e3          	bne	tp,t0,9498 <test_31+0x4>
    94b4:	ff000eb7          	lui	t4,0xff000
    94b8:	01f00e13          	li	t3,31
    94bc:	1dd19663          	bne	gp,t4,9688 <fail>

000094c0 <test_32>:
    94c0:	00000213          	li	tp,0
    94c4:	800000b7          	lui	ra,0x80000
    94c8:	00000013          	nop
    94cc:	00e00113          	li	sp,14
    94d0:	00000013          	nop
    94d4:	4020d1b3          	sra	gp,ra,sp
    94d8:	00120213          	addi	tp,tp,1 # 1 <reset_vec+0x1>
    94dc:	00200293          	li	t0,2
    94e0:	fe5212e3          	bne	tp,t0,94c4 <test_32+0x4>
    94e4:	fffe0eb7          	lui	t4,0xfffe0
    94e8:	02000e13          	li	t3,32
    94ec:	19d19e63          	bne	gp,t4,9688 <fail>

000094f0 <test_33>:
    94f0:	00000213          	li	tp,0
    94f4:	800000b7          	lui	ra,0x80000
    94f8:	00000013          	nop
    94fc:	00000013          	nop
    9500:	01f00113          	li	sp,31
    9504:	4020d1b3          	sra	gp,ra,sp
    9508:	00120213          	addi	tp,tp,1 # 1 <reset_vec+0x1>
    950c:	00200293          	li	t0,2
    9510:	fe5212e3          	bne	tp,t0,94f4 <test_33+0x4>
    9514:	fff00e93          	li	t4,-1
    9518:	02100e13          	li	t3,33
    951c:	17d19663          	bne	gp,t4,9688 <fail>

00009520 <test_34>:
    9520:	00000213          	li	tp,0
    9524:	00700113          	li	sp,7
    9528:	800000b7          	lui	ra,0x80000
    952c:	4020d1b3          	sra	gp,ra,sp
    9530:	00120213          	addi	tp,tp,1 # 1 <reset_vec+0x1>
    9534:	00200293          	li	t0,2
    9538:	fe5216e3          	bne	tp,t0,9524 <test_34+0x4>
    953c:	ff000eb7          	lui	t4,0xff000
    9540:	02200e13          	li	t3,34
    9544:	15d19263          	bne	gp,t4,9688 <fail>

00009548 <test_35>:
    9548:	00000213          	li	tp,0
    954c:	00e00113          	li	sp,14
    9550:	800000b7          	lui	ra,0x80000
    9554:	00000013          	nop
    9558:	4020d1b3          	sra	gp,ra,sp
    955c:	00120213          	addi	tp,tp,1 # 1 <reset_vec+0x1>
    9560:	00200293          	li	t0,2
    9564:	fe5214e3          	bne	tp,t0,954c <test_35+0x4>
    9568:	fffe0eb7          	lui	t4,0xfffe0
    956c:	02300e13          	li	t3,35
    9570:	11d19c63          	bne	gp,t4,9688 <fail>

00009574 <test_36>:
    9574:	00000213          	li	tp,0
    9578:	01f00113          	li	sp,31
    957c:	800000b7          	lui	ra,0x80000
    9580:	00000013          	nop
    9584:	00000013          	nop
    9588:	4020d1b3          	sra	gp,ra,sp
    958c:	00120213          	addi	tp,tp,1 # 1 <reset_vec+0x1>
    9590:	00200293          	li	t0,2
    9594:	fe5212e3          	bne	tp,t0,9578 <test_36+0x4>
    9598:	fff00e93          	li	t4,-1
    959c:	02400e13          	li	t3,36
    95a0:	0fd19463          	bne	gp,t4,9688 <fail>

000095a4 <test_37>:
    95a4:	00000213          	li	tp,0
    95a8:	00700113          	li	sp,7
    95ac:	00000013          	nop
    95b0:	800000b7          	lui	ra,0x80000
    95b4:	4020d1b3          	sra	gp,ra,sp
    95b8:	00120213          	addi	tp,tp,1 # 1 <reset_vec+0x1>
    95bc:	00200293          	li	t0,2
    95c0:	fe5214e3          	bne	tp,t0,95a8 <test_37+0x4>
    95c4:	ff000eb7          	lui	t4,0xff000
    95c8:	02500e13          	li	t3,37
    95cc:	0bd19e63          	bne	gp,t4,9688 <fail>

000095d0 <test_38>:
    95d0:	00000213          	li	tp,0
    95d4:	00e00113          	li	sp,14
    95d8:	00000013          	nop
    95dc:	800000b7          	lui	ra,0x80000
    95e0:	00000013          	nop
    95e4:	4020d1b3          	sra	gp,ra,sp
    95e8:	00120213          	addi	tp,tp,1 # 1 <reset_vec+0x1>
    95ec:	00200293          	li	t0,2
    95f0:	fe5212e3          	bne	tp,t0,95d4 <test_38+0x4>
    95f4:	fffe0eb7          	lui	t4,0xfffe0
    95f8:	02600e13          	li	t3,38
    95fc:	09d19663          	bne	gp,t4,9688 <fail>

00009600 <test_39>:
    9600:	00000213          	li	tp,0
    9604:	01f00113          	li	sp,31
    9608:	00000013          	nop
    960c:	00000013          	nop
    9610:	800000b7          	lui	ra,0x80000
    9614:	4020d1b3          	sra	gp,ra,sp
    9618:	00120213          	addi	tp,tp,1 # 1 <reset_vec+0x1>
    961c:	00200293          	li	t0,2
    9620:	fe5212e3          	bne	tp,t0,9604 <test_39+0x4>
    9624:	fff00e93          	li	t4,-1
    9628:	02700e13          	li	t3,39
    962c:	05d19e63          	bne	gp,t4,9688 <fail>

00009630 <test_40>:
    9630:	00f00093          	li	ra,15
    9634:	40105133          	sra	sp,zero,ra
    9638:	00000e93          	li	t4,0
    963c:	02800e13          	li	t3,40
    9640:	05d11463          	bne	sp,t4,9688 <fail>

00009644 <test_41>:
    9644:	02000093          	li	ra,32
    9648:	4000d133          	sra	sp,ra,zero
    964c:	02000e93          	li	t4,32
    9650:	02900e13          	li	t3,41
    9654:	03d11a63          	bne	sp,t4,9688 <fail>

00009658 <test_42>:
    9658:	400050b3          	sra	ra,zero,zero
    965c:	00000e93          	li	t4,0
    9660:	02a00e13          	li	t3,42
    9664:	03d09263          	bne	ra,t4,9688 <fail>

00009668 <test_43>:
    9668:	40000093          	li	ra,1024
    966c:	00001137          	lui	sp,0x1
    9670:	80010113          	addi	sp,sp,-2048 # 800 <printint+0x2c>
    9674:	4020d033          	sra	zero,ra,sp
    9678:	00000e93          	li	t4,0
    967c:	02b00e13          	li	t3,43
    9680:	01d01463          	bne	zero,t4,9688 <fail>
    9684:	05c01863          	bne	zero,t3,96d4 <pass>

00009688 <fail>:
    9688:	00000513          	li	a0,0
    968c:	10000537          	lui	a0,0x10000
    9690:	04500593          	li	a1,69
    9694:	05200613          	li	a2,82
    9698:	04f00693          	li	a3,79
    969c:	00b52023          	sw	a1,0(a0) # 10000000 <end+0xfff3903>
    96a0:	00c52023          	sw	a2,0(a0)
    96a4:	00c52023          	sw	a2,0(a0)
    96a8:	00d52023          	sw	a3,0(a0)
    96ac:	00c52023          	sw	a2,0(a0)
    96b0:	030e0593          	addi	a1,t3,48
    96b4:	02000613          	li	a2,32
    96b8:	03a00693          	li	a3,58
    96bc:	00d52023          	sw	a3,0(a0)
    96c0:	00c52023          	sw	a2,0(a0)
    96c4:	00b52023          	sw	a1,0(a0)
    96c8:	00a00713          	li	a4,10
    96cc:	00e52023          	sw	a4,0(a0)
    96d0:	b4df606f          	j	21c <sra_ret>

000096d4 <pass>:
    96d4:	00000513          	li	a0,0
    96d8:	10000537          	lui	a0,0x10000
    96dc:	04f00593          	li	a1,79
    96e0:	04b00613          	li	a2,75
    96e4:	00a00693          	li	a3,10
    96e8:	00b52023          	sw	a1,0(a0) # 10000000 <end+0xfff3903>
    96ec:	00c52023          	sw	a2,0(a0)
    96f0:	00d52023          	sw	a3,0(a0)
    96f4:	b29f606f          	j	21c <sra_ret>

000096f8 <srai>:
    96f8:	00009537          	lui	a0,0x9
    96fc:	71c50513          	addi	a0,a0,1820 # 971c <.test_name>
    9700:	00000613          	li	a2,0
    9704:	10000637          	lui	a2,0x10000

00009708 <.prname_next>:
    9708:	00050583          	lb	a1,0(a0)
    970c:	00058c63          	beqz	a1,9724 <.prname_done>
    9710:	00b62023          	sw	a1,0(a2) # 10000000 <end+0xfff3903>
    9714:	00150513          	addi	a0,a0,1
    9718:	ff1ff06f          	j	9708 <.prname_next>

0000971c <.test_name>:
    971c:	69617273          	.word	0x69617273
    9720:	00000000          	.word	0x00000000

00009724 <.prname_done>:
    9724:	00000613          	li	a2,0
    9728:	10000637          	lui	a2,0x10000
    972c:	02e00593          	li	a1,46
    9730:	00b62023          	sw	a1,0(a2) # 10000000 <end+0xfff3903>
    9734:	00b62023          	sw	a1,0(a2)

00009738 <test_2>:
    9738:	00000093          	li	ra,0
    973c:	4000d193          	srai	gp,ra,0x0
    9740:	00000e93          	li	t4,0
    9744:	00200e13          	li	t3,2
    9748:	2bd19463          	bne	gp,t4,99f0 <fail>

0000974c <test_3>:
    974c:	800000b7          	lui	ra,0x80000
    9750:	4010d193          	srai	gp,ra,0x1
    9754:	c0000eb7          	lui	t4,0xc0000
    9758:	00300e13          	li	t3,3
    975c:	29d19a63          	bne	gp,t4,99f0 <fail>

00009760 <test_4>:
    9760:	800000b7          	lui	ra,0x80000
    9764:	4070d193          	srai	gp,ra,0x7
    9768:	ff000eb7          	lui	t4,0xff000
    976c:	00400e13          	li	t3,4
    9770:	29d19063          	bne	gp,t4,99f0 <fail>

00009774 <test_5>:
    9774:	800000b7          	lui	ra,0x80000
    9778:	40e0d193          	srai	gp,ra,0xe
    977c:	fffe0eb7          	lui	t4,0xfffe0
    9780:	00500e13          	li	t3,5
    9784:	27d19663          	bne	gp,t4,99f0 <fail>

00009788 <test_6>:
    9788:	800000b7          	lui	ra,0x80000
    978c:	00108093          	addi	ra,ra,1 # 80000001 <end+0x7fff3904>
    9790:	41f0d193          	srai	gp,ra,0x1f
    9794:	fff00e93          	li	t4,-1
    9798:	00600e13          	li	t3,6
    979c:	25d19a63          	bne	gp,t4,99f0 <fail>

000097a0 <test_7>:
    97a0:	800000b7          	lui	ra,0x80000
    97a4:	fff08093          	addi	ra,ra,-1 # 7fffffff <end+0x7fff3902>
    97a8:	4000d193          	srai	gp,ra,0x0
    97ac:	80000eb7          	lui	t4,0x80000
    97b0:	fffe8e93          	addi	t4,t4,-1 # 7fffffff <end+0x7fff3902>
    97b4:	00700e13          	li	t3,7
    97b8:	23d19c63          	bne	gp,t4,99f0 <fail>

000097bc <test_8>:
    97bc:	800000b7          	lui	ra,0x80000
    97c0:	fff08093          	addi	ra,ra,-1 # 7fffffff <end+0x7fff3902>
    97c4:	4010d193          	srai	gp,ra,0x1
    97c8:	40000eb7          	lui	t4,0x40000
    97cc:	fffe8e93          	addi	t4,t4,-1 # 3fffffff <end+0x3fff3902>
    97d0:	00800e13          	li	t3,8
    97d4:	21d19e63          	bne	gp,t4,99f0 <fail>

000097d8 <test_9>:
    97d8:	800000b7          	lui	ra,0x80000
    97dc:	fff08093          	addi	ra,ra,-1 # 7fffffff <end+0x7fff3902>
    97e0:	4070d193          	srai	gp,ra,0x7
    97e4:	01000eb7          	lui	t4,0x1000
    97e8:	fffe8e93          	addi	t4,t4,-1 # ffffff <end+0xff3902>
    97ec:	00900e13          	li	t3,9
    97f0:	21d19063          	bne	gp,t4,99f0 <fail>

000097f4 <test_10>:
    97f4:	800000b7          	lui	ra,0x80000
    97f8:	fff08093          	addi	ra,ra,-1 # 7fffffff <end+0x7fff3902>
    97fc:	40e0d193          	srai	gp,ra,0xe
    9800:	00020eb7          	lui	t4,0x20
    9804:	fffe8e93          	addi	t4,t4,-1 # 1ffff <end+0x13902>
    9808:	00a00e13          	li	t3,10
    980c:	1fd19263          	bne	gp,t4,99f0 <fail>

00009810 <test_11>:
    9810:	800000b7          	lui	ra,0x80000
    9814:	fff08093          	addi	ra,ra,-1 # 7fffffff <end+0x7fff3902>
    9818:	41f0d193          	srai	gp,ra,0x1f
    981c:	00000e93          	li	t4,0
    9820:	00b00e13          	li	t3,11
    9824:	1dd19663          	bne	gp,t4,99f0 <fail>

00009828 <test_12>:
    9828:	818180b7          	lui	ra,0x81818
    982c:	18108093          	addi	ra,ra,385 # 81818181 <end+0x8180ba84>
    9830:	4000d193          	srai	gp,ra,0x0
    9834:	81818eb7          	lui	t4,0x81818
    9838:	181e8e93          	addi	t4,t4,385 # 81818181 <end+0x8180ba84>
    983c:	00c00e13          	li	t3,12
    9840:	1bd19863          	bne	gp,t4,99f0 <fail>

00009844 <test_13>:
    9844:	818180b7          	lui	ra,0x81818
    9848:	18108093          	addi	ra,ra,385 # 81818181 <end+0x8180ba84>
    984c:	4010d193          	srai	gp,ra,0x1
    9850:	c0c0ceb7          	lui	t4,0xc0c0c
    9854:	0c0e8e93          	addi	t4,t4,192 # c0c0c0c0 <end+0xc0bff9c3>
    9858:	00d00e13          	li	t3,13
    985c:	19d19a63          	bne	gp,t4,99f0 <fail>

00009860 <test_14>:
    9860:	818180b7          	lui	ra,0x81818
    9864:	18108093          	addi	ra,ra,385 # 81818181 <end+0x8180ba84>
    9868:	4070d193          	srai	gp,ra,0x7
    986c:	ff030eb7          	lui	t4,0xff030
    9870:	303e8e93          	addi	t4,t4,771 # ff030303 <end+0xff023c06>
    9874:	00e00e13          	li	t3,14
    9878:	17d19c63          	bne	gp,t4,99f0 <fail>

0000987c <test_15>:
    987c:	818180b7          	lui	ra,0x81818
    9880:	18108093          	addi	ra,ra,385 # 81818181 <end+0x8180ba84>
    9884:	40e0d193          	srai	gp,ra,0xe
    9888:	fffe0eb7          	lui	t4,0xfffe0
    988c:	606e8e93          	addi	t4,t4,1542 # fffe0606 <end+0xfffd3f09>
    9890:	00f00e13          	li	t3,15
    9894:	15d19e63          	bne	gp,t4,99f0 <fail>

00009898 <test_16>:
    9898:	818180b7          	lui	ra,0x81818
    989c:	18108093          	addi	ra,ra,385 # 81818181 <end+0x8180ba84>
    98a0:	41f0d193          	srai	gp,ra,0x1f
    98a4:	fff00e93          	li	t4,-1
    98a8:	01000e13          	li	t3,16
    98ac:	15d19263          	bne	gp,t4,99f0 <fail>

000098b0 <test_17>:
    98b0:	800000b7          	lui	ra,0x80000
    98b4:	4070d093          	srai	ra,ra,0x7
    98b8:	ff000eb7          	lui	t4,0xff000
    98bc:	01100e13          	li	t3,17
    98c0:	13d09863          	bne	ra,t4,99f0 <fail>

000098c4 <test_18>:
    98c4:	00000213          	li	tp,0
    98c8:	800000b7          	lui	ra,0x80000
    98cc:	4070d193          	srai	gp,ra,0x7
    98d0:	00018313          	mv	t1,gp
    98d4:	00120213          	addi	tp,tp,1 # 1 <reset_vec+0x1>
    98d8:	00200293          	li	t0,2
    98dc:	fe5216e3          	bne	tp,t0,98c8 <test_18+0x4>
    98e0:	ff000eb7          	lui	t4,0xff000
    98e4:	01200e13          	li	t3,18
    98e8:	11d31463          	bne	t1,t4,99f0 <fail>

000098ec <test_19>:
    98ec:	00000213          	li	tp,0
    98f0:	800000b7          	lui	ra,0x80000
    98f4:	40e0d193          	srai	gp,ra,0xe
    98f8:	00000013          	nop
    98fc:	00018313          	mv	t1,gp
    9900:	00120213          	addi	tp,tp,1 # 1 <reset_vec+0x1>
    9904:	00200293          	li	t0,2
    9908:	fe5214e3          	bne	tp,t0,98f0 <test_19+0x4>
    990c:	fffe0eb7          	lui	t4,0xfffe0
    9910:	01300e13          	li	t3,19
    9914:	0dd31e63          	bne	t1,t4,99f0 <fail>

00009918 <test_20>:
    9918:	00000213          	li	tp,0
    991c:	800000b7          	lui	ra,0x80000
    9920:	00108093          	addi	ra,ra,1 # 80000001 <end+0x7fff3904>
    9924:	41f0d193          	srai	gp,ra,0x1f
    9928:	00000013          	nop
    992c:	00000013          	nop
    9930:	00018313          	mv	t1,gp
    9934:	00120213          	addi	tp,tp,1 # 1 <reset_vec+0x1>
    9938:	00200293          	li	t0,2
    993c:	fe5210e3          	bne	tp,t0,991c <test_20+0x4>
    9940:	fff00e93          	li	t4,-1
    9944:	01400e13          	li	t3,20
    9948:	0bd31463          	bne	t1,t4,99f0 <fail>

0000994c <test_21>:
    994c:	00000213          	li	tp,0
    9950:	800000b7          	lui	ra,0x80000
    9954:	4070d193          	srai	gp,ra,0x7
    9958:	00120213          	addi	tp,tp,1 # 1 <reset_vec+0x1>
    995c:	00200293          	li	t0,2
    9960:	fe5218e3          	bne	tp,t0,9950 <test_21+0x4>
    9964:	ff000eb7          	lui	t4,0xff000
    9968:	01500e13          	li	t3,21
    996c:	09d19263          	bne	gp,t4,99f0 <fail>

00009970 <test_22>:
    9970:	00000213          	li	tp,0
    9974:	800000b7          	lui	ra,0x80000
    9978:	00000013          	nop
    997c:	40e0d193          	srai	gp,ra,0xe
    9980:	00120213          	addi	tp,tp,1 # 1 <reset_vec+0x1>
    9984:	00200293          	li	t0,2
    9988:	fe5216e3          	bne	tp,t0,9974 <test_22+0x4>
    998c:	fffe0eb7          	lui	t4,0xfffe0
    9990:	01600e13          	li	t3,22
    9994:	05d19e63          	bne	gp,t4,99f0 <fail>

00009998 <test_23>:
    9998:	00000213          	li	tp,0
    999c:	800000b7          	lui	ra,0x80000
    99a0:	00108093          	addi	ra,ra,1 # 80000001 <end+0x7fff3904>
    99a4:	00000013          	nop
    99a8:	00000013          	nop
    99ac:	41f0d193          	srai	gp,ra,0x1f
    99b0:	00120213          	addi	tp,tp,1 # 1 <reset_vec+0x1>
    99b4:	00200293          	li	t0,2
    99b8:	fe5212e3          	bne	tp,t0,999c <test_23+0x4>
    99bc:	fff00e93          	li	t4,-1
    99c0:	01700e13          	li	t3,23
    99c4:	03d19663          	bne	gp,t4,99f0 <fail>

000099c8 <test_24>:
    99c8:	41f05093          	srai	ra,zero,0x1f
    99cc:	00000e93          	li	t4,0
    99d0:	01800e13          	li	t3,24
    99d4:	01d09e63          	bne	ra,t4,99f0 <fail>

000099d8 <test_25>:
    99d8:	02100093          	li	ra,33
    99dc:	4140d013          	srai	zero,ra,0x14
    99e0:	00000e93          	li	t4,0
    99e4:	01900e13          	li	t3,25
    99e8:	01d01463          	bne	zero,t4,99f0 <fail>
    99ec:	05c01863          	bne	zero,t3,9a3c <pass>

000099f0 <fail>:
    99f0:	00000513          	li	a0,0
    99f4:	10000537          	lui	a0,0x10000
    99f8:	04500593          	li	a1,69
    99fc:	05200613          	li	a2,82
    9a00:	04f00693          	li	a3,79
    9a04:	00b52023          	sw	a1,0(a0) # 10000000 <end+0xfff3903>
    9a08:	00c52023          	sw	a2,0(a0)
    9a0c:	00c52023          	sw	a2,0(a0)
    9a10:	00d52023          	sw	a3,0(a0)
    9a14:	00c52023          	sw	a2,0(a0)
    9a18:	030e0593          	addi	a1,t3,48
    9a1c:	02000613          	li	a2,32
    9a20:	03a00693          	li	a3,58
    9a24:	00d52023          	sw	a3,0(a0)
    9a28:	00c52023          	sw	a2,0(a0)
    9a2c:	00b52023          	sw	a1,0(a0)
    9a30:	00a00713          	li	a4,10
    9a34:	00e52023          	sw	a4,0(a0)
    9a38:	facf606f          	j	1e4 <srai_ret>

00009a3c <pass>:
    9a3c:	00000513          	li	a0,0
    9a40:	10000537          	lui	a0,0x10000
    9a44:	04f00593          	li	a1,79
    9a48:	04b00613          	li	a2,75
    9a4c:	00a00693          	li	a3,10
    9a50:	00b52023          	sw	a1,0(a0) # 10000000 <end+0xfff3903>
    9a54:	00c52023          	sw	a2,0(a0)
    9a58:	00d52023          	sw	a3,0(a0)
    9a5c:	f88f606f          	j	1e4 <srai_ret>

00009a60 <srl>:
    9a60:	0000a537          	lui	a0,0xa
    9a64:	a8450513          	addi	a0,a0,-1404 # 9a84 <.test_name>
    9a68:	00000613          	li	a2,0
    9a6c:	10000637          	lui	a2,0x10000

00009a70 <.prname_next>:
    9a70:	00050583          	lb	a1,0(a0)
    9a74:	00058a63          	beqz	a1,9a88 <.prname_done>
    9a78:	00b62023          	sw	a1,0(a2) # 10000000 <end+0xfff3903>
    9a7c:	00150513          	addi	a0,a0,1
    9a80:	ff1ff06f          	j	9a70 <.prname_next>

00009a84 <.test_name>:
    9a84:	006c7273          	.word	0x006c7273

00009a88 <.prname_done>:
    9a88:	00000613          	li	a2,0
    9a8c:	10000637          	lui	a2,0x10000
    9a90:	02e00593          	li	a1,46
    9a94:	00b62023          	sw	a1,0(a2) # 10000000 <end+0xfff3903>
    9a98:	00b62023          	sw	a1,0(a2)

00009a9c <test_2>:
    9a9c:	ffff80b7          	lui	ra,0xffff8
    9aa0:	00000113          	li	sp,0
    9aa4:	0020d1b3          	srl	gp,ra,sp
    9aa8:	ffff8eb7          	lui	t4,0xffff8
    9aac:	00200e13          	li	t3,2
    9ab0:	5bd19463          	bne	gp,t4,a058 <fail>

00009ab4 <test_3>:
    9ab4:	ffff80b7          	lui	ra,0xffff8
    9ab8:	00100113          	li	sp,1
    9abc:	0020d1b3          	srl	gp,ra,sp
    9ac0:	7fffceb7          	lui	t4,0x7fffc
    9ac4:	00300e13          	li	t3,3
    9ac8:	59d19863          	bne	gp,t4,a058 <fail>

00009acc <test_4>:
    9acc:	ffff80b7          	lui	ra,0xffff8
    9ad0:	00700113          	li	sp,7
    9ad4:	0020d1b3          	srl	gp,ra,sp
    9ad8:	02000eb7          	lui	t4,0x2000
    9adc:	f00e8e93          	addi	t4,t4,-256 # 1ffff00 <end+0x1ff3803>
    9ae0:	00400e13          	li	t3,4
    9ae4:	57d19a63          	bne	gp,t4,a058 <fail>

00009ae8 <test_5>:
    9ae8:	ffff80b7          	lui	ra,0xffff8
    9aec:	00e00113          	li	sp,14
    9af0:	0020d1b3          	srl	gp,ra,sp
    9af4:	00040eb7          	lui	t4,0x40
    9af8:	ffee8e93          	addi	t4,t4,-2 # 3fffe <end+0x33901>
    9afc:	00500e13          	li	t3,5
    9b00:	55d19c63          	bne	gp,t4,a058 <fail>

00009b04 <test_6>:
    9b04:	ffff80b7          	lui	ra,0xffff8
    9b08:	00108093          	addi	ra,ra,1 # ffff8001 <end+0xfffeb904>
    9b0c:	00f00113          	li	sp,15
    9b10:	0020d1b3          	srl	gp,ra,sp
    9b14:	00020eb7          	lui	t4,0x20
    9b18:	fffe8e93          	addi	t4,t4,-1 # 1ffff <end+0x13902>
    9b1c:	00600e13          	li	t3,6
    9b20:	53d19c63          	bne	gp,t4,a058 <fail>

00009b24 <test_7>:
    9b24:	fff00093          	li	ra,-1
    9b28:	00000113          	li	sp,0
    9b2c:	0020d1b3          	srl	gp,ra,sp
    9b30:	fff00e93          	li	t4,-1
    9b34:	00700e13          	li	t3,7
    9b38:	53d19063          	bne	gp,t4,a058 <fail>

00009b3c <test_8>:
    9b3c:	fff00093          	li	ra,-1
    9b40:	00100113          	li	sp,1
    9b44:	0020d1b3          	srl	gp,ra,sp
    9b48:	80000eb7          	lui	t4,0x80000
    9b4c:	fffe8e93          	addi	t4,t4,-1 # 7fffffff <end+0x7fff3902>
    9b50:	00800e13          	li	t3,8
    9b54:	51d19263          	bne	gp,t4,a058 <fail>

00009b58 <test_9>:
    9b58:	fff00093          	li	ra,-1
    9b5c:	00700113          	li	sp,7
    9b60:	0020d1b3          	srl	gp,ra,sp
    9b64:	02000eb7          	lui	t4,0x2000
    9b68:	fffe8e93          	addi	t4,t4,-1 # 1ffffff <end+0x1ff3902>
    9b6c:	00900e13          	li	t3,9
    9b70:	4fd19463          	bne	gp,t4,a058 <fail>

00009b74 <test_10>:
    9b74:	fff00093          	li	ra,-1
    9b78:	00e00113          	li	sp,14
    9b7c:	0020d1b3          	srl	gp,ra,sp
    9b80:	00040eb7          	lui	t4,0x40
    9b84:	fffe8e93          	addi	t4,t4,-1 # 3ffff <end+0x33902>
    9b88:	00a00e13          	li	t3,10
    9b8c:	4dd19663          	bne	gp,t4,a058 <fail>

00009b90 <test_11>:
    9b90:	fff00093          	li	ra,-1
    9b94:	01f00113          	li	sp,31
    9b98:	0020d1b3          	srl	gp,ra,sp
    9b9c:	00100e93          	li	t4,1
    9ba0:	00b00e13          	li	t3,11
    9ba4:	4bd19a63          	bne	gp,t4,a058 <fail>

00009ba8 <test_12>:
    9ba8:	212120b7          	lui	ra,0x21212
    9bac:	12108093          	addi	ra,ra,289 # 21212121 <end+0x21205a24>
    9bb0:	00000113          	li	sp,0
    9bb4:	0020d1b3          	srl	gp,ra,sp
    9bb8:	21212eb7          	lui	t4,0x21212
    9bbc:	121e8e93          	addi	t4,t4,289 # 21212121 <end+0x21205a24>
    9bc0:	00c00e13          	li	t3,12
    9bc4:	49d19a63          	bne	gp,t4,a058 <fail>

00009bc8 <test_13>:
    9bc8:	212120b7          	lui	ra,0x21212
    9bcc:	12108093          	addi	ra,ra,289 # 21212121 <end+0x21205a24>
    9bd0:	00100113          	li	sp,1
    9bd4:	0020d1b3          	srl	gp,ra,sp
    9bd8:	10909eb7          	lui	t4,0x10909
    9bdc:	090e8e93          	addi	t4,t4,144 # 10909090 <end+0x108fc993>
    9be0:	00d00e13          	li	t3,13
    9be4:	47d19a63          	bne	gp,t4,a058 <fail>

00009be8 <test_14>:
    9be8:	212120b7          	lui	ra,0x21212
    9bec:	12108093          	addi	ra,ra,289 # 21212121 <end+0x21205a24>
    9bf0:	00700113          	li	sp,7
    9bf4:	0020d1b3          	srl	gp,ra,sp
    9bf8:	00424eb7          	lui	t4,0x424
    9bfc:	242e8e93          	addi	t4,t4,578 # 424242 <end+0x417b45>
    9c00:	00e00e13          	li	t3,14
    9c04:	45d19a63          	bne	gp,t4,a058 <fail>

00009c08 <test_15>:
    9c08:	212120b7          	lui	ra,0x21212
    9c0c:	12108093          	addi	ra,ra,289 # 21212121 <end+0x21205a24>
    9c10:	00e00113          	li	sp,14
    9c14:	0020d1b3          	srl	gp,ra,sp
    9c18:	00008eb7          	lui	t4,0x8
    9c1c:	484e8e93          	addi	t4,t4,1156 # 8484 <fail+0x10>
    9c20:	00f00e13          	li	t3,15
    9c24:	43d19a63          	bne	gp,t4,a058 <fail>

00009c28 <test_16>:
    9c28:	212120b7          	lui	ra,0x21212
    9c2c:	12108093          	addi	ra,ra,289 # 21212121 <end+0x21205a24>
    9c30:	01f00113          	li	sp,31
    9c34:	0020d1b3          	srl	gp,ra,sp
    9c38:	00000e93          	li	t4,0
    9c3c:	01000e13          	li	t3,16
    9c40:	41d19c63          	bne	gp,t4,a058 <fail>

00009c44 <test_17>:
    9c44:	212120b7          	lui	ra,0x21212
    9c48:	12108093          	addi	ra,ra,289 # 21212121 <end+0x21205a24>
    9c4c:	fe000113          	li	sp,-32
    9c50:	0020d1b3          	srl	gp,ra,sp
    9c54:	21212eb7          	lui	t4,0x21212
    9c58:	121e8e93          	addi	t4,t4,289 # 21212121 <end+0x21205a24>
    9c5c:	01100e13          	li	t3,17
    9c60:	3fd19c63          	bne	gp,t4,a058 <fail>

00009c64 <test_18>:
    9c64:	212120b7          	lui	ra,0x21212
    9c68:	12108093          	addi	ra,ra,289 # 21212121 <end+0x21205a24>
    9c6c:	fe100113          	li	sp,-31
    9c70:	0020d1b3          	srl	gp,ra,sp
    9c74:	10909eb7          	lui	t4,0x10909
    9c78:	090e8e93          	addi	t4,t4,144 # 10909090 <end+0x108fc993>
    9c7c:	01200e13          	li	t3,18
    9c80:	3dd19c63          	bne	gp,t4,a058 <fail>

00009c84 <test_19>:
    9c84:	212120b7          	lui	ra,0x21212
    9c88:	12108093          	addi	ra,ra,289 # 21212121 <end+0x21205a24>
    9c8c:	fe700113          	li	sp,-25
    9c90:	0020d1b3          	srl	gp,ra,sp
    9c94:	00424eb7          	lui	t4,0x424
    9c98:	242e8e93          	addi	t4,t4,578 # 424242 <end+0x417b45>
    9c9c:	01300e13          	li	t3,19
    9ca0:	3bd19c63          	bne	gp,t4,a058 <fail>

00009ca4 <test_20>:
    9ca4:	212120b7          	lui	ra,0x21212
    9ca8:	12108093          	addi	ra,ra,289 # 21212121 <end+0x21205a24>
    9cac:	fee00113          	li	sp,-18
    9cb0:	0020d1b3          	srl	gp,ra,sp
    9cb4:	00008eb7          	lui	t4,0x8
    9cb8:	484e8e93          	addi	t4,t4,1156 # 8484 <fail+0x10>
    9cbc:	01400e13          	li	t3,20
    9cc0:	39d19c63          	bne	gp,t4,a058 <fail>

00009cc4 <test_21>:
    9cc4:	212120b7          	lui	ra,0x21212
    9cc8:	12108093          	addi	ra,ra,289 # 21212121 <end+0x21205a24>
    9ccc:	fff00113          	li	sp,-1
    9cd0:	0020d1b3          	srl	gp,ra,sp
    9cd4:	00000e93          	li	t4,0
    9cd8:	01500e13          	li	t3,21
    9cdc:	37d19e63          	bne	gp,t4,a058 <fail>

00009ce0 <test_22>:
    9ce0:	ffff80b7          	lui	ra,0xffff8
    9ce4:	00100113          	li	sp,1
    9ce8:	0020d0b3          	srl	ra,ra,sp
    9cec:	7fffceb7          	lui	t4,0x7fffc
    9cf0:	01600e13          	li	t3,22
    9cf4:	37d09263          	bne	ra,t4,a058 <fail>

00009cf8 <test_23>:
    9cf8:	ffff80b7          	lui	ra,0xffff8
    9cfc:	00e00113          	li	sp,14
    9d00:	0020d133          	srl	sp,ra,sp
    9d04:	00040eb7          	lui	t4,0x40
    9d08:	ffee8e93          	addi	t4,t4,-2 # 3fffe <end+0x33901>
    9d0c:	01700e13          	li	t3,23
    9d10:	35d11463          	bne	sp,t4,a058 <fail>

00009d14 <test_24>:
    9d14:	00700093          	li	ra,7
    9d18:	0010d0b3          	srl	ra,ra,ra
    9d1c:	00000e93          	li	t4,0
    9d20:	01800e13          	li	t3,24
    9d24:	33d09a63          	bne	ra,t4,a058 <fail>

00009d28 <test_25>:
    9d28:	00000213          	li	tp,0
    9d2c:	ffff80b7          	lui	ra,0xffff8
    9d30:	00100113          	li	sp,1
    9d34:	0020d1b3          	srl	gp,ra,sp
    9d38:	00018313          	mv	t1,gp
    9d3c:	00120213          	addi	tp,tp,1 # 1 <reset_vec+0x1>
    9d40:	00200293          	li	t0,2
    9d44:	fe5214e3          	bne	tp,t0,9d2c <test_25+0x4>
    9d48:	7fffceb7          	lui	t4,0x7fffc
    9d4c:	01900e13          	li	t3,25
    9d50:	31d31463          	bne	t1,t4,a058 <fail>

00009d54 <test_26>:
    9d54:	00000213          	li	tp,0
    9d58:	ffff80b7          	lui	ra,0xffff8
    9d5c:	00e00113          	li	sp,14
    9d60:	0020d1b3          	srl	gp,ra,sp
    9d64:	00000013          	nop
    9d68:	00018313          	mv	t1,gp
    9d6c:	00120213          	addi	tp,tp,1 # 1 <reset_vec+0x1>
    9d70:	00200293          	li	t0,2
    9d74:	fe5212e3          	bne	tp,t0,9d58 <test_26+0x4>
    9d78:	00040eb7          	lui	t4,0x40
    9d7c:	ffee8e93          	addi	t4,t4,-2 # 3fffe <end+0x33901>
    9d80:	01a00e13          	li	t3,26
    9d84:	2dd31a63          	bne	t1,t4,a058 <fail>

00009d88 <test_27>:
    9d88:	00000213          	li	tp,0
    9d8c:	ffff80b7          	lui	ra,0xffff8
    9d90:	00f00113          	li	sp,15
    9d94:	0020d1b3          	srl	gp,ra,sp
    9d98:	00000013          	nop
    9d9c:	00000013          	nop
    9da0:	00018313          	mv	t1,gp
    9da4:	00120213          	addi	tp,tp,1 # 1 <reset_vec+0x1>
    9da8:	00200293          	li	t0,2
    9dac:	fe5210e3          	bne	tp,t0,9d8c <test_27+0x4>
    9db0:	00020eb7          	lui	t4,0x20
    9db4:	fffe8e93          	addi	t4,t4,-1 # 1ffff <end+0x13902>
    9db8:	01b00e13          	li	t3,27
    9dbc:	29d31e63          	bne	t1,t4,a058 <fail>

00009dc0 <test_28>:
    9dc0:	00000213          	li	tp,0
    9dc4:	ffff80b7          	lui	ra,0xffff8
    9dc8:	00100113          	li	sp,1
    9dcc:	0020d1b3          	srl	gp,ra,sp
    9dd0:	00120213          	addi	tp,tp,1 # 1 <reset_vec+0x1>
    9dd4:	00200293          	li	t0,2
    9dd8:	fe5216e3          	bne	tp,t0,9dc4 <test_28+0x4>
    9ddc:	7fffceb7          	lui	t4,0x7fffc
    9de0:	01c00e13          	li	t3,28
    9de4:	27d19a63          	bne	gp,t4,a058 <fail>

00009de8 <test_29>:
    9de8:	00000213          	li	tp,0
    9dec:	ffff80b7          	lui	ra,0xffff8
    9df0:	00700113          	li	sp,7
    9df4:	00000013          	nop
    9df8:	0020d1b3          	srl	gp,ra,sp
    9dfc:	00120213          	addi	tp,tp,1 # 1 <reset_vec+0x1>
    9e00:	00200293          	li	t0,2
    9e04:	fe5214e3          	bne	tp,t0,9dec <test_29+0x4>
    9e08:	02000eb7          	lui	t4,0x2000
    9e0c:	f00e8e93          	addi	t4,t4,-256 # 1ffff00 <end+0x1ff3803>
    9e10:	01d00e13          	li	t3,29
    9e14:	25d19263          	bne	gp,t4,a058 <fail>

00009e18 <test_30>:
    9e18:	00000213          	li	tp,0
    9e1c:	ffff80b7          	lui	ra,0xffff8
    9e20:	00f00113          	li	sp,15
    9e24:	00000013          	nop
    9e28:	00000013          	nop
    9e2c:	0020d1b3          	srl	gp,ra,sp
    9e30:	00120213          	addi	tp,tp,1 # 1 <reset_vec+0x1>
    9e34:	00200293          	li	t0,2
    9e38:	fe5212e3          	bne	tp,t0,9e1c <test_30+0x4>
    9e3c:	00020eb7          	lui	t4,0x20
    9e40:	fffe8e93          	addi	t4,t4,-1 # 1ffff <end+0x13902>
    9e44:	01e00e13          	li	t3,30
    9e48:	21d19863          	bne	gp,t4,a058 <fail>

00009e4c <test_31>:
    9e4c:	00000213          	li	tp,0
    9e50:	ffff80b7          	lui	ra,0xffff8
    9e54:	00000013          	nop
    9e58:	00100113          	li	sp,1
    9e5c:	0020d1b3          	srl	gp,ra,sp
    9e60:	00120213          	addi	tp,tp,1 # 1 <reset_vec+0x1>
    9e64:	00200293          	li	t0,2
    9e68:	fe5214e3          	bne	tp,t0,9e50 <test_31+0x4>
    9e6c:	7fffceb7          	lui	t4,0x7fffc
    9e70:	01f00e13          	li	t3,31
    9e74:	1fd19263          	bne	gp,t4,a058 <fail>

00009e78 <test_32>:
    9e78:	00000213          	li	tp,0
    9e7c:	ffff80b7          	lui	ra,0xffff8
    9e80:	00000013          	nop
    9e84:	00700113          	li	sp,7
    9e88:	00000013          	nop
    9e8c:	0020d1b3          	srl	gp,ra,sp
    9e90:	00120213          	addi	tp,tp,1 # 1 <reset_vec+0x1>
    9e94:	00200293          	li	t0,2
    9e98:	fe5212e3          	bne	tp,t0,9e7c <test_32+0x4>
    9e9c:	02000eb7          	lui	t4,0x2000
    9ea0:	f00e8e93          	addi	t4,t4,-256 # 1ffff00 <end+0x1ff3803>
    9ea4:	02000e13          	li	t3,32
    9ea8:	1bd19863          	bne	gp,t4,a058 <fail>

00009eac <test_33>:
    9eac:	00000213          	li	tp,0
    9eb0:	ffff80b7          	lui	ra,0xffff8
    9eb4:	00000013          	nop
    9eb8:	00000013          	nop
    9ebc:	00f00113          	li	sp,15
    9ec0:	0020d1b3          	srl	gp,ra,sp
    9ec4:	00120213          	addi	tp,tp,1 # 1 <reset_vec+0x1>
    9ec8:	00200293          	li	t0,2
    9ecc:	fe5212e3          	bne	tp,t0,9eb0 <test_33+0x4>
    9ed0:	00020eb7          	lui	t4,0x20
    9ed4:	fffe8e93          	addi	t4,t4,-1 # 1ffff <end+0x13902>
    9ed8:	02100e13          	li	t3,33
    9edc:	17d19e63          	bne	gp,t4,a058 <fail>

00009ee0 <test_34>:
    9ee0:	00000213          	li	tp,0
    9ee4:	00100113          	li	sp,1
    9ee8:	ffff80b7          	lui	ra,0xffff8
    9eec:	0020d1b3          	srl	gp,ra,sp
    9ef0:	00120213          	addi	tp,tp,1 # 1 <reset_vec+0x1>
    9ef4:	00200293          	li	t0,2
    9ef8:	fe5216e3          	bne	tp,t0,9ee4 <test_34+0x4>
    9efc:	7fffceb7          	lui	t4,0x7fffc
    9f00:	02200e13          	li	t3,34
    9f04:	15d19a63          	bne	gp,t4,a058 <fail>

00009f08 <test_35>:
    9f08:	00000213          	li	tp,0
    9f0c:	00700113          	li	sp,7
    9f10:	ffff80b7          	lui	ra,0xffff8
    9f14:	00000013          	nop
    9f18:	0020d1b3          	srl	gp,ra,sp
    9f1c:	00120213          	addi	tp,tp,1 # 1 <reset_vec+0x1>
    9f20:	00200293          	li	t0,2
    9f24:	fe5214e3          	bne	tp,t0,9f0c <test_35+0x4>
    9f28:	02000eb7          	lui	t4,0x2000
    9f2c:	f00e8e93          	addi	t4,t4,-256 # 1ffff00 <end+0x1ff3803>
    9f30:	02300e13          	li	t3,35
    9f34:	13d19263          	bne	gp,t4,a058 <fail>

00009f38 <test_36>:
    9f38:	00000213          	li	tp,0
    9f3c:	00f00113          	li	sp,15
    9f40:	ffff80b7          	lui	ra,0xffff8
    9f44:	00000013          	nop
    9f48:	00000013          	nop
    9f4c:	0020d1b3          	srl	gp,ra,sp
    9f50:	00120213          	addi	tp,tp,1 # 1 <reset_vec+0x1>
    9f54:	00200293          	li	t0,2
    9f58:	fe5212e3          	bne	tp,t0,9f3c <test_36+0x4>
    9f5c:	00020eb7          	lui	t4,0x20
    9f60:	fffe8e93          	addi	t4,t4,-1 # 1ffff <end+0x13902>
    9f64:	02400e13          	li	t3,36
    9f68:	0fd19863          	bne	gp,t4,a058 <fail>

00009f6c <test_37>:
    9f6c:	00000213          	li	tp,0
    9f70:	00100113          	li	sp,1
    9f74:	00000013          	nop
    9f78:	ffff80b7          	lui	ra,0xffff8
    9f7c:	0020d1b3          	srl	gp,ra,sp
    9f80:	00120213          	addi	tp,tp,1 # 1 <reset_vec+0x1>
    9f84:	00200293          	li	t0,2
    9f88:	fe5214e3          	bne	tp,t0,9f70 <test_37+0x4>
    9f8c:	7fffceb7          	lui	t4,0x7fffc
    9f90:	02500e13          	li	t3,37
    9f94:	0dd19263          	bne	gp,t4,a058 <fail>

00009f98 <test_38>:
    9f98:	00000213          	li	tp,0
    9f9c:	00700113          	li	sp,7
    9fa0:	00000013          	nop
    9fa4:	ffff80b7          	lui	ra,0xffff8
    9fa8:	00000013          	nop
    9fac:	0020d1b3          	srl	gp,ra,sp
    9fb0:	00120213          	addi	tp,tp,1 # 1 <reset_vec+0x1>
    9fb4:	00200293          	li	t0,2
    9fb8:	fe5212e3          	bne	tp,t0,9f9c <test_38+0x4>
    9fbc:	02000eb7          	lui	t4,0x2000
    9fc0:	f00e8e93          	addi	t4,t4,-256 # 1ffff00 <end+0x1ff3803>
    9fc4:	02600e13          	li	t3,38
    9fc8:	09d19863          	bne	gp,t4,a058 <fail>

00009fcc <test_39>:
    9fcc:	00000213          	li	tp,0
    9fd0:	00f00113          	li	sp,15
    9fd4:	00000013          	nop
    9fd8:	00000013          	nop
    9fdc:	ffff80b7          	lui	ra,0xffff8
    9fe0:	0020d1b3          	srl	gp,ra,sp
    9fe4:	00120213          	addi	tp,tp,1 # 1 <reset_vec+0x1>
    9fe8:	00200293          	li	t0,2
    9fec:	fe5212e3          	bne	tp,t0,9fd0 <test_39+0x4>
    9ff0:	00020eb7          	lui	t4,0x20
    9ff4:	fffe8e93          	addi	t4,t4,-1 # 1ffff <end+0x13902>
    9ff8:	02700e13          	li	t3,39
    9ffc:	05d19e63          	bne	gp,t4,a058 <fail>

0000a000 <test_40>:
    a000:	00f00093          	li	ra,15
    a004:	00105133          	srl	sp,zero,ra
    a008:	00000e93          	li	t4,0
    a00c:	02800e13          	li	t3,40
    a010:	05d11463          	bne	sp,t4,a058 <fail>

0000a014 <test_41>:
    a014:	02000093          	li	ra,32
    a018:	0000d133          	srl	sp,ra,zero
    a01c:	02000e93          	li	t4,32
    a020:	02900e13          	li	t3,41
    a024:	03d11a63          	bne	sp,t4,a058 <fail>

0000a028 <test_42>:
    a028:	000050b3          	srl	ra,zero,zero
    a02c:	00000e93          	li	t4,0
    a030:	02a00e13          	li	t3,42
    a034:	03d09263          	bne	ra,t4,a058 <fail>

0000a038 <test_43>:
    a038:	40000093          	li	ra,1024
    a03c:	00001137          	lui	sp,0x1
    a040:	80010113          	addi	sp,sp,-2048 # 800 <printint+0x2c>
    a044:	0020d033          	srl	zero,ra,sp
    a048:	00000e93          	li	t4,0
    a04c:	02b00e13          	li	t3,43
    a050:	01d01463          	bne	zero,t4,a058 <fail>
    a054:	05c01863          	bne	zero,t3,a0a4 <pass>

0000a058 <fail>:
    a058:	00000513          	li	a0,0
    a05c:	10000537          	lui	a0,0x10000
    a060:	04500593          	li	a1,69
    a064:	05200613          	li	a2,82
    a068:	04f00693          	li	a3,79
    a06c:	00b52023          	sw	a1,0(a0) # 10000000 <end+0xfff3903>
    a070:	00c52023          	sw	a2,0(a0)
    a074:	00c52023          	sw	a2,0(a0)
    a078:	00d52023          	sw	a3,0(a0)
    a07c:	00c52023          	sw	a2,0(a0)
    a080:	030e0593          	addi	a1,t3,48
    a084:	02000613          	li	a2,32
    a088:	03a00693          	li	a3,58
    a08c:	00d52023          	sw	a3,0(a0)
    a090:	00c52023          	sw	a2,0(a0)
    a094:	00b52023          	sw	a1,0(a0)
    a098:	00a00713          	li	a4,10
    a09c:	00e52023          	sw	a4,0(a0)
    a0a0:	974f606f          	j	214 <srl_ret>

0000a0a4 <pass>:
    a0a4:	00000513          	li	a0,0
    a0a8:	10000537          	lui	a0,0x10000
    a0ac:	04f00593          	li	a1,79
    a0b0:	04b00613          	li	a2,75
    a0b4:	00a00693          	li	a3,10
    a0b8:	00b52023          	sw	a1,0(a0) # 10000000 <end+0xfff3903>
    a0bc:	00c52023          	sw	a2,0(a0)
    a0c0:	00d52023          	sw	a3,0(a0)
    a0c4:	950f606f          	j	214 <srl_ret>

0000a0c8 <srli>:
    a0c8:	0000a537          	lui	a0,0xa
    a0cc:	0ec50513          	addi	a0,a0,236 # a0ec <.test_name>
    a0d0:	00000613          	li	a2,0
    a0d4:	10000637          	lui	a2,0x10000

0000a0d8 <.prname_next>:
    a0d8:	00050583          	lb	a1,0(a0)
    a0dc:	00058c63          	beqz	a1,a0f4 <.prname_done>
    a0e0:	00b62023          	sw	a1,0(a2) # 10000000 <end+0xfff3903>
    a0e4:	00150513          	addi	a0,a0,1
    a0e8:	ff1ff06f          	j	a0d8 <.prname_next>

0000a0ec <.test_name>:
    a0ec:	696c7273          	.word	0x696c7273
    a0f0:	00000000          	.word	0x00000000

0000a0f4 <.prname_done>:
    a0f4:	00000613          	li	a2,0
    a0f8:	10000637          	lui	a2,0x10000
    a0fc:	02e00593          	li	a1,46
    a100:	00b62023          	sw	a1,0(a2) # 10000000 <end+0xfff3903>
    a104:	00b62023          	sw	a1,0(a2)

0000a108 <test_2>:
    a108:	ffff80b7          	lui	ra,0xffff8
    a10c:	0000d193          	srli	gp,ra,0x0
    a110:	ffff8eb7          	lui	t4,0xffff8
    a114:	00200e13          	li	t3,2
    a118:	2bd19263          	bne	gp,t4,a3bc <fail>

0000a11c <test_3>:
    a11c:	ffff80b7          	lui	ra,0xffff8
    a120:	0010d193          	srli	gp,ra,0x1
    a124:	7fffceb7          	lui	t4,0x7fffc
    a128:	00300e13          	li	t3,3
    a12c:	29d19863          	bne	gp,t4,a3bc <fail>

0000a130 <test_4>:
    a130:	ffff80b7          	lui	ra,0xffff8
    a134:	0070d193          	srli	gp,ra,0x7
    a138:	02000eb7          	lui	t4,0x2000
    a13c:	f00e8e93          	addi	t4,t4,-256 # 1ffff00 <end+0x1ff3803>
    a140:	00400e13          	li	t3,4
    a144:	27d19c63          	bne	gp,t4,a3bc <fail>

0000a148 <test_5>:
    a148:	ffff80b7          	lui	ra,0xffff8
    a14c:	00e0d193          	srli	gp,ra,0xe
    a150:	00040eb7          	lui	t4,0x40
    a154:	ffee8e93          	addi	t4,t4,-2 # 3fffe <end+0x33901>
    a158:	00500e13          	li	t3,5
    a15c:	27d19063          	bne	gp,t4,a3bc <fail>

0000a160 <test_6>:
    a160:	ffff80b7          	lui	ra,0xffff8
    a164:	00108093          	addi	ra,ra,1 # ffff8001 <end+0xfffeb904>
    a168:	00f0d193          	srli	gp,ra,0xf
    a16c:	00020eb7          	lui	t4,0x20
    a170:	fffe8e93          	addi	t4,t4,-1 # 1ffff <end+0x13902>
    a174:	00600e13          	li	t3,6
    a178:	25d19263          	bne	gp,t4,a3bc <fail>

0000a17c <test_7>:
    a17c:	fff00093          	li	ra,-1
    a180:	0000d193          	srli	gp,ra,0x0
    a184:	fff00e93          	li	t4,-1
    a188:	00700e13          	li	t3,7
    a18c:	23d19863          	bne	gp,t4,a3bc <fail>

0000a190 <test_8>:
    a190:	fff00093          	li	ra,-1
    a194:	0010d193          	srli	gp,ra,0x1
    a198:	80000eb7          	lui	t4,0x80000
    a19c:	fffe8e93          	addi	t4,t4,-1 # 7fffffff <end+0x7fff3902>
    a1a0:	00800e13          	li	t3,8
    a1a4:	21d19c63          	bne	gp,t4,a3bc <fail>

0000a1a8 <test_9>:
    a1a8:	fff00093          	li	ra,-1
    a1ac:	0070d193          	srli	gp,ra,0x7
    a1b0:	02000eb7          	lui	t4,0x2000
    a1b4:	fffe8e93          	addi	t4,t4,-1 # 1ffffff <end+0x1ff3902>
    a1b8:	00900e13          	li	t3,9
    a1bc:	21d19063          	bne	gp,t4,a3bc <fail>

0000a1c0 <test_10>:
    a1c0:	fff00093          	li	ra,-1
    a1c4:	00e0d193          	srli	gp,ra,0xe
    a1c8:	00040eb7          	lui	t4,0x40
    a1cc:	fffe8e93          	addi	t4,t4,-1 # 3ffff <end+0x33902>
    a1d0:	00a00e13          	li	t3,10
    a1d4:	1fd19463          	bne	gp,t4,a3bc <fail>

0000a1d8 <test_11>:
    a1d8:	fff00093          	li	ra,-1
    a1dc:	01f0d193          	srli	gp,ra,0x1f
    a1e0:	00100e93          	li	t4,1
    a1e4:	00b00e13          	li	t3,11
    a1e8:	1dd19a63          	bne	gp,t4,a3bc <fail>

0000a1ec <test_12>:
    a1ec:	212120b7          	lui	ra,0x21212
    a1f0:	12108093          	addi	ra,ra,289 # 21212121 <end+0x21205a24>
    a1f4:	0000d193          	srli	gp,ra,0x0
    a1f8:	21212eb7          	lui	t4,0x21212
    a1fc:	121e8e93          	addi	t4,t4,289 # 21212121 <end+0x21205a24>
    a200:	00c00e13          	li	t3,12
    a204:	1bd19c63          	bne	gp,t4,a3bc <fail>

0000a208 <test_13>:
    a208:	212120b7          	lui	ra,0x21212
    a20c:	12108093          	addi	ra,ra,289 # 21212121 <end+0x21205a24>
    a210:	0010d193          	srli	gp,ra,0x1
    a214:	10909eb7          	lui	t4,0x10909
    a218:	090e8e93          	addi	t4,t4,144 # 10909090 <end+0x108fc993>
    a21c:	00d00e13          	li	t3,13
    a220:	19d19e63          	bne	gp,t4,a3bc <fail>

0000a224 <test_14>:
    a224:	212120b7          	lui	ra,0x21212
    a228:	12108093          	addi	ra,ra,289 # 21212121 <end+0x21205a24>
    a22c:	0070d193          	srli	gp,ra,0x7
    a230:	00424eb7          	lui	t4,0x424
    a234:	242e8e93          	addi	t4,t4,578 # 424242 <end+0x417b45>
    a238:	00e00e13          	li	t3,14
    a23c:	19d19063          	bne	gp,t4,a3bc <fail>

0000a240 <test_15>:
    a240:	212120b7          	lui	ra,0x21212
    a244:	12108093          	addi	ra,ra,289 # 21212121 <end+0x21205a24>
    a248:	00e0d193          	srli	gp,ra,0xe
    a24c:	00008eb7          	lui	t4,0x8
    a250:	484e8e93          	addi	t4,t4,1156 # 8484 <fail+0x10>
    a254:	00f00e13          	li	t3,15
    a258:	17d19263          	bne	gp,t4,a3bc <fail>

0000a25c <test_16>:
    a25c:	212120b7          	lui	ra,0x21212
    a260:	12108093          	addi	ra,ra,289 # 21212121 <end+0x21205a24>
    a264:	01f0d193          	srli	gp,ra,0x1f
    a268:	00000e93          	li	t4,0
    a26c:	01000e13          	li	t3,16
    a270:	15d19663          	bne	gp,t4,a3bc <fail>

0000a274 <test_21>:
    a274:	ffff80b7          	lui	ra,0xffff8
    a278:	0010d093          	srli	ra,ra,0x1
    a27c:	7fffceb7          	lui	t4,0x7fffc
    a280:	01500e13          	li	t3,21
    a284:	13d09c63          	bne	ra,t4,a3bc <fail>

0000a288 <test_22>:
    a288:	00000213          	li	tp,0
    a28c:	ffff80b7          	lui	ra,0xffff8
    a290:	0010d193          	srli	gp,ra,0x1
    a294:	00018313          	mv	t1,gp
    a298:	00120213          	addi	tp,tp,1 # 1 <reset_vec+0x1>
    a29c:	00200293          	li	t0,2
    a2a0:	fe5216e3          	bne	tp,t0,a28c <test_22+0x4>
    a2a4:	7fffceb7          	lui	t4,0x7fffc
    a2a8:	01600e13          	li	t3,22
    a2ac:	11d31863          	bne	t1,t4,a3bc <fail>

0000a2b0 <test_23>:
    a2b0:	00000213          	li	tp,0
    a2b4:	ffff80b7          	lui	ra,0xffff8
    a2b8:	00e0d193          	srli	gp,ra,0xe
    a2bc:	00000013          	nop
    a2c0:	00018313          	mv	t1,gp
    a2c4:	00120213          	addi	tp,tp,1 # 1 <reset_vec+0x1>
    a2c8:	00200293          	li	t0,2
    a2cc:	fe5214e3          	bne	tp,t0,a2b4 <test_23+0x4>
    a2d0:	00040eb7          	lui	t4,0x40
    a2d4:	ffee8e93          	addi	t4,t4,-2 # 3fffe <end+0x33901>
    a2d8:	01700e13          	li	t3,23
    a2dc:	0fd31063          	bne	t1,t4,a3bc <fail>

0000a2e0 <test_24>:
    a2e0:	00000213          	li	tp,0
    a2e4:	ffff80b7          	lui	ra,0xffff8
    a2e8:	00f0d193          	srli	gp,ra,0xf
    a2ec:	00000013          	nop
    a2f0:	00000013          	nop
    a2f4:	00018313          	mv	t1,gp
    a2f8:	00120213          	addi	tp,tp,1 # 1 <reset_vec+0x1>
    a2fc:	00200293          	li	t0,2
    a300:	fe5212e3          	bne	tp,t0,a2e4 <test_24+0x4>
    a304:	00020eb7          	lui	t4,0x20
    a308:	fffe8e93          	addi	t4,t4,-1 # 1ffff <end+0x13902>
    a30c:	01800e13          	li	t3,24
    a310:	0bd31663          	bne	t1,t4,a3bc <fail>

0000a314 <test_25>:
    a314:	00000213          	li	tp,0
    a318:	ffff80b7          	lui	ra,0xffff8
    a31c:	0010d193          	srli	gp,ra,0x1
    a320:	00120213          	addi	tp,tp,1 # 1 <reset_vec+0x1>
    a324:	00200293          	li	t0,2
    a328:	fe5218e3          	bne	tp,t0,a318 <test_25+0x4>
    a32c:	7fffceb7          	lui	t4,0x7fffc
    a330:	01900e13          	li	t3,25
    a334:	09d19463          	bne	gp,t4,a3bc <fail>

0000a338 <test_26>:
    a338:	00000213          	li	tp,0
    a33c:	ffff80b7          	lui	ra,0xffff8
    a340:	00000013          	nop
    a344:	00e0d193          	srli	gp,ra,0xe
    a348:	00120213          	addi	tp,tp,1 # 1 <reset_vec+0x1>
    a34c:	00200293          	li	t0,2
    a350:	fe5216e3          	bne	tp,t0,a33c <test_26+0x4>
    a354:	00040eb7          	lui	t4,0x40
    a358:	ffee8e93          	addi	t4,t4,-2 # 3fffe <end+0x33901>
    a35c:	01a00e13          	li	t3,26
    a360:	05d19e63          	bne	gp,t4,a3bc <fail>

0000a364 <test_27>:
    a364:	00000213          	li	tp,0
    a368:	ffff80b7          	lui	ra,0xffff8
    a36c:	00000013          	nop
    a370:	00000013          	nop
    a374:	00f0d193          	srli	gp,ra,0xf
    a378:	00120213          	addi	tp,tp,1 # 1 <reset_vec+0x1>
    a37c:	00200293          	li	t0,2
    a380:	fe5214e3          	bne	tp,t0,a368 <test_27+0x4>
    a384:	00020eb7          	lui	t4,0x20
    a388:	fffe8e93          	addi	t4,t4,-1 # 1ffff <end+0x13902>
    a38c:	01b00e13          	li	t3,27
    a390:	03d19663          	bne	gp,t4,a3bc <fail>

0000a394 <test_28>:
    a394:	01f05093          	srli	ra,zero,0x1f
    a398:	00000e93          	li	t4,0
    a39c:	01c00e13          	li	t3,28
    a3a0:	01d09e63          	bne	ra,t4,a3bc <fail>

0000a3a4 <test_29>:
    a3a4:	02100093          	li	ra,33
    a3a8:	0140d013          	srli	zero,ra,0x14
    a3ac:	00000e93          	li	t4,0
    a3b0:	01d00e13          	li	t3,29
    a3b4:	01d01463          	bne	zero,t4,a3bc <fail>
    a3b8:	05c01863          	bne	zero,t3,a408 <pass>

0000a3bc <fail>:
    a3bc:	00000513          	li	a0,0
    a3c0:	10000537          	lui	a0,0x10000
    a3c4:	04500593          	li	a1,69
    a3c8:	05200613          	li	a2,82
    a3cc:	04f00693          	li	a3,79
    a3d0:	00b52023          	sw	a1,0(a0) # 10000000 <end+0xfff3903>
    a3d4:	00c52023          	sw	a2,0(a0)
    a3d8:	00c52023          	sw	a2,0(a0)
    a3dc:	00d52023          	sw	a3,0(a0)
    a3e0:	00c52023          	sw	a2,0(a0)
    a3e4:	030e0593          	addi	a1,t3,48
    a3e8:	02000613          	li	a2,32
    a3ec:	03a00693          	li	a3,58
    a3f0:	00d52023          	sw	a3,0(a0)
    a3f4:	00c52023          	sw	a2,0(a0)
    a3f8:	00b52023          	sw	a1,0(a0)
    a3fc:	00a00713          	li	a4,10
    a400:	00e52023          	sw	a4,0(a0)
    a404:	dd9f506f          	j	1dc <srli_ret>

0000a408 <pass>:
    a408:	00000513          	li	a0,0
    a40c:	10000537          	lui	a0,0x10000
    a410:	04f00593          	li	a1,79
    a414:	04b00613          	li	a2,75
    a418:	00a00693          	li	a3,10
    a41c:	00b52023          	sw	a1,0(a0) # 10000000 <end+0xfff3903>
    a420:	00c52023          	sw	a2,0(a0)
    a424:	00d52023          	sw	a3,0(a0)
    a428:	db5f506f          	j	1dc <srli_ret>

0000a42c <sub>:
    a42c:	0000a537          	lui	a0,0xa
    a430:	45050513          	addi	a0,a0,1104 # a450 <.test_name>
    a434:	00000613          	li	a2,0
    a438:	10000637          	lui	a2,0x10000

0000a43c <.prname_next>:
    a43c:	00050583          	lb	a1,0(a0)
    a440:	00058a63          	beqz	a1,a454 <.prname_done>
    a444:	00b62023          	sw	a1,0(a2) # 10000000 <end+0xfff3903>
    a448:	00150513          	addi	a0,a0,1
    a44c:	ff1ff06f          	j	a43c <.prname_next>

0000a450 <.test_name>:
    a450:	00627573          	.word	0x00627573

0000a454 <.prname_done>:
    a454:	00000613          	li	a2,0
    a458:	10000637          	lui	a2,0x10000
    a45c:	02e00593          	li	a1,46
    a460:	00b62023          	sw	a1,0(a2) # 10000000 <end+0xfff3903>
    a464:	00b62023          	sw	a1,0(a2)

0000a468 <test_2>:
    a468:	00000093          	li	ra,0
    a46c:	00000113          	li	sp,0
    a470:	402081b3          	sub	gp,ra,sp
    a474:	00000e93          	li	t4,0
    a478:	00200e13          	li	t3,2
    a47c:	4bd19663          	bne	gp,t4,a928 <fail>

0000a480 <test_3>:
    a480:	00100093          	li	ra,1
    a484:	00100113          	li	sp,1
    a488:	402081b3          	sub	gp,ra,sp
    a48c:	00000e93          	li	t4,0
    a490:	00300e13          	li	t3,3
    a494:	49d19a63          	bne	gp,t4,a928 <fail>

0000a498 <test_4>:
    a498:	00300093          	li	ra,3
    a49c:	00700113          	li	sp,7
    a4a0:	402081b3          	sub	gp,ra,sp
    a4a4:	ffc00e93          	li	t4,-4
    a4a8:	00400e13          	li	t3,4
    a4ac:	47d19e63          	bne	gp,t4,a928 <fail>

0000a4b0 <test_5>:
    a4b0:	00000093          	li	ra,0
    a4b4:	ffff8137          	lui	sp,0xffff8
    a4b8:	402081b3          	sub	gp,ra,sp
    a4bc:	00008eb7          	lui	t4,0x8
    a4c0:	00500e13          	li	t3,5
    a4c4:	47d19263          	bne	gp,t4,a928 <fail>

0000a4c8 <test_6>:
    a4c8:	800000b7          	lui	ra,0x80000
    a4cc:	00000113          	li	sp,0
    a4d0:	402081b3          	sub	gp,ra,sp
    a4d4:	80000eb7          	lui	t4,0x80000
    a4d8:	00600e13          	li	t3,6
    a4dc:	45d19663          	bne	gp,t4,a928 <fail>

0000a4e0 <test_7>:
    a4e0:	800000b7          	lui	ra,0x80000
    a4e4:	ffff8137          	lui	sp,0xffff8
    a4e8:	402081b3          	sub	gp,ra,sp
    a4ec:	80008eb7          	lui	t4,0x80008
    a4f0:	00700e13          	li	t3,7
    a4f4:	43d19a63          	bne	gp,t4,a928 <fail>

0000a4f8 <test_8>:
    a4f8:	00000093          	li	ra,0
    a4fc:	00008137          	lui	sp,0x8
    a500:	fff10113          	addi	sp,sp,-1 # 7fff <test_12+0x7>
    a504:	402081b3          	sub	gp,ra,sp
    a508:	ffff8eb7          	lui	t4,0xffff8
    a50c:	001e8e93          	addi	t4,t4,1 # ffff8001 <end+0xfffeb904>
    a510:	00800e13          	li	t3,8
    a514:	41d19a63          	bne	gp,t4,a928 <fail>

0000a518 <test_9>:
    a518:	800000b7          	lui	ra,0x80000
    a51c:	fff08093          	addi	ra,ra,-1 # 7fffffff <end+0x7fff3902>
    a520:	00000113          	li	sp,0
    a524:	402081b3          	sub	gp,ra,sp
    a528:	80000eb7          	lui	t4,0x80000
    a52c:	fffe8e93          	addi	t4,t4,-1 # 7fffffff <end+0x7fff3902>
    a530:	00900e13          	li	t3,9
    a534:	3fd19a63          	bne	gp,t4,a928 <fail>

0000a538 <test_10>:
    a538:	800000b7          	lui	ra,0x80000
    a53c:	fff08093          	addi	ra,ra,-1 # 7fffffff <end+0x7fff3902>
    a540:	00008137          	lui	sp,0x8
    a544:	fff10113          	addi	sp,sp,-1 # 7fff <test_12+0x7>
    a548:	402081b3          	sub	gp,ra,sp
    a54c:	7fff8eb7          	lui	t4,0x7fff8
    a550:	00a00e13          	li	t3,10
    a554:	3dd19a63          	bne	gp,t4,a928 <fail>

0000a558 <test_11>:
    a558:	800000b7          	lui	ra,0x80000
    a55c:	00008137          	lui	sp,0x8
    a560:	fff10113          	addi	sp,sp,-1 # 7fff <test_12+0x7>
    a564:	402081b3          	sub	gp,ra,sp
    a568:	7fff8eb7          	lui	t4,0x7fff8
    a56c:	001e8e93          	addi	t4,t4,1 # 7fff8001 <end+0x7ffeb904>
    a570:	00b00e13          	li	t3,11
    a574:	3bd19a63          	bne	gp,t4,a928 <fail>

0000a578 <test_12>:
    a578:	800000b7          	lui	ra,0x80000
    a57c:	fff08093          	addi	ra,ra,-1 # 7fffffff <end+0x7fff3902>
    a580:	ffff8137          	lui	sp,0xffff8
    a584:	402081b3          	sub	gp,ra,sp
    a588:	80008eb7          	lui	t4,0x80008
    a58c:	fffe8e93          	addi	t4,t4,-1 # 80007fff <end+0x7fffb902>
    a590:	00c00e13          	li	t3,12
    a594:	39d19a63          	bne	gp,t4,a928 <fail>

0000a598 <test_13>:
    a598:	00000093          	li	ra,0
    a59c:	fff00113          	li	sp,-1
    a5a0:	402081b3          	sub	gp,ra,sp
    a5a4:	00100e93          	li	t4,1
    a5a8:	00d00e13          	li	t3,13
    a5ac:	37d19e63          	bne	gp,t4,a928 <fail>

0000a5b0 <test_14>:
    a5b0:	fff00093          	li	ra,-1
    a5b4:	00100113          	li	sp,1
    a5b8:	402081b3          	sub	gp,ra,sp
    a5bc:	ffe00e93          	li	t4,-2
    a5c0:	00e00e13          	li	t3,14
    a5c4:	37d19263          	bne	gp,t4,a928 <fail>

0000a5c8 <test_15>:
    a5c8:	fff00093          	li	ra,-1
    a5cc:	fff00113          	li	sp,-1
    a5d0:	402081b3          	sub	gp,ra,sp
    a5d4:	00000e93          	li	t4,0
    a5d8:	00f00e13          	li	t3,15
    a5dc:	35d19663          	bne	gp,t4,a928 <fail>

0000a5e0 <test_16>:
    a5e0:	00d00093          	li	ra,13
    a5e4:	00b00113          	li	sp,11
    a5e8:	402080b3          	sub	ra,ra,sp
    a5ec:	00200e93          	li	t4,2
    a5f0:	01000e13          	li	t3,16
    a5f4:	33d09a63          	bne	ra,t4,a928 <fail>

0000a5f8 <test_17>:
    a5f8:	00e00093          	li	ra,14
    a5fc:	00b00113          	li	sp,11
    a600:	40208133          	sub	sp,ra,sp
    a604:	00300e93          	li	t4,3
    a608:	01100e13          	li	t3,17
    a60c:	31d11e63          	bne	sp,t4,a928 <fail>

0000a610 <test_18>:
    a610:	00d00093          	li	ra,13
    a614:	401080b3          	sub	ra,ra,ra
    a618:	00000e93          	li	t4,0
    a61c:	01200e13          	li	t3,18
    a620:	31d09463          	bne	ra,t4,a928 <fail>

0000a624 <test_19>:
    a624:	00000213          	li	tp,0
    a628:	00d00093          	li	ra,13
    a62c:	00b00113          	li	sp,11
    a630:	402081b3          	sub	gp,ra,sp
    a634:	00018313          	mv	t1,gp
    a638:	00120213          	addi	tp,tp,1 # 1 <reset_vec+0x1>
    a63c:	00200293          	li	t0,2
    a640:	fe5214e3          	bne	tp,t0,a628 <test_19+0x4>
    a644:	00200e93          	li	t4,2
    a648:	01300e13          	li	t3,19
    a64c:	2dd31e63          	bne	t1,t4,a928 <fail>

0000a650 <test_20>:
    a650:	00000213          	li	tp,0
    a654:	00e00093          	li	ra,14
    a658:	00b00113          	li	sp,11
    a65c:	402081b3          	sub	gp,ra,sp
    a660:	00000013          	nop
    a664:	00018313          	mv	t1,gp
    a668:	00120213          	addi	tp,tp,1 # 1 <reset_vec+0x1>
    a66c:	00200293          	li	t0,2
    a670:	fe5212e3          	bne	tp,t0,a654 <test_20+0x4>
    a674:	00300e93          	li	t4,3
    a678:	01400e13          	li	t3,20
    a67c:	2bd31663          	bne	t1,t4,a928 <fail>

0000a680 <test_21>:
    a680:	00000213          	li	tp,0
    a684:	00f00093          	li	ra,15
    a688:	00b00113          	li	sp,11
    a68c:	402081b3          	sub	gp,ra,sp
    a690:	00000013          	nop
    a694:	00000013          	nop
    a698:	00018313          	mv	t1,gp
    a69c:	00120213          	addi	tp,tp,1 # 1 <reset_vec+0x1>
    a6a0:	00200293          	li	t0,2
    a6a4:	fe5210e3          	bne	tp,t0,a684 <test_21+0x4>
    a6a8:	00400e93          	li	t4,4
    a6ac:	01500e13          	li	t3,21
    a6b0:	27d31c63          	bne	t1,t4,a928 <fail>

0000a6b4 <test_22>:
    a6b4:	00000213          	li	tp,0
    a6b8:	00d00093          	li	ra,13
    a6bc:	00b00113          	li	sp,11
    a6c0:	402081b3          	sub	gp,ra,sp
    a6c4:	00120213          	addi	tp,tp,1 # 1 <reset_vec+0x1>
    a6c8:	00200293          	li	t0,2
    a6cc:	fe5216e3          	bne	tp,t0,a6b8 <test_22+0x4>
    a6d0:	00200e93          	li	t4,2
    a6d4:	01600e13          	li	t3,22
    a6d8:	25d19863          	bne	gp,t4,a928 <fail>

0000a6dc <test_23>:
    a6dc:	00000213          	li	tp,0
    a6e0:	00e00093          	li	ra,14
    a6e4:	00b00113          	li	sp,11
    a6e8:	00000013          	nop
    a6ec:	402081b3          	sub	gp,ra,sp
    a6f0:	00120213          	addi	tp,tp,1 # 1 <reset_vec+0x1>
    a6f4:	00200293          	li	t0,2
    a6f8:	fe5214e3          	bne	tp,t0,a6e0 <test_23+0x4>
    a6fc:	00300e93          	li	t4,3
    a700:	01700e13          	li	t3,23
    a704:	23d19263          	bne	gp,t4,a928 <fail>

0000a708 <test_24>:
    a708:	00000213          	li	tp,0
    a70c:	00f00093          	li	ra,15
    a710:	00b00113          	li	sp,11
    a714:	00000013          	nop
    a718:	00000013          	nop
    a71c:	402081b3          	sub	gp,ra,sp
    a720:	00120213          	addi	tp,tp,1 # 1 <reset_vec+0x1>
    a724:	00200293          	li	t0,2
    a728:	fe5212e3          	bne	tp,t0,a70c <test_24+0x4>
    a72c:	00400e93          	li	t4,4
    a730:	01800e13          	li	t3,24
    a734:	1fd19a63          	bne	gp,t4,a928 <fail>

0000a738 <test_25>:
    a738:	00000213          	li	tp,0
    a73c:	00d00093          	li	ra,13
    a740:	00000013          	nop
    a744:	00b00113          	li	sp,11
    a748:	402081b3          	sub	gp,ra,sp
    a74c:	00120213          	addi	tp,tp,1 # 1 <reset_vec+0x1>
    a750:	00200293          	li	t0,2
    a754:	fe5214e3          	bne	tp,t0,a73c <test_25+0x4>
    a758:	00200e93          	li	t4,2
    a75c:	01900e13          	li	t3,25
    a760:	1dd19463          	bne	gp,t4,a928 <fail>

0000a764 <test_26>:
    a764:	00000213          	li	tp,0
    a768:	00e00093          	li	ra,14
    a76c:	00000013          	nop
    a770:	00b00113          	li	sp,11
    a774:	00000013          	nop
    a778:	402081b3          	sub	gp,ra,sp
    a77c:	00120213          	addi	tp,tp,1 # 1 <reset_vec+0x1>
    a780:	00200293          	li	t0,2
    a784:	fe5212e3          	bne	tp,t0,a768 <test_26+0x4>
    a788:	00300e93          	li	t4,3
    a78c:	01a00e13          	li	t3,26
    a790:	19d19c63          	bne	gp,t4,a928 <fail>

0000a794 <test_27>:
    a794:	00000213          	li	tp,0
    a798:	00f00093          	li	ra,15
    a79c:	00000013          	nop
    a7a0:	00000013          	nop
    a7a4:	00b00113          	li	sp,11
    a7a8:	402081b3          	sub	gp,ra,sp
    a7ac:	00120213          	addi	tp,tp,1 # 1 <reset_vec+0x1>
    a7b0:	00200293          	li	t0,2
    a7b4:	fe5212e3          	bne	tp,t0,a798 <test_27+0x4>
    a7b8:	00400e93          	li	t4,4
    a7bc:	01b00e13          	li	t3,27
    a7c0:	17d19463          	bne	gp,t4,a928 <fail>

0000a7c4 <test_28>:
    a7c4:	00000213          	li	tp,0
    a7c8:	00b00113          	li	sp,11
    a7cc:	00d00093          	li	ra,13
    a7d0:	402081b3          	sub	gp,ra,sp
    a7d4:	00120213          	addi	tp,tp,1 # 1 <reset_vec+0x1>
    a7d8:	00200293          	li	t0,2
    a7dc:	fe5216e3          	bne	tp,t0,a7c8 <test_28+0x4>
    a7e0:	00200e93          	li	t4,2
    a7e4:	01c00e13          	li	t3,28
    a7e8:	15d19063          	bne	gp,t4,a928 <fail>

0000a7ec <test_29>:
    a7ec:	00000213          	li	tp,0
    a7f0:	00b00113          	li	sp,11
    a7f4:	00e00093          	li	ra,14
    a7f8:	00000013          	nop
    a7fc:	402081b3          	sub	gp,ra,sp
    a800:	00120213          	addi	tp,tp,1 # 1 <reset_vec+0x1>
    a804:	00200293          	li	t0,2
    a808:	fe5214e3          	bne	tp,t0,a7f0 <test_29+0x4>
    a80c:	00300e93          	li	t4,3
    a810:	01d00e13          	li	t3,29
    a814:	11d19a63          	bne	gp,t4,a928 <fail>

0000a818 <test_30>:
    a818:	00000213          	li	tp,0
    a81c:	00b00113          	li	sp,11
    a820:	00f00093          	li	ra,15
    a824:	00000013          	nop
    a828:	00000013          	nop
    a82c:	402081b3          	sub	gp,ra,sp
    a830:	00120213          	addi	tp,tp,1 # 1 <reset_vec+0x1>
    a834:	00200293          	li	t0,2
    a838:	fe5212e3          	bne	tp,t0,a81c <test_30+0x4>
    a83c:	00400e93          	li	t4,4
    a840:	01e00e13          	li	t3,30
    a844:	0fd19263          	bne	gp,t4,a928 <fail>

0000a848 <test_31>:
    a848:	00000213          	li	tp,0
    a84c:	00b00113          	li	sp,11
    a850:	00000013          	nop
    a854:	00d00093          	li	ra,13
    a858:	402081b3          	sub	gp,ra,sp
    a85c:	00120213          	addi	tp,tp,1 # 1 <reset_vec+0x1>
    a860:	00200293          	li	t0,2
    a864:	fe5214e3          	bne	tp,t0,a84c <test_31+0x4>
    a868:	00200e93          	li	t4,2
    a86c:	01f00e13          	li	t3,31
    a870:	0bd19c63          	bne	gp,t4,a928 <fail>

0000a874 <test_32>:
    a874:	00000213          	li	tp,0
    a878:	00b00113          	li	sp,11
    a87c:	00000013          	nop
    a880:	00e00093          	li	ra,14
    a884:	00000013          	nop
    a888:	402081b3          	sub	gp,ra,sp
    a88c:	00120213          	addi	tp,tp,1 # 1 <reset_vec+0x1>
    a890:	00200293          	li	t0,2
    a894:	fe5212e3          	bne	tp,t0,a878 <test_32+0x4>
    a898:	00300e93          	li	t4,3
    a89c:	02000e13          	li	t3,32
    a8a0:	09d19463          	bne	gp,t4,a928 <fail>

0000a8a4 <test_33>:
    a8a4:	00000213          	li	tp,0
    a8a8:	00b00113          	li	sp,11
    a8ac:	00000013          	nop
    a8b0:	00000013          	nop
    a8b4:	00f00093          	li	ra,15
    a8b8:	402081b3          	sub	gp,ra,sp
    a8bc:	00120213          	addi	tp,tp,1 # 1 <reset_vec+0x1>
    a8c0:	00200293          	li	t0,2
    a8c4:	fe5212e3          	bne	tp,t0,a8a8 <test_33+0x4>
    a8c8:	00400e93          	li	t4,4
    a8cc:	02100e13          	li	t3,33
    a8d0:	05d19c63          	bne	gp,t4,a928 <fail>

0000a8d4 <test_34>:
    a8d4:	ff100093          	li	ra,-15
    a8d8:	40100133          	neg	sp,ra
    a8dc:	00f00e93          	li	t4,15
    a8e0:	02200e13          	li	t3,34
    a8e4:	05d11263          	bne	sp,t4,a928 <fail>

0000a8e8 <test_35>:
    a8e8:	02000093          	li	ra,32
    a8ec:	40008133          	sub	sp,ra,zero
    a8f0:	02000e93          	li	t4,32
    a8f4:	02300e13          	li	t3,35
    a8f8:	03d11863          	bne	sp,t4,a928 <fail>

0000a8fc <test_36>:
    a8fc:	400000b3          	neg	ra,zero
    a900:	00000e93          	li	t4,0
    a904:	02400e13          	li	t3,36
    a908:	03d09063          	bne	ra,t4,a928 <fail>

0000a90c <test_37>:
    a90c:	01000093          	li	ra,16
    a910:	01e00113          	li	sp,30
    a914:	40208033          	sub	zero,ra,sp
    a918:	00000e93          	li	t4,0
    a91c:	02500e13          	li	t3,37
    a920:	01d01463          	bne	zero,t4,a928 <fail>
    a924:	05c01863          	bne	zero,t3,a974 <pass>

0000a928 <fail>:
    a928:	00000513          	li	a0,0
    a92c:	10000537          	lui	a0,0x10000
    a930:	04500593          	li	a1,69
    a934:	05200613          	li	a2,82
    a938:	04f00693          	li	a3,79
    a93c:	00b52023          	sw	a1,0(a0) # 10000000 <end+0xfff3903>
    a940:	00c52023          	sw	a2,0(a0)
    a944:	00c52023          	sw	a2,0(a0)
    a948:	00d52023          	sw	a3,0(a0)
    a94c:	00c52023          	sw	a2,0(a0)
    a950:	030e0593          	addi	a1,t3,48
    a954:	02000613          	li	a2,32
    a958:	03a00693          	li	a3,58
    a95c:	00d52023          	sw	a3,0(a0)
    a960:	00c52023          	sw	a2,0(a0)
    a964:	00b52023          	sw	a1,0(a0)
    a968:	00a00713          	li	a4,10
    a96c:	00e52023          	sw	a4,0(a0)
    a970:	885f506f          	j	1f4 <sub_ret>

0000a974 <pass>:
    a974:	00000513          	li	a0,0
    a978:	10000537          	lui	a0,0x10000
    a97c:	04f00593          	li	a1,79
    a980:	04b00613          	li	a2,75
    a984:	00a00693          	li	a3,10
    a988:	00b52023          	sw	a1,0(a0) # 10000000 <end+0xfff3903>
    a98c:	00c52023          	sw	a2,0(a0)
    a990:	00d52023          	sw	a3,0(a0)
    a994:	861f506f          	j	1f4 <sub_ret>

0000a998 <sw>:
    a998:	0000b537          	lui	a0,0xb
    a99c:	9bc50513          	addi	a0,a0,-1604 # a9bc <.test_name>
    a9a0:	00000613          	li	a2,0
    a9a4:	10000637          	lui	a2,0x10000

0000a9a8 <.prname_next>:
    a9a8:	00050583          	lb	a1,0(a0)
    a9ac:	00058a63          	beqz	a1,a9c0 <.prname_done>
    a9b0:	00b62023          	sw	a1,0(a2) # 10000000 <end+0xfff3903>
    a9b4:	00150513          	addi	a0,a0,1
    a9b8:	ff1ff06f          	j	a9a8 <.prname_next>

0000a9bc <.test_name>:
    a9bc:	00007773          	.word	0x00007773

0000a9c0 <.prname_done>:
    a9c0:	00000613          	li	a2,0
    a9c4:	10000637          	lui	a2,0x10000
    a9c8:	02e00593          	li	a1,46
    a9cc:	00b62023          	sw	a1,0(a2) # 10000000 <end+0xfff3903>
    a9d0:	00b62023          	sw	a1,0(a2)

0000a9d4 <test_2>:
    a9d4:	00002097          	auipc	ra,0x2
    a9d8:	c6808093          	addi	ra,ra,-920 # c63c <tdat>
    a9dc:	00aa0137          	lui	sp,0xaa0
    a9e0:	0aa10113          	addi	sp,sp,170 # aa00aa <end+0xa939ad>
    a9e4:	0020a023          	sw	sp,0(ra)
    a9e8:	0000a183          	lw	gp,0(ra)
    a9ec:	00aa0eb7          	lui	t4,0xaa0
    a9f0:	0aae8e93          	addi	t4,t4,170 # aa00aa <end+0xa939ad>
    a9f4:	00200e13          	li	t3,2
    a9f8:	47d19063          	bne	gp,t4,ae58 <fail>

0000a9fc <test_3>:
    a9fc:	00002097          	auipc	ra,0x2
    aa00:	c4008093          	addi	ra,ra,-960 # c63c <tdat>
    aa04:	aa00b137          	lui	sp,0xaa00b
    aa08:	a0010113          	addi	sp,sp,-1536 # aa00aa00 <end+0xa9ffe303>
    aa0c:	0020a223          	sw	sp,4(ra)
    aa10:	0040a183          	lw	gp,4(ra)
    aa14:	aa00beb7          	lui	t4,0xaa00b
    aa18:	a00e8e93          	addi	t4,t4,-1536 # aa00aa00 <end+0xa9ffe303>
    aa1c:	00300e13          	li	t3,3
    aa20:	43d19c63          	bne	gp,t4,ae58 <fail>

0000aa24 <test_4>:
    aa24:	00002097          	auipc	ra,0x2
    aa28:	c1808093          	addi	ra,ra,-1000 # c63c <tdat>
    aa2c:	0aa01137          	lui	sp,0xaa01
    aa30:	aa010113          	addi	sp,sp,-1376 # aa00aa0 <end+0xa9f43a3>
    aa34:	0020a423          	sw	sp,8(ra)
    aa38:	0080a183          	lw	gp,8(ra)
    aa3c:	0aa01eb7          	lui	t4,0xaa01
    aa40:	aa0e8e93          	addi	t4,t4,-1376 # aa00aa0 <end+0xa9f43a3>
    aa44:	00400e13          	li	t3,4
    aa48:	41d19863          	bne	gp,t4,ae58 <fail>

0000aa4c <test_5>:
    aa4c:	00002097          	auipc	ra,0x2
    aa50:	bf008093          	addi	ra,ra,-1040 # c63c <tdat>
    aa54:	a00aa137          	lui	sp,0xa00aa
    aa58:	00a10113          	addi	sp,sp,10 # a00aa00a <end+0xa009d90d>
    aa5c:	0020a623          	sw	sp,12(ra)
    aa60:	00c0a183          	lw	gp,12(ra)
    aa64:	a00aaeb7          	lui	t4,0xa00aa
    aa68:	00ae8e93          	addi	t4,t4,10 # a00aa00a <end+0xa009d90d>
    aa6c:	00500e13          	li	t3,5
    aa70:	3fd19463          	bne	gp,t4,ae58 <fail>

0000aa74 <test_6>:
    aa74:	00002097          	auipc	ra,0x2
    aa78:	be408093          	addi	ra,ra,-1052 # c658 <tdat8>
    aa7c:	00aa0137          	lui	sp,0xaa0
    aa80:	0aa10113          	addi	sp,sp,170 # aa00aa <end+0xa939ad>
    aa84:	fe20aa23          	sw	sp,-12(ra)
    aa88:	ff40a183          	lw	gp,-12(ra)
    aa8c:	00aa0eb7          	lui	t4,0xaa0
    aa90:	0aae8e93          	addi	t4,t4,170 # aa00aa <end+0xa939ad>
    aa94:	00600e13          	li	t3,6
    aa98:	3dd19063          	bne	gp,t4,ae58 <fail>

0000aa9c <test_7>:
    aa9c:	00002097          	auipc	ra,0x2
    aaa0:	bbc08093          	addi	ra,ra,-1092 # c658 <tdat8>
    aaa4:	aa00b137          	lui	sp,0xaa00b
    aaa8:	a0010113          	addi	sp,sp,-1536 # aa00aa00 <end+0xa9ffe303>
    aaac:	fe20ac23          	sw	sp,-8(ra)
    aab0:	ff80a183          	lw	gp,-8(ra)
    aab4:	aa00beb7          	lui	t4,0xaa00b
    aab8:	a00e8e93          	addi	t4,t4,-1536 # aa00aa00 <end+0xa9ffe303>
    aabc:	00700e13          	li	t3,7
    aac0:	39d19c63          	bne	gp,t4,ae58 <fail>

0000aac4 <test_8>:
    aac4:	00002097          	auipc	ra,0x2
    aac8:	b9408093          	addi	ra,ra,-1132 # c658 <tdat8>
    aacc:	0aa01137          	lui	sp,0xaa01
    aad0:	aa010113          	addi	sp,sp,-1376 # aa00aa0 <end+0xa9f43a3>
    aad4:	fe20ae23          	sw	sp,-4(ra)
    aad8:	ffc0a183          	lw	gp,-4(ra)
    aadc:	0aa01eb7          	lui	t4,0xaa01
    aae0:	aa0e8e93          	addi	t4,t4,-1376 # aa00aa0 <end+0xa9f43a3>
    aae4:	00800e13          	li	t3,8
    aae8:	37d19863          	bne	gp,t4,ae58 <fail>

0000aaec <test_9>:
    aaec:	00002097          	auipc	ra,0x2
    aaf0:	b6c08093          	addi	ra,ra,-1172 # c658 <tdat8>
    aaf4:	a00aa137          	lui	sp,0xa00aa
    aaf8:	00a10113          	addi	sp,sp,10 # a00aa00a <end+0xa009d90d>
    aafc:	0020a023          	sw	sp,0(ra)
    ab00:	0000a183          	lw	gp,0(ra)
    ab04:	a00aaeb7          	lui	t4,0xa00aa
    ab08:	00ae8e93          	addi	t4,t4,10 # a00aa00a <end+0xa009d90d>
    ab0c:	00900e13          	li	t3,9
    ab10:	35d19463          	bne	gp,t4,ae58 <fail>

0000ab14 <test_10>:
    ab14:	00002097          	auipc	ra,0x2
    ab18:	b4808093          	addi	ra,ra,-1208 # c65c <tdat9>
    ab1c:	12345137          	lui	sp,0x12345
    ab20:	67810113          	addi	sp,sp,1656 # 12345678 <end+0x12338f7b>
    ab24:	fe008213          	addi	tp,ra,-32
    ab28:	02222023          	sw	sp,32(tp) # 20 <start+0x1c>
    ab2c:	0000a183          	lw	gp,0(ra)
    ab30:	12345eb7          	lui	t4,0x12345
    ab34:	678e8e93          	addi	t4,t4,1656 # 12345678 <end+0x12338f7b>
    ab38:	00a00e13          	li	t3,10
    ab3c:	31d19e63          	bne	gp,t4,ae58 <fail>

0000ab40 <test_11>:
    ab40:	00002097          	auipc	ra,0x2
    ab44:	b1c08093          	addi	ra,ra,-1252 # c65c <tdat9>
    ab48:	58213137          	lui	sp,0x58213
    ab4c:	09810113          	addi	sp,sp,152 # 58213098 <end+0x5820699b>
    ab50:	ffd08093          	addi	ra,ra,-3
    ab54:	0020a3a3          	sw	sp,7(ra)
    ab58:	00002217          	auipc	tp,0x2
    ab5c:	b0820213          	addi	tp,tp,-1272 # c660 <tdat10>
    ab60:	00022183          	lw	gp,0(tp) # 0 <reset_vec>
    ab64:	58213eb7          	lui	t4,0x58213
    ab68:	098e8e93          	addi	t4,t4,152 # 58213098 <end+0x5820699b>
    ab6c:	00b00e13          	li	t3,11
    ab70:	2fd19463          	bne	gp,t4,ae58 <fail>

0000ab74 <test_12>:
    ab74:	00c00e13          	li	t3,12
    ab78:	00000213          	li	tp,0
    ab7c:	aabbd0b7          	lui	ra,0xaabbd
    ab80:	cdd08093          	addi	ra,ra,-803 # aabbccdd <end+0xaabb05e0>
    ab84:	00002117          	auipc	sp,0x2
    ab88:	ab810113          	addi	sp,sp,-1352 # c63c <tdat>
    ab8c:	00112023          	sw	ra,0(sp)
    ab90:	00012183          	lw	gp,0(sp)
    ab94:	aabbdeb7          	lui	t4,0xaabbd
    ab98:	cdde8e93          	addi	t4,t4,-803 # aabbccdd <end+0xaabb05e0>
    ab9c:	2bd19e63          	bne	gp,t4,ae58 <fail>
    aba0:	00120213          	addi	tp,tp,1 # 1 <reset_vec+0x1>
    aba4:	00200293          	li	t0,2
    aba8:	fc521ae3          	bne	tp,t0,ab7c <test_12+0x8>

0000abac <test_13>:
    abac:	00d00e13          	li	t3,13
    abb0:	00000213          	li	tp,0
    abb4:	daabc0b7          	lui	ra,0xdaabc
    abb8:	ccd08093          	addi	ra,ra,-819 # daabbccd <end+0xdaaaf5d0>
    abbc:	00002117          	auipc	sp,0x2
    abc0:	a8010113          	addi	sp,sp,-1408 # c63c <tdat>
    abc4:	00000013          	nop
    abc8:	00112223          	sw	ra,4(sp)
    abcc:	00412183          	lw	gp,4(sp)
    abd0:	daabceb7          	lui	t4,0xdaabc
    abd4:	ccde8e93          	addi	t4,t4,-819 # daabbccd <end+0xdaaaf5d0>
    abd8:	29d19063          	bne	gp,t4,ae58 <fail>
    abdc:	00120213          	addi	tp,tp,1 # 1 <reset_vec+0x1>
    abe0:	00200293          	li	t0,2
    abe4:	fc5218e3          	bne	tp,t0,abb4 <test_13+0x8>

0000abe8 <test_14>:
    abe8:	00e00e13          	li	t3,14
    abec:	00000213          	li	tp,0
    abf0:	ddaac0b7          	lui	ra,0xddaac
    abf4:	bcc08093          	addi	ra,ra,-1076 # ddaabbcc <end+0xdda9f4cf>
    abf8:	00002117          	auipc	sp,0x2
    abfc:	a4410113          	addi	sp,sp,-1468 # c63c <tdat>
    ac00:	00000013          	nop
    ac04:	00000013          	nop
    ac08:	00112423          	sw	ra,8(sp)
    ac0c:	00812183          	lw	gp,8(sp)
    ac10:	ddaaceb7          	lui	t4,0xddaac
    ac14:	bcce8e93          	addi	t4,t4,-1076 # ddaabbcc <end+0xdda9f4cf>
    ac18:	25d19063          	bne	gp,t4,ae58 <fail>
    ac1c:	00120213          	addi	tp,tp,1 # 1 <reset_vec+0x1>
    ac20:	00200293          	li	t0,2
    ac24:	fc5216e3          	bne	tp,t0,abf0 <test_14+0x8>

0000ac28 <test_15>:
    ac28:	00f00e13          	li	t3,15
    ac2c:	00000213          	li	tp,0
    ac30:	cddab0b7          	lui	ra,0xcddab
    ac34:	bbc08093          	addi	ra,ra,-1092 # cddaabbc <end+0xcdd9e4bf>
    ac38:	00000013          	nop
    ac3c:	00002117          	auipc	sp,0x2
    ac40:	a0010113          	addi	sp,sp,-1536 # c63c <tdat>
    ac44:	00112623          	sw	ra,12(sp)
    ac48:	00c12183          	lw	gp,12(sp)
    ac4c:	cddabeb7          	lui	t4,0xcddab
    ac50:	bbce8e93          	addi	t4,t4,-1092 # cddaabbc <end+0xcdd9e4bf>
    ac54:	21d19263          	bne	gp,t4,ae58 <fail>
    ac58:	00120213          	addi	tp,tp,1 # 1 <reset_vec+0x1>
    ac5c:	00200293          	li	t0,2
    ac60:	fc5218e3          	bne	tp,t0,ac30 <test_15+0x8>

0000ac64 <test_16>:
    ac64:	01000e13          	li	t3,16
    ac68:	00000213          	li	tp,0
    ac6c:	ccddb0b7          	lui	ra,0xccddb
    ac70:	abb08093          	addi	ra,ra,-1349 # ccddaabb <end+0xccdce3be>
    ac74:	00000013          	nop
    ac78:	00002117          	auipc	sp,0x2
    ac7c:	9c410113          	addi	sp,sp,-1596 # c63c <tdat>
    ac80:	00000013          	nop
    ac84:	00112823          	sw	ra,16(sp)
    ac88:	01012183          	lw	gp,16(sp)
    ac8c:	ccddbeb7          	lui	t4,0xccddb
    ac90:	abbe8e93          	addi	t4,t4,-1349 # ccddaabb <end+0xccdce3be>
    ac94:	1dd19263          	bne	gp,t4,ae58 <fail>
    ac98:	00120213          	addi	tp,tp,1 # 1 <reset_vec+0x1>
    ac9c:	00200293          	li	t0,2
    aca0:	fc5216e3          	bne	tp,t0,ac6c <test_16+0x8>

0000aca4 <test_17>:
    aca4:	01100e13          	li	t3,17
    aca8:	00000213          	li	tp,0
    acac:	bccde0b7          	lui	ra,0xbccde
    acb0:	aab08093          	addi	ra,ra,-1365 # bccddaab <end+0xbccd13ae>
    acb4:	00000013          	nop
    acb8:	00000013          	nop
    acbc:	00002117          	auipc	sp,0x2
    acc0:	98010113          	addi	sp,sp,-1664 # c63c <tdat>
    acc4:	00112a23          	sw	ra,20(sp)
    acc8:	01412183          	lw	gp,20(sp)
    accc:	bccdeeb7          	lui	t4,0xbccde
    acd0:	aabe8e93          	addi	t4,t4,-1365 # bccddaab <end+0xbccd13ae>
    acd4:	19d19263          	bne	gp,t4,ae58 <fail>
    acd8:	00120213          	addi	tp,tp,1 # 1 <reset_vec+0x1>
    acdc:	00200293          	li	t0,2
    ace0:	fc5216e3          	bne	tp,t0,acac <test_17+0x8>

0000ace4 <test_18>:
    ace4:	01200e13          	li	t3,18
    ace8:	00000213          	li	tp,0
    acec:	00002117          	auipc	sp,0x2
    acf0:	95010113          	addi	sp,sp,-1712 # c63c <tdat>
    acf4:	001120b7          	lui	ra,0x112
    acf8:	23308093          	addi	ra,ra,563 # 112233 <end+0x105b36>
    acfc:	00112023          	sw	ra,0(sp)
    ad00:	00012183          	lw	gp,0(sp)
    ad04:	00112eb7          	lui	t4,0x112
    ad08:	233e8e93          	addi	t4,t4,563 # 112233 <end+0x105b36>
    ad0c:	15d19663          	bne	gp,t4,ae58 <fail>
    ad10:	00120213          	addi	tp,tp,1 # 1 <reset_vec+0x1>
    ad14:	00200293          	li	t0,2
    ad18:	fc521ae3          	bne	tp,t0,acec <test_18+0x8>

0000ad1c <test_19>:
    ad1c:	01300e13          	li	t3,19
    ad20:	00000213          	li	tp,0
    ad24:	00002117          	auipc	sp,0x2
    ad28:	91810113          	addi	sp,sp,-1768 # c63c <tdat>
    ad2c:	300110b7          	lui	ra,0x30011
    ad30:	22308093          	addi	ra,ra,547 # 30011223 <end+0x30004b26>
    ad34:	00000013          	nop
    ad38:	00112223          	sw	ra,4(sp)
    ad3c:	00412183          	lw	gp,4(sp)
    ad40:	30011eb7          	lui	t4,0x30011
    ad44:	223e8e93          	addi	t4,t4,547 # 30011223 <end+0x30004b26>
    ad48:	11d19863          	bne	gp,t4,ae58 <fail>
    ad4c:	00120213          	addi	tp,tp,1 # 1 <reset_vec+0x1>
    ad50:	00200293          	li	t0,2
    ad54:	fc5218e3          	bne	tp,t0,ad24 <test_19+0x8>

0000ad58 <test_20>:
    ad58:	01400e13          	li	t3,20
    ad5c:	00000213          	li	tp,0
    ad60:	00002117          	auipc	sp,0x2
    ad64:	8dc10113          	addi	sp,sp,-1828 # c63c <tdat>
    ad68:	330010b7          	lui	ra,0x33001
    ad6c:	12208093          	addi	ra,ra,290 # 33001122 <end+0x32ff4a25>
    ad70:	00000013          	nop
    ad74:	00000013          	nop
    ad78:	00112423          	sw	ra,8(sp)
    ad7c:	00812183          	lw	gp,8(sp)
    ad80:	33001eb7          	lui	t4,0x33001
    ad84:	122e8e93          	addi	t4,t4,290 # 33001122 <end+0x32ff4a25>
    ad88:	0dd19863          	bne	gp,t4,ae58 <fail>
    ad8c:	00120213          	addi	tp,tp,1 # 1 <reset_vec+0x1>
    ad90:	00200293          	li	t0,2
    ad94:	fc5216e3          	bne	tp,t0,ad60 <test_20+0x8>

0000ad98 <test_21>:
    ad98:	01500e13          	li	t3,21
    ad9c:	00000213          	li	tp,0
    ada0:	00002117          	auipc	sp,0x2
    ada4:	89c10113          	addi	sp,sp,-1892 # c63c <tdat>
    ada8:	00000013          	nop
    adac:	233000b7          	lui	ra,0x23300
    adb0:	11208093          	addi	ra,ra,274 # 23300112 <end+0x232f3a15>
    adb4:	00112623          	sw	ra,12(sp)
    adb8:	00c12183          	lw	gp,12(sp)
    adbc:	23300eb7          	lui	t4,0x23300
    adc0:	112e8e93          	addi	t4,t4,274 # 23300112 <end+0x232f3a15>
    adc4:	09d19a63          	bne	gp,t4,ae58 <fail>
    adc8:	00120213          	addi	tp,tp,1 # 1 <reset_vec+0x1>
    adcc:	00200293          	li	t0,2
    add0:	fc5218e3          	bne	tp,t0,ada0 <test_21+0x8>

0000add4 <test_22>:
    add4:	01600e13          	li	t3,22
    add8:	00000213          	li	tp,0
    addc:	00002117          	auipc	sp,0x2
    ade0:	86010113          	addi	sp,sp,-1952 # c63c <tdat>
    ade4:	00000013          	nop
    ade8:	223300b7          	lui	ra,0x22330
    adec:	01108093          	addi	ra,ra,17 # 22330011 <end+0x22323914>
    adf0:	00000013          	nop
    adf4:	00112823          	sw	ra,16(sp)
    adf8:	01012183          	lw	gp,16(sp)
    adfc:	22330eb7          	lui	t4,0x22330
    ae00:	011e8e93          	addi	t4,t4,17 # 22330011 <end+0x22323914>
    ae04:	05d19a63          	bne	gp,t4,ae58 <fail>
    ae08:	00120213          	addi	tp,tp,1 # 1 <reset_vec+0x1>
    ae0c:	00200293          	li	t0,2
    ae10:	fc5216e3          	bne	tp,t0,addc <test_22+0x8>

0000ae14 <test_23>:
    ae14:	01700e13          	li	t3,23
    ae18:	00000213          	li	tp,0
    ae1c:	00002117          	auipc	sp,0x2
    ae20:	82010113          	addi	sp,sp,-2016 # c63c <tdat>
    ae24:	00000013          	nop
    ae28:	00000013          	nop
    ae2c:	122330b7          	lui	ra,0x12233
    ae30:	00108093          	addi	ra,ra,1 # 12233001 <end+0x12226904>
    ae34:	00112a23          	sw	ra,20(sp)
    ae38:	01412183          	lw	gp,20(sp)
    ae3c:	12233eb7          	lui	t4,0x12233
    ae40:	001e8e93          	addi	t4,t4,1 # 12233001 <end+0x12226904>
    ae44:	01d19a63          	bne	gp,t4,ae58 <fail>
    ae48:	00120213          	addi	tp,tp,1 # 1 <reset_vec+0x1>
    ae4c:	00200293          	li	t0,2
    ae50:	fc5216e3          	bne	tp,t0,ae1c <test_23+0x8>
    ae54:	05c01863          	bne	zero,t3,aea4 <pass>

0000ae58 <fail>:
    ae58:	00000513          	li	a0,0
    ae5c:	10000537          	lui	a0,0x10000
    ae60:	04500593          	li	a1,69
    ae64:	05200613          	li	a2,82
    ae68:	04f00693          	li	a3,79
    ae6c:	00b52023          	sw	a1,0(a0) # 10000000 <end+0xfff3903>
    ae70:	00c52023          	sw	a2,0(a0)
    ae74:	00c52023          	sw	a2,0(a0)
    ae78:	00d52023          	sw	a3,0(a0)
    ae7c:	00c52023          	sw	a2,0(a0)
    ae80:	030e0593          	addi	a1,t3,48
    ae84:	02000613          	li	a2,32
    ae88:	03a00693          	li	a3,58
    ae8c:	00d52023          	sw	a3,0(a0)
    ae90:	00c52023          	sw	a2,0(a0)
    ae94:	00b52023          	sw	a1,0(a0)
    ae98:	00a00713          	li	a4,10
    ae9c:	00e52023          	sw	a4,0(a0)
    aea0:	b04f506f          	j	1a4 <sw_ret>

0000aea4 <pass>:
    aea4:	00000513          	li	a0,0
    aea8:	10000537          	lui	a0,0x10000
    aeac:	04f00593          	li	a1,79
    aeb0:	04b00613          	li	a2,75
    aeb4:	00a00693          	li	a3,10
    aeb8:	00b52023          	sw	a1,0(a0) # 10000000 <end+0xfff3903>
    aebc:	00c52023          	sw	a2,0(a0)
    aec0:	00d52023          	sw	a3,0(a0)
    aec4:	ae0f506f          	j	1a4 <sw_ret>

0000aec8 <xor>:
    aec8:	0000b537          	lui	a0,0xb
    aecc:	eec50513          	addi	a0,a0,-276 # aeec <.test_name>
    aed0:	00000613          	li	a2,0
    aed4:	10000637          	lui	a2,0x10000

0000aed8 <.prname_next>:
    aed8:	00050583          	lb	a1,0(a0)
    aedc:	00058a63          	beqz	a1,aef0 <.prname_done>
    aee0:	00b62023          	sw	a1,0(a2) # 10000000 <end+0xfff3903>
    aee4:	00150513          	addi	a0,a0,1
    aee8:	ff1ff06f          	j	aed8 <.prname_next>

0000aeec <.test_name>:
    aeec:	00726f78          	.word	0x00726f78

0000aef0 <.prname_done>:
    aef0:	00000613          	li	a2,0
    aef4:	10000637          	lui	a2,0x10000
    aef8:	02e00593          	li	a1,46
    aefc:	00b62023          	sw	a1,0(a2) # 10000000 <end+0xfff3903>
    af00:	00b62023          	sw	a1,0(a2)

0000af04 <test_2>:
    af04:	ff0100b7          	lui	ra,0xff010
    af08:	f0008093          	addi	ra,ra,-256 # ff00ff00 <end+0xff003803>
    af0c:	0f0f1137          	lui	sp,0xf0f1
    af10:	f0f10113          	addi	sp,sp,-241 # f0f0f0f <end+0xf0e4812>
    af14:	0020c1b3          	xor	gp,ra,sp
    af18:	f00ffeb7          	lui	t4,0xf00ff
    af1c:	00fe8e93          	addi	t4,t4,15 # f00ff00f <end+0xf00f2912>
    af20:	00200e13          	li	t3,2
    af24:	4bd19063          	bne	gp,t4,b3c4 <fail>

0000af28 <test_3>:
    af28:	0ff010b7          	lui	ra,0xff01
    af2c:	ff008093          	addi	ra,ra,-16 # ff00ff0 <end+0xfef48f3>
    af30:	f0f0f137          	lui	sp,0xf0f0f
    af34:	0f010113          	addi	sp,sp,240 # f0f0f0f0 <end+0xf0f029f3>
    af38:	0020c1b3          	xor	gp,ra,sp
    af3c:	ff010eb7          	lui	t4,0xff010
    af40:	f00e8e93          	addi	t4,t4,-256 # ff00ff00 <end+0xff003803>
    af44:	00300e13          	li	t3,3
    af48:	47d19e63          	bne	gp,t4,b3c4 <fail>

0000af4c <test_4>:
    af4c:	00ff00b7          	lui	ra,0xff0
    af50:	0ff08093          	addi	ra,ra,255 # ff00ff <end+0xfe3a02>
    af54:	0f0f1137          	lui	sp,0xf0f1
    af58:	f0f10113          	addi	sp,sp,-241 # f0f0f0f <end+0xf0e4812>
    af5c:	0020c1b3          	xor	gp,ra,sp
    af60:	0ff01eb7          	lui	t4,0xff01
    af64:	ff0e8e93          	addi	t4,t4,-16 # ff00ff0 <end+0xfef48f3>
    af68:	00400e13          	li	t3,4
    af6c:	45d19c63          	bne	gp,t4,b3c4 <fail>

0000af70 <test_5>:
    af70:	f00ff0b7          	lui	ra,0xf00ff
    af74:	00f08093          	addi	ra,ra,15 # f00ff00f <end+0xf00f2912>
    af78:	f0f0f137          	lui	sp,0xf0f0f
    af7c:	0f010113          	addi	sp,sp,240 # f0f0f0f0 <end+0xf0f029f3>
    af80:	0020c1b3          	xor	gp,ra,sp
    af84:	00ff0eb7          	lui	t4,0xff0
    af88:	0ffe8e93          	addi	t4,t4,255 # ff00ff <end+0xfe3a02>
    af8c:	00500e13          	li	t3,5
    af90:	43d19a63          	bne	gp,t4,b3c4 <fail>

0000af94 <test_6>:
    af94:	ff0100b7          	lui	ra,0xff010
    af98:	f0008093          	addi	ra,ra,-256 # ff00ff00 <end+0xff003803>
    af9c:	0f0f1137          	lui	sp,0xf0f1
    afa0:	f0f10113          	addi	sp,sp,-241 # f0f0f0f <end+0xf0e4812>
    afa4:	0020c0b3          	xor	ra,ra,sp
    afa8:	f00ffeb7          	lui	t4,0xf00ff
    afac:	00fe8e93          	addi	t4,t4,15 # f00ff00f <end+0xf00f2912>
    afb0:	00600e13          	li	t3,6
    afb4:	41d09863          	bne	ra,t4,b3c4 <fail>

0000afb8 <test_7>:
    afb8:	ff0100b7          	lui	ra,0xff010
    afbc:	f0008093          	addi	ra,ra,-256 # ff00ff00 <end+0xff003803>
    afc0:	0f0f1137          	lui	sp,0xf0f1
    afc4:	f0f10113          	addi	sp,sp,-241 # f0f0f0f <end+0xf0e4812>
    afc8:	0020c133          	xor	sp,ra,sp
    afcc:	f00ffeb7          	lui	t4,0xf00ff
    afd0:	00fe8e93          	addi	t4,t4,15 # f00ff00f <end+0xf00f2912>
    afd4:	00700e13          	li	t3,7
    afd8:	3fd11663          	bne	sp,t4,b3c4 <fail>

0000afdc <test_8>:
    afdc:	ff0100b7          	lui	ra,0xff010
    afe0:	f0008093          	addi	ra,ra,-256 # ff00ff00 <end+0xff003803>
    afe4:	0010c0b3          	xor	ra,ra,ra
    afe8:	00000e93          	li	t4,0
    afec:	00800e13          	li	t3,8
    aff0:	3dd09a63          	bne	ra,t4,b3c4 <fail>

0000aff4 <test_9>:
    aff4:	00000213          	li	tp,0
    aff8:	ff0100b7          	lui	ra,0xff010
    affc:	f0008093          	addi	ra,ra,-256 # ff00ff00 <end+0xff003803>
    b000:	0f0f1137          	lui	sp,0xf0f1
    b004:	f0f10113          	addi	sp,sp,-241 # f0f0f0f <end+0xf0e4812>
    b008:	0020c1b3          	xor	gp,ra,sp
    b00c:	00018313          	mv	t1,gp
    b010:	00120213          	addi	tp,tp,1 # 1 <reset_vec+0x1>
    b014:	00200293          	li	t0,2
    b018:	fe5210e3          	bne	tp,t0,aff8 <test_9+0x4>
    b01c:	f00ffeb7          	lui	t4,0xf00ff
    b020:	00fe8e93          	addi	t4,t4,15 # f00ff00f <end+0xf00f2912>
    b024:	00900e13          	li	t3,9
    b028:	39d31e63          	bne	t1,t4,b3c4 <fail>

0000b02c <test_10>:
    b02c:	00000213          	li	tp,0
    b030:	0ff010b7          	lui	ra,0xff01
    b034:	ff008093          	addi	ra,ra,-16 # ff00ff0 <end+0xfef48f3>
    b038:	f0f0f137          	lui	sp,0xf0f0f
    b03c:	0f010113          	addi	sp,sp,240 # f0f0f0f0 <end+0xf0f029f3>
    b040:	0020c1b3          	xor	gp,ra,sp
    b044:	00000013          	nop
    b048:	00018313          	mv	t1,gp
    b04c:	00120213          	addi	tp,tp,1 # 1 <reset_vec+0x1>
    b050:	00200293          	li	t0,2
    b054:	fc521ee3          	bne	tp,t0,b030 <test_10+0x4>
    b058:	ff010eb7          	lui	t4,0xff010
    b05c:	f00e8e93          	addi	t4,t4,-256 # ff00ff00 <end+0xff003803>
    b060:	00a00e13          	li	t3,10
    b064:	37d31063          	bne	t1,t4,b3c4 <fail>

0000b068 <test_11>:
    b068:	00000213          	li	tp,0
    b06c:	00ff00b7          	lui	ra,0xff0
    b070:	0ff08093          	addi	ra,ra,255 # ff00ff <end+0xfe3a02>
    b074:	0f0f1137          	lui	sp,0xf0f1
    b078:	f0f10113          	addi	sp,sp,-241 # f0f0f0f <end+0xf0e4812>
    b07c:	0020c1b3          	xor	gp,ra,sp
    b080:	00000013          	nop
    b084:	00000013          	nop
    b088:	00018313          	mv	t1,gp
    b08c:	00120213          	addi	tp,tp,1 # 1 <reset_vec+0x1>
    b090:	00200293          	li	t0,2
    b094:	fc521ce3          	bne	tp,t0,b06c <test_11+0x4>
    b098:	0ff01eb7          	lui	t4,0xff01
    b09c:	ff0e8e93          	addi	t4,t4,-16 # ff00ff0 <end+0xfef48f3>
    b0a0:	00b00e13          	li	t3,11
    b0a4:	33d31063          	bne	t1,t4,b3c4 <fail>

0000b0a8 <test_12>:
    b0a8:	00000213          	li	tp,0
    b0ac:	ff0100b7          	lui	ra,0xff010
    b0b0:	f0008093          	addi	ra,ra,-256 # ff00ff00 <end+0xff003803>
    b0b4:	0f0f1137          	lui	sp,0xf0f1
    b0b8:	f0f10113          	addi	sp,sp,-241 # f0f0f0f <end+0xf0e4812>
    b0bc:	0020c1b3          	xor	gp,ra,sp
    b0c0:	00120213          	addi	tp,tp,1 # 1 <reset_vec+0x1>
    b0c4:	00200293          	li	t0,2
    b0c8:	fe5212e3          	bne	tp,t0,b0ac <test_12+0x4>
    b0cc:	f00ffeb7          	lui	t4,0xf00ff
    b0d0:	00fe8e93          	addi	t4,t4,15 # f00ff00f <end+0xf00f2912>
    b0d4:	00c00e13          	li	t3,12
    b0d8:	2fd19663          	bne	gp,t4,b3c4 <fail>

0000b0dc <test_13>:
    b0dc:	00000213          	li	tp,0
    b0e0:	0ff010b7          	lui	ra,0xff01
    b0e4:	ff008093          	addi	ra,ra,-16 # ff00ff0 <end+0xfef48f3>
    b0e8:	f0f0f137          	lui	sp,0xf0f0f
    b0ec:	0f010113          	addi	sp,sp,240 # f0f0f0f0 <end+0xf0f029f3>
    b0f0:	00000013          	nop
    b0f4:	0020c1b3          	xor	gp,ra,sp
    b0f8:	00120213          	addi	tp,tp,1 # 1 <reset_vec+0x1>
    b0fc:	00200293          	li	t0,2
    b100:	fe5210e3          	bne	tp,t0,b0e0 <test_13+0x4>
    b104:	ff010eb7          	lui	t4,0xff010
    b108:	f00e8e93          	addi	t4,t4,-256 # ff00ff00 <end+0xff003803>
    b10c:	00d00e13          	li	t3,13
    b110:	2bd19a63          	bne	gp,t4,b3c4 <fail>

0000b114 <test_14>:
    b114:	00000213          	li	tp,0
    b118:	00ff00b7          	lui	ra,0xff0
    b11c:	0ff08093          	addi	ra,ra,255 # ff00ff <end+0xfe3a02>
    b120:	0f0f1137          	lui	sp,0xf0f1
    b124:	f0f10113          	addi	sp,sp,-241 # f0f0f0f <end+0xf0e4812>
    b128:	00000013          	nop
    b12c:	00000013          	nop
    b130:	0020c1b3          	xor	gp,ra,sp
    b134:	00120213          	addi	tp,tp,1 # 1 <reset_vec+0x1>
    b138:	00200293          	li	t0,2
    b13c:	fc521ee3          	bne	tp,t0,b118 <test_14+0x4>
    b140:	0ff01eb7          	lui	t4,0xff01
    b144:	ff0e8e93          	addi	t4,t4,-16 # ff00ff0 <end+0xfef48f3>
    b148:	00e00e13          	li	t3,14
    b14c:	27d19c63          	bne	gp,t4,b3c4 <fail>

0000b150 <test_15>:
    b150:	00000213          	li	tp,0
    b154:	ff0100b7          	lui	ra,0xff010
    b158:	f0008093          	addi	ra,ra,-256 # ff00ff00 <end+0xff003803>
    b15c:	00000013          	nop
    b160:	0f0f1137          	lui	sp,0xf0f1
    b164:	f0f10113          	addi	sp,sp,-241 # f0f0f0f <end+0xf0e4812>
    b168:	0020c1b3          	xor	gp,ra,sp
    b16c:	00120213          	addi	tp,tp,1 # 1 <reset_vec+0x1>
    b170:	00200293          	li	t0,2
    b174:	fe5210e3          	bne	tp,t0,b154 <test_15+0x4>
    b178:	f00ffeb7          	lui	t4,0xf00ff
    b17c:	00fe8e93          	addi	t4,t4,15 # f00ff00f <end+0xf00f2912>
    b180:	00f00e13          	li	t3,15
    b184:	25d19063          	bne	gp,t4,b3c4 <fail>

0000b188 <test_16>:
    b188:	00000213          	li	tp,0
    b18c:	0ff010b7          	lui	ra,0xff01
    b190:	ff008093          	addi	ra,ra,-16 # ff00ff0 <end+0xfef48f3>
    b194:	00000013          	nop
    b198:	f0f0f137          	lui	sp,0xf0f0f
    b19c:	0f010113          	addi	sp,sp,240 # f0f0f0f0 <end+0xf0f029f3>
    b1a0:	00000013          	nop
    b1a4:	0020c1b3          	xor	gp,ra,sp
    b1a8:	00120213          	addi	tp,tp,1 # 1 <reset_vec+0x1>
    b1ac:	00200293          	li	t0,2
    b1b0:	fc521ee3          	bne	tp,t0,b18c <test_16+0x4>
    b1b4:	ff010eb7          	lui	t4,0xff010
    b1b8:	f00e8e93          	addi	t4,t4,-256 # ff00ff00 <end+0xff003803>
    b1bc:	01000e13          	li	t3,16
    b1c0:	21d19263          	bne	gp,t4,b3c4 <fail>

0000b1c4 <test_17>:
    b1c4:	00000213          	li	tp,0
    b1c8:	00ff00b7          	lui	ra,0xff0
    b1cc:	0ff08093          	addi	ra,ra,255 # ff00ff <end+0xfe3a02>
    b1d0:	00000013          	nop
    b1d4:	00000013          	nop
    b1d8:	0f0f1137          	lui	sp,0xf0f1
    b1dc:	f0f10113          	addi	sp,sp,-241 # f0f0f0f <end+0xf0e4812>
    b1e0:	0020c1b3          	xor	gp,ra,sp
    b1e4:	00120213          	addi	tp,tp,1 # 1 <reset_vec+0x1>
    b1e8:	00200293          	li	t0,2
    b1ec:	fc521ee3          	bne	tp,t0,b1c8 <test_17+0x4>
    b1f0:	0ff01eb7          	lui	t4,0xff01
    b1f4:	ff0e8e93          	addi	t4,t4,-16 # ff00ff0 <end+0xfef48f3>
    b1f8:	01100e13          	li	t3,17
    b1fc:	1dd19463          	bne	gp,t4,b3c4 <fail>

0000b200 <test_18>:
    b200:	00000213          	li	tp,0
    b204:	0f0f1137          	lui	sp,0xf0f1
    b208:	f0f10113          	addi	sp,sp,-241 # f0f0f0f <end+0xf0e4812>
    b20c:	ff0100b7          	lui	ra,0xff010
    b210:	f0008093          	addi	ra,ra,-256 # ff00ff00 <end+0xff003803>
    b214:	0020c1b3          	xor	gp,ra,sp
    b218:	00120213          	addi	tp,tp,1 # 1 <reset_vec+0x1>
    b21c:	00200293          	li	t0,2
    b220:	fe5212e3          	bne	tp,t0,b204 <test_18+0x4>
    b224:	f00ffeb7          	lui	t4,0xf00ff
    b228:	00fe8e93          	addi	t4,t4,15 # f00ff00f <end+0xf00f2912>
    b22c:	01200e13          	li	t3,18
    b230:	19d19a63          	bne	gp,t4,b3c4 <fail>

0000b234 <test_19>:
    b234:	00000213          	li	tp,0
    b238:	f0f0f137          	lui	sp,0xf0f0f
    b23c:	0f010113          	addi	sp,sp,240 # f0f0f0f0 <end+0xf0f029f3>
    b240:	0ff010b7          	lui	ra,0xff01
    b244:	ff008093          	addi	ra,ra,-16 # ff00ff0 <end+0xfef48f3>
    b248:	00000013          	nop
    b24c:	0020c1b3          	xor	gp,ra,sp
    b250:	00120213          	addi	tp,tp,1 # 1 <reset_vec+0x1>
    b254:	00200293          	li	t0,2
    b258:	fe5210e3          	bne	tp,t0,b238 <test_19+0x4>
    b25c:	ff010eb7          	lui	t4,0xff010
    b260:	f00e8e93          	addi	t4,t4,-256 # ff00ff00 <end+0xff003803>
    b264:	01300e13          	li	t3,19
    b268:	15d19e63          	bne	gp,t4,b3c4 <fail>

0000b26c <test_20>:
    b26c:	00000213          	li	tp,0
    b270:	0f0f1137          	lui	sp,0xf0f1
    b274:	f0f10113          	addi	sp,sp,-241 # f0f0f0f <end+0xf0e4812>
    b278:	00ff00b7          	lui	ra,0xff0
    b27c:	0ff08093          	addi	ra,ra,255 # ff00ff <end+0xfe3a02>
    b280:	00000013          	nop
    b284:	00000013          	nop
    b288:	0020c1b3          	xor	gp,ra,sp
    b28c:	00120213          	addi	tp,tp,1 # 1 <reset_vec+0x1>
    b290:	00200293          	li	t0,2
    b294:	fc521ee3          	bne	tp,t0,b270 <test_20+0x4>
    b298:	0ff01eb7          	lui	t4,0xff01
    b29c:	ff0e8e93          	addi	t4,t4,-16 # ff00ff0 <end+0xfef48f3>
    b2a0:	01400e13          	li	t3,20
    b2a4:	13d19063          	bne	gp,t4,b3c4 <fail>

0000b2a8 <test_21>:
    b2a8:	00000213          	li	tp,0
    b2ac:	0f0f1137          	lui	sp,0xf0f1
    b2b0:	f0f10113          	addi	sp,sp,-241 # f0f0f0f <end+0xf0e4812>
    b2b4:	00000013          	nop
    b2b8:	ff0100b7          	lui	ra,0xff010
    b2bc:	f0008093          	addi	ra,ra,-256 # ff00ff00 <end+0xff003803>
    b2c0:	0020c1b3          	xor	gp,ra,sp
    b2c4:	00120213          	addi	tp,tp,1 # 1 <reset_vec+0x1>
    b2c8:	00200293          	li	t0,2
    b2cc:	fe5210e3          	bne	tp,t0,b2ac <test_21+0x4>
    b2d0:	f00ffeb7          	lui	t4,0xf00ff
    b2d4:	00fe8e93          	addi	t4,t4,15 # f00ff00f <end+0xf00f2912>
    b2d8:	01500e13          	li	t3,21
    b2dc:	0fd19463          	bne	gp,t4,b3c4 <fail>

0000b2e0 <test_22>:
    b2e0:	00000213          	li	tp,0
    b2e4:	f0f0f137          	lui	sp,0xf0f0f
    b2e8:	0f010113          	addi	sp,sp,240 # f0f0f0f0 <end+0xf0f029f3>
    b2ec:	00000013          	nop
    b2f0:	0ff010b7          	lui	ra,0xff01
    b2f4:	ff008093          	addi	ra,ra,-16 # ff00ff0 <end+0xfef48f3>
    b2f8:	00000013          	nop
    b2fc:	0020c1b3          	xor	gp,ra,sp
    b300:	00120213          	addi	tp,tp,1 # 1 <reset_vec+0x1>
    b304:	00200293          	li	t0,2
    b308:	fc521ee3          	bne	tp,t0,b2e4 <test_22+0x4>
    b30c:	ff010eb7          	lui	t4,0xff010
    b310:	f00e8e93          	addi	t4,t4,-256 # ff00ff00 <end+0xff003803>
    b314:	01600e13          	li	t3,22
    b318:	0bd19663          	bne	gp,t4,b3c4 <fail>

0000b31c <test_23>:
    b31c:	00000213          	li	tp,0
    b320:	0f0f1137          	lui	sp,0xf0f1
    b324:	f0f10113          	addi	sp,sp,-241 # f0f0f0f <end+0xf0e4812>
    b328:	00000013          	nop
    b32c:	00000013          	nop
    b330:	00ff00b7          	lui	ra,0xff0
    b334:	0ff08093          	addi	ra,ra,255 # ff00ff <end+0xfe3a02>
    b338:	0020c1b3          	xor	gp,ra,sp
    b33c:	00120213          	addi	tp,tp,1 # 1 <reset_vec+0x1>
    b340:	00200293          	li	t0,2
    b344:	fc521ee3          	bne	tp,t0,b320 <test_23+0x4>
    b348:	0ff01eb7          	lui	t4,0xff01
    b34c:	ff0e8e93          	addi	t4,t4,-16 # ff00ff0 <end+0xfef48f3>
    b350:	01700e13          	li	t3,23
    b354:	07d19863          	bne	gp,t4,b3c4 <fail>

0000b358 <test_24>:
    b358:	ff0100b7          	lui	ra,0xff010
    b35c:	f0008093          	addi	ra,ra,-256 # ff00ff00 <end+0xff003803>
    b360:	00104133          	xor	sp,zero,ra
    b364:	ff010eb7          	lui	t4,0xff010
    b368:	f00e8e93          	addi	t4,t4,-256 # ff00ff00 <end+0xff003803>
    b36c:	01800e13          	li	t3,24
    b370:	05d11a63          	bne	sp,t4,b3c4 <fail>

0000b374 <test_25>:
    b374:	00ff00b7          	lui	ra,0xff0
    b378:	0ff08093          	addi	ra,ra,255 # ff00ff <end+0xfe3a02>
    b37c:	0000c133          	xor	sp,ra,zero
    b380:	00ff0eb7          	lui	t4,0xff0
    b384:	0ffe8e93          	addi	t4,t4,255 # ff00ff <end+0xfe3a02>
    b388:	01900e13          	li	t3,25
    b38c:	03d11c63          	bne	sp,t4,b3c4 <fail>

0000b390 <test_26>:
    b390:	000040b3          	xor	ra,zero,zero
    b394:	00000e93          	li	t4,0
    b398:	01a00e13          	li	t3,26
    b39c:	03d09463          	bne	ra,t4,b3c4 <fail>

0000b3a0 <test_27>:
    b3a0:	111110b7          	lui	ra,0x11111
    b3a4:	11108093          	addi	ra,ra,273 # 11111111 <end+0x11104a14>
    b3a8:	22222137          	lui	sp,0x22222
    b3ac:	22210113          	addi	sp,sp,546 # 22222222 <end+0x22215b25>
    b3b0:	0020c033          	xor	zero,ra,sp
    b3b4:	00000e93          	li	t4,0
    b3b8:	01b00e13          	li	t3,27
    b3bc:	01d01463          	bne	zero,t4,b3c4 <fail>
    b3c0:	05c01863          	bne	zero,t3,b410 <pass>

0000b3c4 <fail>:
    b3c4:	00000513          	li	a0,0
    b3c8:	10000537          	lui	a0,0x10000
    b3cc:	04500593          	li	a1,69
    b3d0:	05200613          	li	a2,82
    b3d4:	04f00693          	li	a3,79
    b3d8:	00b52023          	sw	a1,0(a0) # 10000000 <end+0xfff3903>
    b3dc:	00c52023          	sw	a2,0(a0)
    b3e0:	00c52023          	sw	a2,0(a0)
    b3e4:	00d52023          	sw	a3,0(a0)
    b3e8:	00c52023          	sw	a2,0(a0)
    b3ec:	030e0593          	addi	a1,t3,48
    b3f0:	02000613          	li	a2,32
    b3f4:	03a00693          	li	a3,58
    b3f8:	00d52023          	sw	a3,0(a0)
    b3fc:	00c52023          	sw	a2,0(a0)
    b400:	00b52023          	sw	a1,0(a0)
    b404:	00a00713          	li	a4,10
    b408:	00e52023          	sw	a4,0(a0)
    b40c:	e01f406f          	j	20c <xor_ret>

0000b410 <pass>:
    b410:	00000513          	li	a0,0
    b414:	10000537          	lui	a0,0x10000
    b418:	04f00593          	li	a1,79
    b41c:	04b00613          	li	a2,75
    b420:	00a00693          	li	a3,10
    b424:	00b52023          	sw	a1,0(a0) # 10000000 <end+0xfff3903>
    b428:	00c52023          	sw	a2,0(a0)
    b42c:	00d52023          	sw	a3,0(a0)
    b430:	dddf406f          	j	20c <xor_ret>

0000b434 <xori>:
    b434:	0000b537          	lui	a0,0xb
    b438:	45850513          	addi	a0,a0,1112 # b458 <.test_name>
    b43c:	00000613          	li	a2,0
    b440:	10000637          	lui	a2,0x10000

0000b444 <.prname_next>:
    b444:	00050583          	lb	a1,0(a0)
    b448:	00058c63          	beqz	a1,b460 <.prname_done>
    b44c:	00b62023          	sw	a1,0(a2) # 10000000 <end+0xfff3903>
    b450:	00150513          	addi	a0,a0,1
    b454:	ff1ff06f          	j	b444 <.prname_next>

0000b458 <.test_name>:
    b458:	69726f78          	.word	0x69726f78
    b45c:	00000000          	.word	0x00000000

0000b460 <.prname_done>:
    b460:	00000613          	li	a2,0
    b464:	10000637          	lui	a2,0x10000
    b468:	02e00593          	li	a1,46
    b46c:	00b62023          	sw	a1,0(a2) # 10000000 <end+0xfff3903>
    b470:	00b62023          	sw	a1,0(a2)

0000b474 <test_2>:
    b474:	00ff10b7          	lui	ra,0xff1
    b478:	f0008093          	addi	ra,ra,-256 # ff0f00 <end+0xfe4803>
    b47c:	f0f0c193          	xori	gp,ra,-241
    b480:	ff00feb7          	lui	t4,0xff00f
    b484:	00fe8e93          	addi	t4,t4,15 # ff00f00f <end+0xff002912>
    b488:	00200e13          	li	t3,2
    b48c:	1dd19663          	bne	gp,t4,b658 <fail>

0000b490 <test_3>:
    b490:	0ff010b7          	lui	ra,0xff01
    b494:	ff008093          	addi	ra,ra,-16 # ff00ff0 <end+0xfef48f3>
    b498:	0f00c193          	xori	gp,ra,240
    b49c:	0ff01eb7          	lui	t4,0xff01
    b4a0:	f00e8e93          	addi	t4,t4,-256 # ff00f00 <end+0xfef4803>
    b4a4:	00300e13          	li	t3,3
    b4a8:	1bd19863          	bne	gp,t4,b658 <fail>

0000b4ac <test_4>:
    b4ac:	00ff10b7          	lui	ra,0xff1
    b4b0:	8ff08093          	addi	ra,ra,-1793 # ff08ff <end+0xfe4202>
    b4b4:	70f0c193          	xori	gp,ra,1807
    b4b8:	00ff1eb7          	lui	t4,0xff1
    b4bc:	ff0e8e93          	addi	t4,t4,-16 # ff0ff0 <end+0xfe48f3>
    b4c0:	00400e13          	li	t3,4
    b4c4:	19d19a63          	bne	gp,t4,b658 <fail>

0000b4c8 <test_5>:
    b4c8:	f00ff0b7          	lui	ra,0xf00ff
    b4cc:	00f08093          	addi	ra,ra,15 # f00ff00f <end+0xf00f2912>
    b4d0:	0f00c193          	xori	gp,ra,240
    b4d4:	f00ffeb7          	lui	t4,0xf00ff
    b4d8:	0ffe8e93          	addi	t4,t4,255 # f00ff0ff <end+0xf00f2a02>
    b4dc:	00500e13          	li	t3,5
    b4e0:	17d19c63          	bne	gp,t4,b658 <fail>

0000b4e4 <test_6>:
    b4e4:	ff00f0b7          	lui	ra,0xff00f
    b4e8:	70008093          	addi	ra,ra,1792 # ff00f700 <end+0xff003003>
    b4ec:	70f0c093          	xori	ra,ra,1807
    b4f0:	ff00feb7          	lui	t4,0xff00f
    b4f4:	00fe8e93          	addi	t4,t4,15 # ff00f00f <end+0xff002912>
    b4f8:	00600e13          	li	t3,6
    b4fc:	15d09e63          	bne	ra,t4,b658 <fail>

0000b500 <test_7>:
    b500:	00000213          	li	tp,0
    b504:	0ff010b7          	lui	ra,0xff01
    b508:	ff008093          	addi	ra,ra,-16 # ff00ff0 <end+0xfef48f3>
    b50c:	0f00c193          	xori	gp,ra,240
    b510:	00018313          	mv	t1,gp
    b514:	00120213          	addi	tp,tp,1 # 1 <reset_vec+0x1>
    b518:	00200293          	li	t0,2
    b51c:	fe5214e3          	bne	tp,t0,b504 <test_7+0x4>
    b520:	0ff01eb7          	lui	t4,0xff01
    b524:	f00e8e93          	addi	t4,t4,-256 # ff00f00 <end+0xfef4803>
    b528:	00700e13          	li	t3,7
    b52c:	13d31663          	bne	t1,t4,b658 <fail>

0000b530 <test_8>:
    b530:	00000213          	li	tp,0
    b534:	00ff10b7          	lui	ra,0xff1
    b538:	8ff08093          	addi	ra,ra,-1793 # ff08ff <end+0xfe4202>
    b53c:	70f0c193          	xori	gp,ra,1807
    b540:	00000013          	nop
    b544:	00018313          	mv	t1,gp
    b548:	00120213          	addi	tp,tp,1 # 1 <reset_vec+0x1>
    b54c:	00200293          	li	t0,2
    b550:	fe5212e3          	bne	tp,t0,b534 <test_8+0x4>
    b554:	00ff1eb7          	lui	t4,0xff1
    b558:	ff0e8e93          	addi	t4,t4,-16 # ff0ff0 <end+0xfe48f3>
    b55c:	00800e13          	li	t3,8
    b560:	0fd31c63          	bne	t1,t4,b658 <fail>

0000b564 <test_9>:
    b564:	00000213          	li	tp,0
    b568:	f00ff0b7          	lui	ra,0xf00ff
    b56c:	00f08093          	addi	ra,ra,15 # f00ff00f <end+0xf00f2912>
    b570:	0f00c193          	xori	gp,ra,240
    b574:	00000013          	nop
    b578:	00000013          	nop
    b57c:	00018313          	mv	t1,gp
    b580:	00120213          	addi	tp,tp,1 # 1 <reset_vec+0x1>
    b584:	00200293          	li	t0,2
    b588:	fe5210e3          	bne	tp,t0,b568 <test_9+0x4>
    b58c:	f00ffeb7          	lui	t4,0xf00ff
    b590:	0ffe8e93          	addi	t4,t4,255 # f00ff0ff <end+0xf00f2a02>
    b594:	00900e13          	li	t3,9
    b598:	0dd31063          	bne	t1,t4,b658 <fail>

0000b59c <test_10>:
    b59c:	00000213          	li	tp,0
    b5a0:	0ff010b7          	lui	ra,0xff01
    b5a4:	ff008093          	addi	ra,ra,-16 # ff00ff0 <end+0xfef48f3>
    b5a8:	0f00c193          	xori	gp,ra,240
    b5ac:	00120213          	addi	tp,tp,1 # 1 <reset_vec+0x1>
    b5b0:	00200293          	li	t0,2
    b5b4:	fe5216e3          	bne	tp,t0,b5a0 <test_10+0x4>
    b5b8:	0ff01eb7          	lui	t4,0xff01
    b5bc:	f00e8e93          	addi	t4,t4,-256 # ff00f00 <end+0xfef4803>
    b5c0:	00a00e13          	li	t3,10
    b5c4:	09d19a63          	bne	gp,t4,b658 <fail>

0000b5c8 <test_11>:
    b5c8:	00000213          	li	tp,0
    b5cc:	00ff10b7          	lui	ra,0xff1
    b5d0:	fff08093          	addi	ra,ra,-1 # ff0fff <end+0xfe4902>
    b5d4:	00000013          	nop
    b5d8:	00f0c193          	xori	gp,ra,15
    b5dc:	00120213          	addi	tp,tp,1 # 1 <reset_vec+0x1>
    b5e0:	00200293          	li	t0,2
    b5e4:	fe5214e3          	bne	tp,t0,b5cc <test_11+0x4>
    b5e8:	00ff1eb7          	lui	t4,0xff1
    b5ec:	ff0e8e93          	addi	t4,t4,-16 # ff0ff0 <end+0xfe48f3>
    b5f0:	00b00e13          	li	t3,11
    b5f4:	07d19263          	bne	gp,t4,b658 <fail>

0000b5f8 <test_12>:
    b5f8:	00000213          	li	tp,0
    b5fc:	f00ff0b7          	lui	ra,0xf00ff
    b600:	00f08093          	addi	ra,ra,15 # f00ff00f <end+0xf00f2912>
    b604:	00000013          	nop
    b608:	00000013          	nop
    b60c:	0f00c193          	xori	gp,ra,240
    b610:	00120213          	addi	tp,tp,1 # 1 <reset_vec+0x1>
    b614:	00200293          	li	t0,2
    b618:	fe5212e3          	bne	tp,t0,b5fc <test_12+0x4>
    b61c:	f00ffeb7          	lui	t4,0xf00ff
    b620:	0ffe8e93          	addi	t4,t4,255 # f00ff0ff <end+0xf00f2a02>
    b624:	00c00e13          	li	t3,12
    b628:	03d19863          	bne	gp,t4,b658 <fail>

0000b62c <test_13>:
    b62c:	0f004093          	xori	ra,zero,240
    b630:	0f000e93          	li	t4,240
    b634:	00d00e13          	li	t3,13
    b638:	03d09063          	bne	ra,t4,b658 <fail>

0000b63c <test_14>:
    b63c:	00ff00b7          	lui	ra,0xff0
    b640:	0ff08093          	addi	ra,ra,255 # ff00ff <end+0xfe3a02>
    b644:	70f0c013          	xori	zero,ra,1807
    b648:	00000e93          	li	t4,0
    b64c:	00e00e13          	li	t3,14
    b650:	01d01463          	bne	zero,t4,b658 <fail>
    b654:	05c01863          	bne	zero,t3,b6a4 <pass>

0000b658 <fail>:
    b658:	00000513          	li	a0,0
    b65c:	10000537          	lui	a0,0x10000
    b660:	04500593          	li	a1,69
    b664:	05200613          	li	a2,82
    b668:	04f00693          	li	a3,79
    b66c:	00b52023          	sw	a1,0(a0) # 10000000 <end+0xfff3903>
    b670:	00c52023          	sw	a2,0(a0)
    b674:	00c52023          	sw	a2,0(a0)
    b678:	00d52023          	sw	a3,0(a0)
    b67c:	00c52023          	sw	a2,0(a0)
    b680:	030e0593          	addi	a1,t3,48
    b684:	02000613          	li	a2,32
    b688:	03a00693          	li	a3,58
    b68c:	00d52023          	sw	a3,0(a0)
    b690:	00c52023          	sw	a2,0(a0)
    b694:	00b52023          	sw	a1,0(a0)
    b698:	00a00713          	li	a4,10
    b69c:	00e52023          	sw	a4,0(a0)
    b6a0:	b1df406f          	j	1bc <xori_ret>

0000b6a4 <pass>:
    b6a4:	00000513          	li	a0,0
    b6a8:	10000537          	lui	a0,0x10000
    b6ac:	04f00593          	li	a1,79
    b6b0:	04b00613          	li	a2,75
    b6b4:	00a00693          	li	a3,10
    b6b8:	00b52023          	sw	a1,0(a0) # 10000000 <end+0xfff3903>
    b6bc:	00c52023          	sw	a2,0(a0)
    b6c0:	00d52023          	sw	a3,0(a0)
    b6c4:	af9f406f          	j	1bc <xori_ret>
    b6c8:	6345                	.insn	2, 0x6345
    b6ca:	6f68                	.insn	2, 0x6f68
    b6cc:	7420                	.insn	2, 0x7420
    b6ce:	7365                	.insn	2, 0x7365
    b6d0:	2074                	.insn	2, 0x2074
    b6d2:	72617473          	csrrci	s0,mhpmevent6h,2
    b6d6:	6574                	.insn	2, 0x6574
    b6d8:	2e64                	.insn	2, 0x2e64
    b6da:	5420                	.insn	2, 0x5420
    b6dc:	7079                	.insn	2, 0x7079
    b6de:	2065                	.insn	2, 0x2065
    b6e0:	72616863          	bltu	sp,t1,be10 <digits.0+0x1fc>
    b6e4:	6361                	.insn	2, 0x6361
    b6e6:	6574                	.insn	2, 0x6574
    b6e8:	7372                	.insn	2, 0x7372
    b6ea:	7420                	.insn	2, 0x7420
    b6ec:	6365206f          	j	5dd22 <end+0x51625>
    b6f0:	6f68                	.insn	2, 0x6f68
    b6f2:	7420                	.insn	2, 0x7420
    b6f4:	6568                	.insn	2, 0x6568
    b6f6:	206d                	.insn	2, 0x206d
    b6f8:	6162                	.insn	2, 0x6162
    b6fa:	202e6b63          	bltu	t3,sp,b910 <pass+0x26c>
    b6fe:	7250                	.insn	2, 0x7250
    b700:	7365                	.insn	2, 0x7365
    b702:	74432073          	csrs	mnstatus,t1
    b706:	6c72                	.insn	2, 0x6c72
    b708:	7420432b          	.insn	4, 0x7420432b
    b70c:	7865206f          	j	5de92 <end+0x51795>
    b710:	7469                	.insn	2, 0x7469
    b712:	0a2e                	.insn	2, 0x0a2e
    b714:	0000                	.insn	2, 0x0000
    b716:	0000                	.insn	2, 0x0000
    b718:	7954                	.insn	2, 0x7954
    b71a:	6570                	.insn	2, 0x6570
    b71c:	6120                	.insn	2, 0x6120
    b71e:	6320                	.insn	2, 0x6320
    b720:	6168                	.insn	2, 0x6168
    b722:	6172                	.insn	2, 0x6172
    b724:	72657463          	bgeu	a0,t1,be4c <digits.0+0x238>
    b728:	203a                	.insn	2, 0x203a
    b72a:	0000                	.insn	2, 0x0000
    b72c:	3d3d                	.insn	2, 0x3d3d
    b72e:	203d                	.insn	2, 0x203d
    b730:	20525343          	.insn	4, 0x20525343
    b734:	6554                	.insn	2, 0x6554
    b736:	53207473          	csrrci	s0,0x532,0
    b73a:	6975                	.insn	2, 0x6975
    b73c:	6574                	.insn	2, 0x6574
    b73e:	3d20                	.insn	2, 0x3d20
    b740:	3d3d                	.insn	2, 0x3d3d
    b742:	000a                	.insn	2, 0x000a
    b744:	6554                	.insn	2, 0x6554
    b746:	31207473          	csrrci	s0,medelegh,0
    b74a:	203a                	.insn	2, 0x203a
    b74c:	746d                	.insn	2, 0x746d
    b74e:	6576                	.insn	2, 0x6576
    b750:	2e2e2e63          	.insn	4, 0x2e2e2e63
    b754:	0020                	.insn	2, 0x0020
    b756:	0000                	.insn	2, 0x0000
    b758:	4150                	.insn	2, 0x4150
    b75a:	44455353          	.insn	4, 0x44455353
    b75e:	000a                	.insn	2, 0x000a
    b760:	4146                	.insn	2, 0x4146
    b762:	4c49                	.insn	2, 0x4c49
    b764:	4445                	.insn	2, 0x4445
    b766:	000a                	.insn	2, 0x000a
    b768:	2020                	.insn	2, 0x2020
    b76a:	7845                	.insn	2, 0x7845
    b76c:	6570                	.insn	2, 0x6570
    b76e:	64657463          	bgeu	a0,t1,bdb6 <digits.0+0x1a2>
    b772:	203a                	.insn	2, 0x203a
    b774:	7830                	.insn	2, 0x7830
    b776:	7825                	.insn	2, 0x7825
    b778:	202c                	.insn	2, 0x202c
    b77a:	3a746f47          	.insn	4, 0x3a746f47
    b77e:	3020                	.insn	2, 0x3020
    b780:	2578                	.insn	2, 0x2578
    b782:	0a78                	.insn	2, 0x0a78
    b784:	0000                	.insn	2, 0x0000
    b786:	0000                	.insn	2, 0x0000
    b788:	6554                	.insn	2, 0x6554
    b78a:	32207473          	csrrci	s0,minstretcfg,0
    b78e:	203a                	.insn	2, 0x203a
    b790:	656d                	.insn	2, 0x656d
    b792:	6370                	.insn	2, 0x6370
    b794:	2e2e                	.insn	2, 0x2e2e
    b796:	202e                	.insn	2, 0x202e
    b798:	0000                	.insn	2, 0x0000
    b79a:	0000                	.insn	2, 0x0000
    b79c:	6554                	.insn	2, 0x6554
    b79e:	33207473          	csrrci	s0,mhpmevent18,0
    b7a2:	203a                	.insn	2, 0x203a
    b7a4:	736d                	.insn	2, 0x736d
    b7a6:	6174                	.insn	2, 0x6174
    b7a8:	7574                	.insn	2, 0x7574
    b7aa:	2e2e2e73          	csrrs	t3,0x2e2,t3
    b7ae:	0020                	.insn	2, 0x0020
    b7b0:	6554                	.insn	2, 0x6554
    b7b2:	34207473          	csrrci	s0,mcause,0
    b7b6:	203a                	.insn	2, 0x203a
    b7b8:	636d                	.insn	2, 0x636d
    b7ba:	7561                	.insn	2, 0x7561
    b7bc:	2e2e6573          	csrrsi	a0,0x2e2,28
    b7c0:	202e                	.insn	2, 0x202e
    b7c2:	0000                	.insn	2, 0x0000
    b7c4:	6554                	.insn	2, 0x6554
    b7c6:	35207473          	csrrci	s0,mireg2,0
    b7ca:	203a                	.insn	2, 0x203a
    b7cc:	696d                	.insn	2, 0x696d
    b7ce:	2e65                	.insn	2, 0x2e65
    b7d0:	2e2e                	.insn	2, 0x2e2e
    b7d2:	0020                	.insn	2, 0x0020
    b7d4:	6554                	.insn	2, 0x6554
    b7d6:	36207473          	csrrci	s0,0x362,0
    b7da:	203a                	.insn	2, 0x203a
    b7dc:	696d                	.insn	2, 0x696d
    b7de:	2e70                	.insn	2, 0x2e70
    b7e0:	2e2e                	.insn	2, 0x2e2e
    b7e2:	0020                	.insn	2, 0x0020
    b7e4:	3d0a                	.insn	2, 0x3d0a
    b7e6:	3d3d                	.insn	2, 0x3d3d
    b7e8:	4320                	.insn	2, 0x4320
    b7ea:	54205253          	.insn	4, 0x54205253
    b7ee:	7365                	.insn	2, 0x7365
    b7f0:	2074                	.insn	2, 0x2074
    b7f2:	6d6d7553          	.insn	4, 0x6d6d7553
    b7f6:	7261                	.insn	2, 0x7261
    b7f8:	2079                	.insn	2, 0x2079
    b7fa:	3d3d                	.insn	2, 0x3d3d
    b7fc:	0a3d                	.insn	2, 0x0a3d
    b7fe:	0000                	.insn	2, 0x0000
    b800:	6150                	.insn	2, 0x6150
    b802:	64657373          	csrrci	t1,hviprio1,10
    b806:	203a                	.insn	2, 0x203a
    b808:	6425                	.insn	2, 0x6425
    b80a:	000a                	.insn	2, 0x000a
    b80c:	6146                	.insn	2, 0x6146
    b80e:	6c69                	.insn	2, 0x6c69
    b810:	6465                	.insn	2, 0x6465
    b812:	203a                	.insn	2, 0x203a
    b814:	6425                	.insn	2, 0x6425
    b816:	000a                	.insn	2, 0x000a
    b818:	6c41                	.insn	2, 0x6c41
    b81a:	206c                	.insn	2, 0x206c
    b81c:	20525343          	.insn	4, 0x20525343
    b820:	6574                	.insn	2, 0x6574
    b822:	20737473          	csrrci	s0,0x207,6
    b826:	4150                	.insn	2, 0x4150
    b828:	44455353          	.insn	4, 0x44455353
    b82c:	0a21                	.insn	2, 0x0a21
    b82e:	0000                	.insn	2, 0x0000
    b830:	656d6f53          	.insn	4, 0x656d6f53
    b834:	4320                	.insn	2, 0x4320
    b836:	74205253          	.insn	4, 0x74205253
    b83a:	7365                	.insn	2, 0x7365
    b83c:	7374                	.insn	2, 0x7374
    b83e:	4620                	.insn	2, 0x4620
    b840:	4941                	.insn	2, 0x4941
    b842:	454c                	.insn	2, 0x454c
    b844:	2144                	.insn	2, 0x2144
    b846:	000a                	.insn	2, 0x000a
    b848:	6548                	.insn	2, 0x6548
    b84a:	6c6c                	.insn	2, 0x6c6c
    b84c:	52202c6f          	jal	s8,dd6e <end+0x1671>
    b850:	5349                	.insn	2, 0x5349
    b852:	20562d43          	.insn	4, 0x20562d43
    b856:	6c726f57          	.insn	4, 0x6c726f57
    b85a:	2164                	.insn	2, 0x2164
    b85c:	000a                	.insn	2, 0x000a
    b85e:	0000                	.insn	2, 0x0000
    b860:	6e49                	.insn	2, 0x6e49
    b862:	75727473          	csrrci	s0,mseccfgh,4
    b866:	6f697463          	bgeu	s2,s6,bf4e <digits.0+0x33a>
    b86a:	206e                	.insn	2, 0x206e
    b86c:	6574                	.insn	2, 0x6574
    b86e:	20737473          	csrrci	s0,0x207,6
    b872:	706d6f63          	bltu	s10,t1,bf90 <digits.0+0x37c>
    b876:	656c                	.insn	2, 0x656c
    b878:	6574                	.insn	2, 0x6574
    b87a:	2e64                	.insn	2, 0x2e64
    b87c:	000a                	.insn	2, 0x000a
    b87e:	0000                	.insn	2, 0x0000
    b880:	6562                	.insn	2, 0x6562
    b882:	3a6e6967          	.insn	4, 0x3a6e6967
    b886:	7020                	.insn	2, 0x7020
    b888:	6176                	.insn	2, 0x6176
    b88a:	6464                	.insn	2, 0x6464
    b88c:	7420                	.insn	2, 0x7420
    b88e:	7365                	.insn	2, 0x7365
    b890:	0a74                	.insn	2, 0x0a74
    b892:	0000                	.insn	2, 0x0000
    b894:	5650                	.insn	2, 0x5650
    b896:	4441                	.insn	2, 0x4441
    b898:	2044                	.insn	2, 0x2044
    b89a:	6572                	.insn	2, 0x6572
    b89c:	746c7573          	csrrci	a0,0x746,24
    b8a0:	203a                	.insn	2, 0x203a
    b8a2:	6425                	.insn	2, 0x6425
    b8a4:	2520                	.insn	2, 0x2520
    b8a6:	2064                	.insn	2, 0x2064
    b8a8:	6425                	.insn	2, 0x6425
    b8aa:	2520                	.insn	2, 0x2520
    b8ac:	2064                	.insn	2, 0x2064
    b8ae:	6425202b          	.insn	4, 0x6425202b
    b8b2:	2520                	.insn	2, 0x2520
    b8b4:	2064                	.insn	2, 0x2064
    b8b6:	6425                	.insn	2, 0x6425
    b8b8:	2520                	.insn	2, 0x2520
    b8ba:	2064                	.insn	2, 0x2064
    b8bc:	203d                	.insn	2, 0x203d
    b8be:	6425                	.insn	2, 0x6425
    b8c0:	2520                	.insn	2, 0x2520
    b8c2:	2064                	.insn	2, 0x2064
    b8c4:	6425                	.insn	2, 0x6425
    b8c6:	2520                	.insn	2, 0x2520
    b8c8:	0a64                	.insn	2, 0x0a64
    b8ca:	0000                	.insn	2, 0x0000
    b8cc:	5650                	.insn	2, 0x5650
    b8ce:	554d                	.insn	2, 0x554d
    b8d0:	204c                	.insn	2, 0x204c
    b8d2:	6572                	.insn	2, 0x6572
    b8d4:	746c7573          	csrrci	a0,0x746,24
    b8d8:	203a                	.insn	2, 0x203a
    b8da:	6425                	.insn	2, 0x6425
    b8dc:	2a20                	.insn	2, 0x2a20
    b8de:	2520                	.insn	2, 0x2520
    b8e0:	2064                	.insn	2, 0x2064
    b8e2:	6425202b          	.insn	4, 0x6425202b
    b8e6:	2a20                	.insn	2, 0x2a20
    b8e8:	2520                	.insn	2, 0x2520
    b8ea:	2064                	.insn	2, 0x2064
    b8ec:	203d                	.insn	2, 0x203d
    b8ee:	6425                	.insn	2, 0x6425
    b8f0:	2520                	.insn	2, 0x2520
    b8f2:	0a64                	.insn	2, 0x0a64
    b8f4:	0000                	.insn	2, 0x0000
    b8f6:	0000                	.insn	2, 0x0000
    b8f8:	5650                	.insn	2, 0x5650
    b8fa:	554d                	.insn	2, 0x554d
    b8fc:	5f4c                	.insn	2, 0x5f4c
    b8fe:	5055                	.insn	2, 0x5055
    b900:	4550                	.insn	2, 0x4550
    b902:	2052                	.insn	2, 0x2052
    b904:	6572                	.insn	2, 0x6572
    b906:	746c7573          	csrrci	a0,0x746,24
    b90a:	203a                	.insn	2, 0x203a
    b90c:	6425                	.insn	2, 0x6425
    b90e:	2a20                	.insn	2, 0x2a20
    b910:	2520                	.insn	2, 0x2520
    b912:	2064                	.insn	2, 0x2064
    b914:	6425202b          	.insn	4, 0x6425202b
    b918:	2a20                	.insn	2, 0x2a20
    b91a:	2520                	.insn	2, 0x2520
    b91c:	2064                	.insn	2, 0x2064
    b91e:	203d                	.insn	2, 0x203d
    b920:	6425                	.insn	2, 0x6425
    b922:	2520                	.insn	2, 0x2520
    b924:	0a64                	.insn	2, 0x0a64
    b926:	0000                	.insn	2, 0x0000
    b928:	5650                	.insn	2, 0x5650
    b92a:	414d                	.insn	2, 0x414d
    b92c:	65722043          	.insn	4, 0x65722043
    b930:	746c7573          	csrrci	a0,0x746,24
    b934:	203a                	.insn	2, 0x203a
    b936:	6425                	.insn	2, 0x6425
    b938:	2a20                	.insn	2, 0x2a20
    b93a:	2520                	.insn	2, 0x2520
    b93c:	2064                	.insn	2, 0x2064
    b93e:	6425202b          	.insn	4, 0x6425202b
    b942:	2a20                	.insn	2, 0x2a20
    b944:	2520                	.insn	2, 0x2520
    b946:	2064                	.insn	2, 0x2064
    b948:	6425202b          	.insn	4, 0x6425202b
    b94c:	2a20                	.insn	2, 0x2a20
    b94e:	2520                	.insn	2, 0x2520
    b950:	2064                	.insn	2, 0x2064
    b952:	6425202b          	.insn	4, 0x6425202b
    b956:	2a20                	.insn	2, 0x2a20
    b958:	2520                	.insn	2, 0x2520
    b95a:	2064                	.insn	2, 0x2064
    b95c:	203d                	.insn	2, 0x203d
    b95e:	6425                	.insn	2, 0x6425
    b960:	000a                	.insn	2, 0x000a
    b962:	0000                	.insn	2, 0x0000
    b964:	6e65                	.insn	2, 0x6e65
    b966:	3a64                	.insn	2, 0x3a64
    b968:	7020                	.insn	2, 0x7020
    b96a:	6176                	.insn	2, 0x6176
    b96c:	6464                	.insn	2, 0x6464
    b96e:	7420                	.insn	2, 0x7420
    b970:	7365                	.insn	2, 0x7365
    b972:	0a74                	.insn	2, 0x0a74
    b974:	0000                	.insn	2, 0x0000
    b976:	0000                	.insn	2, 0x0000
    b978:	5650                	.insn	2, 0x5650
    b97a:	414d                	.insn	2, 0x414d
    b97c:	78652043          	.insn	4, 0x78652043
    b980:	6361                	.insn	2, 0x6361
    b982:	2074                	.insn	2, 0x2074
    b984:	6572                	.insn	2, 0x6572
    b986:	746c7573          	csrrci	a0,0x746,24
    b98a:	203a                	.insn	2, 0x203a
    b98c:	6425                	.insn	2, 0x6425
    b98e:	000a                	.insn	2, 0x000a
    b990:	6e28                	.insn	2, 0x6e28
    b992:	6c75                	.insn	2, 0x6c75
    b994:	296c                	.insn	2, 0x296c
    b996:	0000                	.insn	2, 0x0000
    b998:	7254                	.insn	2, 0x7254
    b99a:	7061                	.insn	2, 0x7061
    b99c:	6f20                	.insn	2, 0x6f20
    b99e:	72756363          	bltu	a0,t2,c0c4 <tdat4+0x1d>
    b9a2:	6572                	.insn	2, 0x6572
    b9a4:	2164                	.insn	2, 0x2164
    b9a6:	000a                	.insn	2, 0x000a
    b9a8:	636d                	.insn	2, 0x636d
    b9aa:	7561                	.insn	2, 0x7561
    b9ac:	203a6573          	csrrsi	a0,0x203,20
    b9b0:	0000                	.insn	2, 0x0000
    b9b2:	0000                	.insn	2, 0x0000
    b9b4:	000a                	.insn	2, 0x000a
    b9b6:	0000                	.insn	2, 0x0000
    b9b8:	6c49                	.insn	2, 0x6c49
    b9ba:	656c                	.insn	2, 0x656c
    b9bc:	206c6167          	.insn	4, 0x206c6167
    b9c0:	6e69                	.insn	2, 0x6e69
    b9c2:	75727473          	csrrci	s0,mseccfgh,4
    b9c6:	6f697463          	bgeu	s2,s6,c0ae <tdat4+0x7>
    b9ca:	206e                	.insn	2, 0x206e
    b9cc:	7274                	.insn	2, 0x7274
    b9ce:	7061                	.insn	2, 0x7061
    b9d0:	6420                	.insn	2, 0x6420
    b9d2:	7465                	.insn	2, 0x7465
    b9d4:	6365                	.insn	2, 0x6365
    b9d6:	6574                	.insn	2, 0x6574
    b9d8:	2e64                	.insn	2, 0x2e64
    b9da:	000a                	.insn	2, 0x000a
    b9dc:	4345                	.insn	2, 0x4345
    b9de:	4c41                	.insn	2, 0x4c41
    b9e0:	204c                	.insn	2, 0x204c
    b9e2:	6564                	.insn	2, 0x6564
    b9e4:	6574                	.insn	2, 0x6574
    b9e6:	64657463          	bgeu	a0,t1,c02e <digits.0+0x41a>
    b9ea:	0a2e                	.insn	2, 0x0a2e
    b9ec:	0000                	.insn	2, 0x0000
    b9ee:	0000                	.insn	2, 0x0000
    b9f0:	6954                	.insn	2, 0x6954
    b9f2:	656d                	.insn	2, 0x656d
    b9f4:	2072                	.insn	2, 0x2072
    b9f6:	6e69                	.insn	2, 0x6e69
    b9f8:	6574                	.insn	2, 0x6574
    b9fa:	7272                	.insn	2, 0x7272
    b9fc:	7075                	.insn	2, 0x7075
    b9fe:	2074                	.insn	2, 0x2074
    ba00:	6564                	.insn	2, 0x6564
    ba02:	6574                	.insn	2, 0x6574
    ba04:	64657463          	bgeu	a0,t1,c04c <digits.0+0x438>
    ba08:	0a2e                	.insn	2, 0x0a2e
    ba0a:	0000                	.insn	2, 0x0000
    ba0c:	6e55                	.insn	2, 0x6e55
    ba0e:	776f6e6b          	.insn	4, 0x776f6e6b
    ba12:	206e                	.insn	2, 0x206e
    ba14:	7274                	.insn	2, 0x7274
    ba16:	7061                	.insn	2, 0x7061
    ba18:	6320                	.insn	2, 0x6320
    ba1a:	7561                	.insn	2, 0x7561
    ba1c:	0a2e6573          	csrrsi	a0,0xa2,28
    ba20:	0000                	.insn	2, 0x0000
	...

0000ba24 <main>:
    ba24:	0000c537          	lui	a0,0xc
    ba28:	fd010113          	addi	sp,sp,-48
    ba2c:	84850513          	addi	a0,a0,-1976 # b848 <pass+0x1a4>
    ba30:	02112623          	sw	ra,44(sp)
    ba34:	02812423          	sw	s0,40(sp)
    ba38:	d61f40ef          	jal	798 <puts>
    ba3c:	a11f40ef          	jal	44c <csr_test>
    ba40:	ea8f50ef          	jal	10e8 <init_trap>
    ba44:	e4cf40ef          	jal	90 <insn_tests>
    ba48:	0000c537          	lui	a0,0xc
    ba4c:	86050513          	addi	a0,a0,-1952 # b860 <pass+0x1bc>
    ba50:	d49f40ef          	jal	798 <puts>
    ba54:	0000c537          	lui	a0,0xc
    ba58:	88050513          	addi	a0,a0,-1920 # b880 <pass+0x1dc>
    ba5c:	d3df40ef          	jal	798 <puts>
    ba60:	0a1425b7          	lui	a1,0xa142
    ba64:	01020537          	lui	a0,0x1020
    ba68:	e2858593          	addi	a1,a1,-472 # a141e28 <end+0xa13572b>
    ba6c:	30450513          	addi	a0,a0,772 # 1020304 <end+0x1013c07>
    ba70:	f4cf50ef          	jal	11bc <pvadd>
    ba74:	0ff57693          	zext.b	a3,a0
    ba78:	40855713          	srai	a4,a0,0x8
    ba7c:	41055793          	srai	a5,a0,0x10
    ba80:	01855513          	srli	a0,a0,0x18
    ba84:	02800413          	li	s0,40
    ba88:	00a12223          	sw	a0,4(sp)
    ba8c:	0ff77713          	zext.b	a4,a4
    ba90:	0ff7f793          	zext.b	a5,a5
    ba94:	0000c537          	lui	a0,0xc
    ba98:	01e00893          	li	a7,30
    ba9c:	00d12823          	sw	a3,16(sp)
    baa0:	00e12623          	sw	a4,12(sp)
    baa4:	00f12423          	sw	a5,8(sp)
    baa8:	00812023          	sw	s0,0(sp)
    baac:	01400813          	li	a6,20
    bab0:	00a00793          	li	a5,10
    bab4:	00400713          	li	a4,4
    bab8:	00300693          	li	a3,3
    babc:	00200613          	li	a2,2
    bac0:	00100593          	li	a1,1
    bac4:	89450513          	addi	a0,a0,-1900 # b894 <pass+0x1f0>
    bac8:	82cf50ef          	jal	af4 <printf>
    bacc:	0a1425b7          	lui	a1,0xa142
    bad0:	01020537          	lui	a0,0x1020
    bad4:	e2858593          	addi	a1,a1,-472 # a141e28 <end+0xa13572b>
    bad8:	30450513          	addi	a0,a0,772 # 1020304 <end+0x1013c07>
    badc:	ee8f50ef          	jal	11c4 <pvmul>
    bae0:	01051813          	slli	a6,a0,0x10
    bae4:	0000c6b7          	lui	a3,0xc
    bae8:	00040713          	mv	a4,s0
    baec:	01055793          	srli	a5,a0,0x10
    baf0:	01085813          	srli	a6,a6,0x10
    baf4:	01e00613          	li	a2,30
    baf8:	8cc68513          	addi	a0,a3,-1844 # b8cc <pass+0x228>
    bafc:	00300593          	li	a1,3
    bb00:	00400693          	li	a3,4
    bb04:	ff1f40ef          	jal	af4 <printf>
    bb08:	0a1425b7          	lui	a1,0xa142
    bb0c:	01020537          	lui	a0,0x1020
    bb10:	e2858593          	addi	a1,a1,-472 # a141e28 <end+0xa13572b>
    bb14:	30450513          	addi	a0,a0,772 # 1020304 <end+0x1013c07>
    bb18:	eb4f50ef          	jal	11cc <pvmul_upper>
    bb1c:	01051813          	slli	a6,a0,0x10
    bb20:	0000c737          	lui	a4,0xc
    bb24:	01055793          	srli	a5,a0,0x10
    bb28:	01085813          	srli	a6,a6,0x10
    bb2c:	00200693          	li	a3,2
    bb30:	00a00613          	li	a2,10
    bb34:	8f870513          	addi	a0,a4,-1800 # b8f8 <pass+0x254>
    bb38:	00100593          	li	a1,1
    bb3c:	01400713          	li	a4,20
    bb40:	fb5f40ef          	jal	af4 <printf>
    bb44:	0a1425b7          	lui	a1,0xa142
    bb48:	01020537          	lui	a0,0x1020
    bb4c:	e2858593          	addi	a1,a1,-472 # a141e28 <end+0xa13572b>
    bb50:	30450513          	addi	a0,a0,772 # 1020304 <end+0x1013c07>
    bb54:	e80f50ef          	jal	11d4 <pvmac>
    bb58:	00a12223          	sw	a0,4(sp)
    bb5c:	0000c537          	lui	a0,0xc
    bb60:	00400893          	li	a7,4
    bb64:	01e00813          	li	a6,30
    bb68:	00300793          	li	a5,3
    bb6c:	01400713          	li	a4,20
    bb70:	00200693          	li	a3,2
    bb74:	00a00613          	li	a2,10
    bb78:	00812023          	sw	s0,0(sp)
    bb7c:	00100593          	li	a1,1
    bb80:	92850513          	addi	a0,a0,-1752 # b928 <pass+0x284>
    bb84:	f71f40ef          	jal	af4 <printf>
    bb88:	0000c537          	lui	a0,0xc
    bb8c:	96450513          	addi	a0,a0,-1692 # b964 <pass+0x2c0>
    bb90:	c09f40ef          	jal	798 <puts>
    bb94:	0000c537          	lui	a0,0xc
    bb98:	0a000593          	li	a1,160
    bb9c:	97850513          	addi	a0,a0,-1672 # b978 <pass+0x2d4>
    bba0:	f55f40ef          	jal	af4 <printf>
    bba4:	fd0f50ef          	jal	1374 <ecall>
    bba8:	e34f50ef          	jal	11dc <illegal_instruction>
    bbac:	e78f50ef          	jal	1224 <ebreak>
    bbb0:	02c12083          	lw	ra,44(sp)
    bbb4:	02812403          	lw	s0,40(sp)
    bbb8:	00000513          	li	a0,0
    bbbc:	03010113          	addi	sp,sp,48
    bbc0:	00008067          	ret
    bbc4:	3a434347          	.insn	4, 0x3a434347
    bbc8:	2820                	.insn	2, 0x2820
    bbca:	33623167          	.insn	4, 0x33623167
    bbce:	3630                	.insn	2, 0x3630
    bbd0:	3330                	.insn	2, 0x3330
    bbd2:	6139                	.insn	2, 0x6139
    bbd4:	2029                	.insn	2, 0x2029
    bbd6:	3531                	.insn	2, 0x3531
    bbd8:	312e                	.insn	2, 0x312e
    bbda:	302e                	.insn	2, 0x302e
    bbdc:	4100                	.insn	2, 0x4100
    bbde:	0036                	.insn	2, 0x0036
    bbe0:	0000                	.insn	2, 0x0000
    bbe2:	6972                	.insn	2, 0x6972
    bbe4:	00766373          	csrrsi	t1,0x7,12
    bbe8:	2c01                	.insn	2, 0x2c01
    bbea:	0000                	.insn	2, 0x0000
    bbec:	0400                	.insn	2, 0x0400
    bbee:	0510                	.insn	2, 0x0510
    bbf0:	7672                	.insn	2, 0x7672
    bbf2:	32693233          	.insn	4, 0x32693233
    bbf6:	3170                	.insn	2, 0x3170
    bbf8:	6d5f 7032 5f30      	.insn	6, 0x5f3070326d5f
    bbfe:	697a                	.insn	2, 0x697a
    bc00:	32727363          	bgeu	tp,t2,bf26 <digits.0+0x312>
    bc04:	3070                	.insn	2, 0x3070
    bc06:	7a5f 6d6d 6c75      	.insn	6, 0x6c756d6d7a5f
    bc0c:	7031                	.insn	2, 0x7031
    bc0e:	0030                	.insn	2, 0x0030
    bc10:	0108                	.insn	2, 0x0108
    bc12:	0b0a                	.insn	2, 0x0b0a

0000bc14 <digits.0>:
    bc14:	3130 3332 3534 3736 3938 4241 4443 4645     0123456789ABCDEF
    bc24:	4100 0032 0000 6972 6373 0076 2801 0000     .A2...riscv..(..
    bc34:	0400 0510 7672 3233 3269 3170 6d5f 7032     ....rv32i2p1_m2p
    bc44:	5f30 697a 7363 3272 3070 7a5f 6d6d 6c75     0_zicsr2p0_zmmul
    bc54:	7031 0030 3641 0000 7200 7369 7663 0100     1p0.A6...riscv..
    bc64:	002c 0000 1004 7205 3376 6932 7032 5f31     ,......rv32i2p1_
    bc74:	326d 3070 7a5f 6369 7273 7032 5f30 6d7a     m2p0_zicsr2p0_zm
    bc84:	756d 316c 3070 0800 0a01 410b 0034 0000     mul1p0.....A4...
    bc94:	6972 6373 0076 2a01 0000 0500 7672 3233     riscv..*....rv32
    bca4:	3269 3170 6d5f 7032 5f30 697a 7363 3272     i2p1_m2p0_zicsr2
    bcb4:	3070 7a5f 6d6d 6c75 7031 0030 0108 0b0a     p0_zmmul1p0.....
    bcc4:	3041 0000 7200 7369 7663 0100 0026 0000     A0...riscv..&...
    bcd4:	7205 3376 6932 7032 5f31 326d 3070 7a5f     .rv32i2p1_m2p0_z
    bce4:	6369 7273 7032 5f30 6d7a 756d 316c 3070     icsr2p0_zmmul1p0
    bcf4:	4100 0034 0000 6972 6373 0076 2a01 0000     .A4...riscv..*..
    bd04:	0500 7672 3233 3269 3170 6d5f 7032 5f30     ..rv32i2p1_m2p0_
    bd14:	697a 7363 3272 3070 7a5f 6d6d 6c75 7031     zicsr2p0_zmmul1p
    bd24:	0030 0108 0b0a 0000 3041 0000 7200 7369     0.......A0...ris
    bd34:	7663 0100 0026 0000 7205 3376 6932 7032     cv..&....rv32i2p
    bd44:	5f31 326d 3070 7a5f 6369 7273 7032 5f30     1_m2p0_zicsr2p0_
    bd54:	6d7a 756d 316c 3070 0000 0000 3041 0000     zmmul1p0....A0..
    bd64:	7200 7369 7663 0100 0026 0000 7205 3376     .riscv..&....rv3
    bd74:	6932 7032 5f31 326d 3070 7a5f 6369 7273     2i2p1_m2p0_zicsr
    bd84:	7032 5f30 6d7a 756d 316c 3070 0000 0000     2p0_zmmul1p0....
    bd94:	3041 0000 7200 7369 7663 0100 0026 0000     A0...riscv..&...
    bda4:	7205 3376 6932 7032 5f31 326d 3070 7a5f     .rv32i2p1_m2p0_z
    bdb4:	6369 7273 7032 5f30 6d7a 756d 316c 3070     icsr2p0_zmmul1p0
    bdc4:	0000 0000 3041 0000 7200 7369 7663 0100     ....A0...riscv..
    bdd4:	0026 0000 7205 3376 6932 7032 5f31 326d     &....rv32i2p1_m2
    bde4:	3070 7a5f 6369 7273 7032 5f30 6d7a 756d     p0_zicsr2p0_zmmu
    bdf4:	316c 3070 0000 0000 3041 0000 7200 7369     l1p0....A0...ris
    be04:	7663 0100 0026 0000 7205 3376 6932 7032     cv..&....rv32i2p
    be14:	5f31 326d 3070 7a5f 6369 7273 7032 5f30     1_m2p0_zicsr2p0_
    be24:	6d7a 756d 316c 3070 0000 0000 3041 0000     zmmul1p0....A0..
    be34:	7200 7369 7663 0100 0026 0000 7205 3376     .riscv..&....rv3
    be44:	6932 7032 5f31 326d 3070 7a5f 6369 7273     2i2p1_m2p0_zicsr
    be54:	7032 5f30 6d7a 756d 316c 3070 0000 0000     2p0_zmmul1p0....
    be64:	3041 0000 7200 7369 7663 0100 0026 0000     A0...riscv..&...
    be74:	7205 3376 6932 7032 5f31 326d 3070 7a5f     .rv32i2p1_m2p0_z
    be84:	6369 7273 7032 5f30 6d7a 756d 316c 3070     icsr2p0_zmmul1p0
    be94:	0000 0000 3041 0000 7200 7369 7663 0100     ....A0...riscv..
    bea4:	0026 0000 7205 3376 6932 7032 5f31 326d     &....rv32i2p1_m2
    beb4:	3070 7a5f 6369 7273 7032 5f30 6d7a 756d     p0_zicsr2p0_zmmu
    bec4:	316c 3070 0000 0000 3041 0000 7200 7369     l1p0....A0...ris
    bed4:	7663 0100 0026 0000 7205 3376 6932 7032     cv..&....rv32i2p
    bee4:	5f31 326d 3070 7a5f 6369 7273 7032 5f30     1_m2p0_zicsr2p0_
    bef4:	6d7a 756d 316c 3070 0000 0000 3041 0000     zmmul1p0....A0..
    bf04:	7200 7369 7663 0100 0026 0000 7205 3376     .riscv..&....rv3
    bf14:	6932 7032 5f31 326d 3070 7a5f 6369 7273     2i2p1_m2p0_zicsr
    bf24:	7032 5f30 6d7a 756d 316c 3070 0000 0000     2p0_zmmul1p0....
    bf34:	3041 0000 7200 7369 7663 0100 0026 0000     A0...riscv..&...
    bf44:	7205 3376 6932 7032 5f31 326d 3070 7a5f     .rv32i2p1_m2p0_z
    bf54:	6369 7273 7032 5f30 6d7a 756d 316c 3070     icsr2p0_zmmul1p0
    bf64:	0000 0000 3041 0000 7200 7369 7663 0100     ....A0...riscv..
    bf74:	0026 0000 7205 3376 6932 7032 5f31 326d     &....rv32i2p1_m2
    bf84:	3070 7a5f 6369 7273 7032 5f30 6d7a 756d     p0_zicsr2p0_zmmu
    bf94:	316c 3070 0000 0000 3041 0000 7200 7369     l1p0....A0...ris
    bfa4:	7663 0100 0026 0000 7205 3376 6932 7032     cv..&....rv32i2p
    bfb4:	5f31 326d 3070 7a5f 6369 7273 7032 5f30     1_m2p0_zicsr2p0_
    bfc4:	6d7a 756d 316c 3070 0000 0000 3041 0000     zmmul1p0....A0..
    bfd4:	7200 7369 7663 0100 0026 0000 7205 3376     .riscv..&....rv3
    bfe4:	6932 7032 5f31 326d 3070 7a5f 6369 7273     2i2p1_m2p0_zicsr
    bff4:	7032 5f30 6d7a 756d 316c 3070 0000 0000     2p0_zmmul1p0....
    c004:	3041 0000 7200 7369 7663 0100 0026 0000     A0...riscv..&...
    c014:	7205 3376 6932 7032 5f31 326d 3070 7a5f     .rv32i2p1_m2p0_z
    c024:	6369 7273 7032 5f30 6d7a 756d 316c 3070     icsr2p0_zmmul1p0
    c034:	0000 0000 3041 0000 7200 7369 7663 0100     ....A0...riscv..
    c044:	0026 0000 7205 3376 6932 7032 5f31 326d     &....rv32i2p1_m2
    c054:	3070 7a5f 6369 7273 7032 5f30 6d7a 756d     p0_zicsr2p0_zmmu
    c064:	316c 3070 0000 0000                         l1p0....

0000c06c <tdat>:
    c06c:	ff                	.byte	0xff

0000c06d <tdat2>:
	...

0000c06e <tdat3>:
    c06e:	f0                	.byte	0xf0

0000c06f <tdat4>:
    c06f:	0030410f          	.insn	4, 0x0030410f
    c073:	0000                	.insn	2, 0x0000
    c075:	6972                	.insn	2, 0x6972
    c077:	00766373          	csrrsi	t1,0x7,12
    c07b:	2601                	.insn	2, 0x2601
    c07d:	0000                	.insn	2, 0x0000
    c07f:	0500                	.insn	2, 0x0500
    c081:	7672                	.insn	2, 0x7672
    c083:	32693233          	.insn	4, 0x32693233
    c087:	3170                	.insn	2, 0x3170
    c089:	6d5f 7032 5f30      	.insn	6, 0x5f3070326d5f
    c08f:	697a                	.insn	2, 0x697a
    c091:	32727363          	bgeu	tp,t2,c3b7 <tdat8>
    c095:	3070                	.insn	2, 0x3070
    c097:	7a5f 6d6d 6c75      	.insn	6, 0x6c756d6d7a5f
    c09d:	7031                	.insn	2, 0x7031
    c09f:	0030                	.insn	2, 0x0030
    c0a1:	0000                	.insn	2, 0x0000
	...

0000c0a4 <tdat>:
    c0a4:	ff                	.byte	0xff

0000c0a5 <tdat2>:
	...

0000c0a6 <tdat3>:
    c0a6:	f0                	.byte	0xf0

0000c0a7 <tdat4>:
    c0a7:	0030410f          	.insn	4, 0x0030410f
    c0ab:	0000                	.insn	2, 0x0000
    c0ad:	6972                	.insn	2, 0x6972
    c0af:	00766373          	csrrsi	t1,0x7,12
    c0b3:	2601                	.insn	2, 0x2601
    c0b5:	0000                	.insn	2, 0x0000
    c0b7:	0500                	.insn	2, 0x0500
    c0b9:	7672                	.insn	2, 0x7672
    c0bb:	32693233          	.insn	4, 0x32693233
    c0bf:	3170                	.insn	2, 0x3170
    c0c1:	6d5f 7032 5f30      	.insn	6, 0x5f3070326d5f
    c0c7:	697a                	.insn	2, 0x697a
    c0c9:	32727363          	bgeu	tp,t2,c3ef <tdat2+0x1>
    c0cd:	3070                	.insn	2, 0x3070
    c0cf:	7a5f 6d6d 6c75      	.insn	6, 0x6c756d6d7a5f
    c0d5:	7031                	.insn	2, 0x7031
    c0d7:	0030                	.insn	2, 0x0030
    c0d9:	0000                	.insn	2, 0x0000
	...

0000c0dc <tdat>:
    c0dc:	00ff                	.short	0x00ff

0000c0de <tdat2>:
    c0de:	ff00                	.insn	2, 0xff00

0000c0e0 <tdat3>:
    c0e0:	0ff0                	.insn	2, 0x0ff0

0000c0e2 <tdat4>:
    c0e2:	3041f00f          	.insn	4, 0x3041f00f
    c0e6:	0000                	.insn	2, 0x0000
    c0e8:	7200                	.insn	2, 0x7200
    c0ea:	7369                	.insn	2, 0x7369
    c0ec:	01007663          	bgeu	zero,a6,c0f8 <tdat4+0x16>
    c0f0:	0026                	.insn	2, 0x0026
    c0f2:	0000                	.insn	2, 0x0000
    c0f4:	7205                	.insn	2, 0x7205
    c0f6:	3376                	.insn	2, 0x3376
    c0f8:	6932                	.insn	2, 0x6932
    c0fa:	7032                	.insn	2, 0x7032
    c0fc:	5f31                	.insn	2, 0x5f31
    c0fe:	326d                	.insn	2, 0x326d
    c100:	3070                	.insn	2, 0x3070
    c102:	7a5f 6369 7273      	.insn	6, 0x727363697a5f
    c108:	7032                	.insn	2, 0x7032
    c10a:	5f30                	.insn	2, 0x5f30
    c10c:	6d7a                	.insn	2, 0x6d7a
    c10e:	756d                	.insn	2, 0x756d
    c110:	316c                	.insn	2, 0x316c
    c112:	3070                	.insn	2, 0x3070
    c114:	0000                	.insn	2, 0x0000
	...

0000c118 <tdat>:
    c118:	00ff                	.short	0x00ff

0000c11a <tdat2>:
    c11a:	ff00                	.insn	2, 0xff00

0000c11c <tdat3>:
    c11c:	0ff0                	.insn	2, 0x0ff0

0000c11e <tdat4>:
    c11e:	3041f00f          	.insn	4, 0x3041f00f
    c122:	0000                	.insn	2, 0x0000
    c124:	7200                	.insn	2, 0x7200
    c126:	7369                	.insn	2, 0x7369
    c128:	01007663          	bgeu	zero,a6,c134 <tdat4+0x16>
    c12c:	0026                	.insn	2, 0x0026
    c12e:	0000                	.insn	2, 0x0000
    c130:	7205                	.insn	2, 0x7205
    c132:	3376                	.insn	2, 0x3376
    c134:	6932                	.insn	2, 0x6932
    c136:	7032                	.insn	2, 0x7032
    c138:	5f31                	.insn	2, 0x5f31
    c13a:	326d                	.insn	2, 0x326d
    c13c:	3070                	.insn	2, 0x3070
    c13e:	7a5f 6369 7273      	.insn	6, 0x727363697a5f
    c144:	7032                	.insn	2, 0x7032
    c146:	5f30                	.insn	2, 0x5f30
    c148:	6d7a                	.insn	2, 0x6d7a
    c14a:	756d                	.insn	2, 0x756d
    c14c:	316c                	.insn	2, 0x316c
    c14e:	3070                	.insn	2, 0x3070
    c150:	0000                	.insn	2, 0x0000
    c152:	0000                	.insn	2, 0x0000
    c154:	3041                	.insn	2, 0x3041
    c156:	0000                	.insn	2, 0x0000
    c158:	7200                	.insn	2, 0x7200
    c15a:	7369                	.insn	2, 0x7369
    c15c:	01007663          	bgeu	zero,a6,c168 <tdat4+0x4a>
    c160:	0026                	.insn	2, 0x0026
    c162:	0000                	.insn	2, 0x0000
    c164:	7205                	.insn	2, 0x7205
    c166:	3376                	.insn	2, 0x3376
    c168:	6932                	.insn	2, 0x6932
    c16a:	7032                	.insn	2, 0x7032
    c16c:	5f31                	.insn	2, 0x5f31
    c16e:	326d                	.insn	2, 0x326d
    c170:	3070                	.insn	2, 0x3070
    c172:	7a5f 6369 7273      	.insn	6, 0x727363697a5f
    c178:	7032                	.insn	2, 0x7032
    c17a:	5f30                	.insn	2, 0x5f30
    c17c:	6d7a                	.insn	2, 0x6d7a
    c17e:	756d                	.insn	2, 0x756d
    c180:	316c                	.insn	2, 0x316c
    c182:	3070                	.insn	2, 0x3070
    c184:	0000                	.insn	2, 0x0000
	...

0000c188 <tdat>:
    c188:	00ff00ff          	.word	0x00ff00ff

0000c18c <tdat2>:
    c18c:	ff00                	.insn	2, 0xff00
    c18e:	ff00                	.insn	2, 0xff00

0000c190 <tdat3>:
    c190:	0ff0                	.insn	2, 0x0ff0
    c192:	0ff0                	.insn	2, 0x0ff0

0000c194 <tdat4>:
    c194:	f00ff00f          	.insn	4, 0xf00ff00f
    c198:	3041                	.insn	2, 0x3041
    c19a:	0000                	.insn	2, 0x0000
    c19c:	7200                	.insn	2, 0x7200
    c19e:	7369                	.insn	2, 0x7369
    c1a0:	01007663          	bgeu	zero,a6,c1ac <tdat4+0x18>
    c1a4:	0026                	.insn	2, 0x0026
    c1a6:	0000                	.insn	2, 0x0000
    c1a8:	7205                	.insn	2, 0x7205
    c1aa:	3376                	.insn	2, 0x3376
    c1ac:	6932                	.insn	2, 0x6932
    c1ae:	7032                	.insn	2, 0x7032
    c1b0:	5f31                	.insn	2, 0x5f31
    c1b2:	326d                	.insn	2, 0x326d
    c1b4:	3070                	.insn	2, 0x3070
    c1b6:	7a5f 6369 7273      	.insn	6, 0x727363697a5f
    c1bc:	7032                	.insn	2, 0x7032
    c1be:	5f30                	.insn	2, 0x5f30
    c1c0:	6d7a                	.insn	2, 0x6d7a
    c1c2:	756d                	.insn	2, 0x756d
    c1c4:	316c                	.insn	2, 0x316c
    c1c6:	3070                	.insn	2, 0x3070
    c1c8:	0000                	.insn	2, 0x0000
    c1ca:	0000                	.insn	2, 0x0000
    c1cc:	3041                	.insn	2, 0x3041
    c1ce:	0000                	.insn	2, 0x0000
    c1d0:	7200                	.insn	2, 0x7200
    c1d2:	7369                	.insn	2, 0x7369
    c1d4:	01007663          	bgeu	zero,a6,c1e0 <tdat4+0x4c>
    c1d8:	0026                	.insn	2, 0x0026
    c1da:	0000                	.insn	2, 0x0000
    c1dc:	7205                	.insn	2, 0x7205
    c1de:	3376                	.insn	2, 0x3376
    c1e0:	6932                	.insn	2, 0x6932
    c1e2:	7032                	.insn	2, 0x7032
    c1e4:	5f31                	.insn	2, 0x5f31
    c1e6:	326d                	.insn	2, 0x326d
    c1e8:	3070                	.insn	2, 0x3070
    c1ea:	7a5f 6369 7273      	.insn	6, 0x727363697a5f
    c1f0:	7032                	.insn	2, 0x7032
    c1f2:	5f30                	.insn	2, 0x5f30
    c1f4:	6d7a                	.insn	2, 0x6d7a
    c1f6:	756d                	.insn	2, 0x756d
    c1f8:	316c                	.insn	2, 0x316c
    c1fa:	3070                	.insn	2, 0x3070
    c1fc:	0000                	.insn	2, 0x0000
    c1fe:	0000                	.insn	2, 0x0000
    c200:	3041                	.insn	2, 0x3041
    c202:	0000                	.insn	2, 0x0000
    c204:	7200                	.insn	2, 0x7200
    c206:	7369                	.insn	2, 0x7369
    c208:	01007663          	bgeu	zero,a6,c214 <tdat4+0x80>
    c20c:	0026                	.insn	2, 0x0026
    c20e:	0000                	.insn	2, 0x0000
    c210:	7205                	.insn	2, 0x7205
    c212:	3376                	.insn	2, 0x3376
    c214:	6932                	.insn	2, 0x6932
    c216:	7032                	.insn	2, 0x7032
    c218:	5f31                	.insn	2, 0x5f31
    c21a:	326d                	.insn	2, 0x326d
    c21c:	3070                	.insn	2, 0x3070
    c21e:	7a5f 6369 7273      	.insn	6, 0x727363697a5f
    c224:	7032                	.insn	2, 0x7032
    c226:	5f30                	.insn	2, 0x5f30
    c228:	6d7a                	.insn	2, 0x6d7a
    c22a:	756d                	.insn	2, 0x756d
    c22c:	316c                	.insn	2, 0x316c
    c22e:	3070                	.insn	2, 0x3070
    c230:	0000                	.insn	2, 0x0000
    c232:	0000                	.insn	2, 0x0000
    c234:	3041                	.insn	2, 0x3041
    c236:	0000                	.insn	2, 0x0000
    c238:	7200                	.insn	2, 0x7200
    c23a:	7369                	.insn	2, 0x7369
    c23c:	01007663          	bgeu	zero,a6,c248 <tdat4+0xb4>
    c240:	0026                	.insn	2, 0x0026
    c242:	0000                	.insn	2, 0x0000
    c244:	7205                	.insn	2, 0x7205
    c246:	3376                	.insn	2, 0x3376
    c248:	6932                	.insn	2, 0x6932
    c24a:	7032                	.insn	2, 0x7032
    c24c:	5f31                	.insn	2, 0x5f31
    c24e:	326d                	.insn	2, 0x326d
    c250:	3070                	.insn	2, 0x3070
    c252:	7a5f 6369 7273      	.insn	6, 0x727363697a5f
    c258:	7032                	.insn	2, 0x7032
    c25a:	5f30                	.insn	2, 0x5f30
    c25c:	6d7a                	.insn	2, 0x6d7a
    c25e:	756d                	.insn	2, 0x756d
    c260:	316c                	.insn	2, 0x316c
    c262:	3070                	.insn	2, 0x3070
    c264:	0000                	.insn	2, 0x0000
    c266:	0000                	.insn	2, 0x0000
    c268:	3041                	.insn	2, 0x3041
    c26a:	0000                	.insn	2, 0x0000
    c26c:	7200                	.insn	2, 0x7200
    c26e:	7369                	.insn	2, 0x7369
    c270:	01007663          	bgeu	zero,a6,c27c <tdat4+0xe8>
    c274:	0026                	.insn	2, 0x0026
    c276:	0000                	.insn	2, 0x0000
    c278:	7205                	.insn	2, 0x7205
    c27a:	3376                	.insn	2, 0x3376
    c27c:	6932                	.insn	2, 0x6932
    c27e:	7032                	.insn	2, 0x7032
    c280:	5f31                	.insn	2, 0x5f31
    c282:	326d                	.insn	2, 0x326d
    c284:	3070                	.insn	2, 0x3070
    c286:	7a5f 6369 7273      	.insn	6, 0x727363697a5f
    c28c:	7032                	.insn	2, 0x7032
    c28e:	5f30                	.insn	2, 0x5f30
    c290:	6d7a                	.insn	2, 0x6d7a
    c292:	756d                	.insn	2, 0x756d
    c294:	316c                	.insn	2, 0x316c
    c296:	3070                	.insn	2, 0x3070
    c298:	0000                	.insn	2, 0x0000
    c29a:	0000                	.insn	2, 0x0000
    c29c:	3041                	.insn	2, 0x3041
    c29e:	0000                	.insn	2, 0x0000
    c2a0:	7200                	.insn	2, 0x7200
    c2a2:	7369                	.insn	2, 0x7369
    c2a4:	01007663          	bgeu	zero,a6,c2b0 <tdat4+0x11c>
    c2a8:	0026                	.insn	2, 0x0026
    c2aa:	0000                	.insn	2, 0x0000
    c2ac:	7205                	.insn	2, 0x7205
    c2ae:	3376                	.insn	2, 0x3376
    c2b0:	6932                	.insn	2, 0x6932
    c2b2:	7032                	.insn	2, 0x7032
    c2b4:	5f31                	.insn	2, 0x5f31
    c2b6:	326d                	.insn	2, 0x326d
    c2b8:	3070                	.insn	2, 0x3070
    c2ba:	7a5f 6369 7273      	.insn	6, 0x727363697a5f
    c2c0:	7032                	.insn	2, 0x7032
    c2c2:	5f30                	.insn	2, 0x5f30
    c2c4:	6d7a                	.insn	2, 0x6d7a
    c2c6:	756d                	.insn	2, 0x756d
    c2c8:	316c                	.insn	2, 0x316c
    c2ca:	3070                	.insn	2, 0x3070
    c2cc:	0000                	.insn	2, 0x0000
    c2ce:	0000                	.insn	2, 0x0000
    c2d0:	3041                	.insn	2, 0x3041
    c2d2:	0000                	.insn	2, 0x0000
    c2d4:	7200                	.insn	2, 0x7200
    c2d6:	7369                	.insn	2, 0x7369
    c2d8:	01007663          	bgeu	zero,a6,c2e4 <tdat4+0x150>
    c2dc:	0026                	.insn	2, 0x0026
    c2de:	0000                	.insn	2, 0x0000
    c2e0:	7205                	.insn	2, 0x7205
    c2e2:	3376                	.insn	2, 0x3376
    c2e4:	6932                	.insn	2, 0x6932
    c2e6:	7032                	.insn	2, 0x7032
    c2e8:	5f31                	.insn	2, 0x5f31
    c2ea:	326d                	.insn	2, 0x326d
    c2ec:	3070                	.insn	2, 0x3070
    c2ee:	7a5f 6369 7273      	.insn	6, 0x727363697a5f
    c2f4:	7032                	.insn	2, 0x7032
    c2f6:	5f30                	.insn	2, 0x5f30
    c2f8:	6d7a                	.insn	2, 0x6d7a
    c2fa:	756d                	.insn	2, 0x756d
    c2fc:	316c                	.insn	2, 0x316c
    c2fe:	3070                	.insn	2, 0x3070
    c300:	0000                	.insn	2, 0x0000
	...

0000c304 <test_data>:
    c304:	deadbeef          	jal	t4,fffe78ee <end+0xfffdb1f1>
    c308:	babe                	.insn	2, 0xbabe
    c30a:	cafe                	.insn	2, 0xcafe
    c30c:	5678                	.insn	2, 0x5678
    c30e:	1234                	.insn	2, 0x1234
    c310:	4321                	.insn	2, 0x4321
    c312:	8765                	.insn	2, 0x8765
    c314:	3041                	.insn	2, 0x3041
    c316:	0000                	.insn	2, 0x0000
    c318:	7200                	.insn	2, 0x7200
    c31a:	7369                	.insn	2, 0x7369
    c31c:	01007663          	bgeu	zero,a6,c328 <test_data+0x24>
    c320:	0026                	.insn	2, 0x0026
    c322:	0000                	.insn	2, 0x0000
    c324:	7205                	.insn	2, 0x7205
    c326:	3376                	.insn	2, 0x3376
    c328:	6932                	.insn	2, 0x6932
    c32a:	7032                	.insn	2, 0x7032
    c32c:	5f31                	.insn	2, 0x5f31
    c32e:	326d                	.insn	2, 0x326d
    c330:	3070                	.insn	2, 0x3070
    c332:	7a5f 6369 7273      	.insn	6, 0x727363697a5f
    c338:	7032                	.insn	2, 0x7032
    c33a:	5f30                	.insn	2, 0x5f30
    c33c:	6d7a                	.insn	2, 0x6d7a
    c33e:	756d                	.insn	2, 0x756d
    c340:	316c                	.insn	2, 0x316c
    c342:	3070                	.insn	2, 0x3070
    c344:	0000                	.insn	2, 0x0000
    c346:	0000                	.insn	2, 0x0000
    c348:	3041                	.insn	2, 0x3041
    c34a:	0000                	.insn	2, 0x0000
    c34c:	7200                	.insn	2, 0x7200
    c34e:	7369                	.insn	2, 0x7369
    c350:	01007663          	bgeu	zero,a6,c35c <test_data+0x58>
    c354:	0026                	.insn	2, 0x0026
    c356:	0000                	.insn	2, 0x0000
    c358:	7205                	.insn	2, 0x7205
    c35a:	3376                	.insn	2, 0x3376
    c35c:	6932                	.insn	2, 0x6932
    c35e:	7032                	.insn	2, 0x7032
    c360:	5f31                	.insn	2, 0x5f31
    c362:	326d                	.insn	2, 0x326d
    c364:	3070                	.insn	2, 0x3070
    c366:	7a5f 6369 7273      	.insn	6, 0x727363697a5f
    c36c:	7032                	.insn	2, 0x7032
    c36e:	5f30                	.insn	2, 0x5f30
    c370:	6d7a                	.insn	2, 0x6d7a
    c372:	756d                	.insn	2, 0x756d
    c374:	316c                	.insn	2, 0x316c
    c376:	3070                	.insn	2, 0x3070
    c378:	0000                	.insn	2, 0x0000
    c37a:	0000                	.insn	2, 0x0000
    c37c:	3041                	.insn	2, 0x3041
    c37e:	0000                	.insn	2, 0x0000
    c380:	7200                	.insn	2, 0x7200
    c382:	7369                	.insn	2, 0x7369
    c384:	01007663          	bgeu	zero,a6,c390 <test_data+0x8c>
    c388:	0026                	.insn	2, 0x0026
    c38a:	0000                	.insn	2, 0x0000
    c38c:	7205                	.insn	2, 0x7205
    c38e:	3376                	.insn	2, 0x3376
    c390:	6932                	.insn	2, 0x6932
    c392:	7032                	.insn	2, 0x7032
    c394:	5f31                	.insn	2, 0x5f31
    c396:	326d                	.insn	2, 0x326d
    c398:	3070                	.insn	2, 0x3070
    c39a:	7a5f 6369 7273      	.insn	6, 0x727363697a5f
    c3a0:	7032                	.insn	2, 0x7032
    c3a2:	5f30                	.insn	2, 0x5f30
    c3a4:	6d7a                	.insn	2, 0x6d7a
    c3a6:	756d                	.insn	2, 0x756d
    c3a8:	316c                	.insn	2, 0x316c
    c3aa:	3070                	.insn	2, 0x3070
    c3ac:	0000                	.insn	2, 0x0000
	...

0000c3b0 <tdat>:
    c3b0:	ef                	.byte	0xef

0000c3b1 <tdat2>:
    c3b1:	ef                	.byte	0xef

0000c3b2 <tdat3>:
    c3b2:	ef                	.byte	0xef

0000c3b3 <tdat4>:
    c3b3:	ef                	.byte	0xef

0000c3b4 <tdat5>:
    c3b4:	ef                	.byte	0xef

0000c3b5 <tdat6>:
    c3b5:	ef                	.byte	0xef

0000c3b6 <tdat7>:
    c3b6:	ef                	.byte	0xef

0000c3b7 <tdat8>:
    c3b7:	ef                	.byte	0xef

0000c3b8 <tdat9>:
    c3b8:	ef                	.byte	0xef

0000c3b9 <tdat10>:
    c3b9:	003041ef          	jal	gp,10bbb <end+0x44be>
    c3bd:	0000                	.insn	2, 0x0000
    c3bf:	6972                	.insn	2, 0x6972
    c3c1:	00766373          	csrrsi	t1,0x7,12
    c3c5:	2601                	.insn	2, 0x2601
    c3c7:	0000                	.insn	2, 0x0000
    c3c9:	0500                	.insn	2, 0x0500
    c3cb:	7672                	.insn	2, 0x7672
    c3cd:	32693233          	.insn	4, 0x32693233
    c3d1:	3170                	.insn	2, 0x3170
    c3d3:	6d5f 7032 5f30      	.insn	6, 0x5f3070326d5f
    c3d9:	697a                	.insn	2, 0x697a
    c3db:	32727363          	bgeu	tp,t2,c701 <end+0x4>
    c3df:	3070                	.insn	2, 0x3070
    c3e1:	7a5f 6d6d 6c75      	.insn	6, 0x6c756d6d7a5f
    c3e7:	7031                	.insn	2, 0x7031
    c3e9:	0030                	.insn	2, 0x0030
	...

0000c3ec <tdat>:
    c3ec:	beef                	.short	0xbeef

0000c3ee <tdat2>:
    c3ee:	beef                	.short	0xbeef

0000c3f0 <tdat3>:
    c3f0:	beef                	.short	0xbeef

0000c3f2 <tdat4>:
    c3f2:	beef                	.short	0xbeef

0000c3f4 <tdat5>:
    c3f4:	beef                	.short	0xbeef

0000c3f6 <tdat6>:
    c3f6:	beef                	.short	0xbeef

0000c3f8 <tdat7>:
    c3f8:	beef                	.short	0xbeef

0000c3fa <tdat8>:
    c3fa:	beef                	.short	0xbeef

0000c3fc <tdat9>:
    c3fc:	beef                	.short	0xbeef

0000c3fe <tdat10>:
    c3fe:	3041beef          	jal	t4,27702 <end+0x1b005>
    c402:	0000                	.insn	2, 0x0000
    c404:	7200                	.insn	2, 0x7200
    c406:	7369                	.insn	2, 0x7369
    c408:	01007663          	bgeu	zero,a6,c414 <tdat10+0x16>
    c40c:	0026                	.insn	2, 0x0026
    c40e:	0000                	.insn	2, 0x0000
    c410:	7205                	.insn	2, 0x7205
    c412:	3376                	.insn	2, 0x3376
    c414:	6932                	.insn	2, 0x6932
    c416:	7032                	.insn	2, 0x7032
    c418:	5f31                	.insn	2, 0x5f31
    c41a:	326d                	.insn	2, 0x326d
    c41c:	3070                	.insn	2, 0x3070
    c41e:	7a5f 6369 7273      	.insn	6, 0x727363697a5f
    c424:	7032                	.insn	2, 0x7032
    c426:	5f30                	.insn	2, 0x5f30
    c428:	6d7a                	.insn	2, 0x6d7a
    c42a:	756d                	.insn	2, 0x756d
    c42c:	316c                	.insn	2, 0x316c
    c42e:	3070                	.insn	2, 0x3070
    c430:	0000                	.insn	2, 0x0000
    c432:	0000                	.insn	2, 0x0000
    c434:	3041                	.insn	2, 0x3041
    c436:	0000                	.insn	2, 0x0000
    c438:	7200                	.insn	2, 0x7200
    c43a:	7369                	.insn	2, 0x7369
    c43c:	01007663          	bgeu	zero,a6,c448 <tdat10+0x4a>
    c440:	0026                	.insn	2, 0x0026
    c442:	0000                	.insn	2, 0x0000
    c444:	7205                	.insn	2, 0x7205
    c446:	3376                	.insn	2, 0x3376
    c448:	6932                	.insn	2, 0x6932
    c44a:	7032                	.insn	2, 0x7032
    c44c:	5f31                	.insn	2, 0x5f31
    c44e:	326d                	.insn	2, 0x326d
    c450:	3070                	.insn	2, 0x3070
    c452:	7a5f 6369 7273      	.insn	6, 0x727363697a5f
    c458:	7032                	.insn	2, 0x7032
    c45a:	5f30                	.insn	2, 0x5f30
    c45c:	6d7a                	.insn	2, 0x6d7a
    c45e:	756d                	.insn	2, 0x756d
    c460:	316c                	.insn	2, 0x316c
    c462:	3070                	.insn	2, 0x3070
    c464:	0000                	.insn	2, 0x0000
    c466:	0000                	.insn	2, 0x0000
    c468:	3041                	.insn	2, 0x3041
    c46a:	0000                	.insn	2, 0x0000
    c46c:	7200                	.insn	2, 0x7200
    c46e:	7369                	.insn	2, 0x7369
    c470:	01007663          	bgeu	zero,a6,c47c <tdat10+0x7e>
    c474:	0026                	.insn	2, 0x0026
    c476:	0000                	.insn	2, 0x0000
    c478:	7205                	.insn	2, 0x7205
    c47a:	3376                	.insn	2, 0x3376
    c47c:	6932                	.insn	2, 0x6932
    c47e:	7032                	.insn	2, 0x7032
    c480:	5f31                	.insn	2, 0x5f31
    c482:	326d                	.insn	2, 0x326d
    c484:	3070                	.insn	2, 0x3070
    c486:	7a5f 6369 7273      	.insn	6, 0x727363697a5f
    c48c:	7032                	.insn	2, 0x7032
    c48e:	5f30                	.insn	2, 0x5f30
    c490:	6d7a                	.insn	2, 0x6d7a
    c492:	756d                	.insn	2, 0x756d
    c494:	316c                	.insn	2, 0x316c
    c496:	3070                	.insn	2, 0x3070
    c498:	0000                	.insn	2, 0x0000
    c49a:	0000                	.insn	2, 0x0000
    c49c:	3041                	.insn	2, 0x3041
    c49e:	0000                	.insn	2, 0x0000
    c4a0:	7200                	.insn	2, 0x7200
    c4a2:	7369                	.insn	2, 0x7369
    c4a4:	01007663          	bgeu	zero,a6,c4b0 <tdat10+0xb2>
    c4a8:	0026                	.insn	2, 0x0026
    c4aa:	0000                	.insn	2, 0x0000
    c4ac:	7205                	.insn	2, 0x7205
    c4ae:	3376                	.insn	2, 0x3376
    c4b0:	6932                	.insn	2, 0x6932
    c4b2:	7032                	.insn	2, 0x7032
    c4b4:	5f31                	.insn	2, 0x5f31
    c4b6:	326d                	.insn	2, 0x326d
    c4b8:	3070                	.insn	2, 0x3070
    c4ba:	7a5f 6369 7273      	.insn	6, 0x727363697a5f
    c4c0:	7032                	.insn	2, 0x7032
    c4c2:	5f30                	.insn	2, 0x5f30
    c4c4:	6d7a                	.insn	2, 0x6d7a
    c4c6:	756d                	.insn	2, 0x756d
    c4c8:	316c                	.insn	2, 0x316c
    c4ca:	3070                	.insn	2, 0x3070
    c4cc:	0000                	.insn	2, 0x0000
    c4ce:	0000                	.insn	2, 0x0000
    c4d0:	3041                	.insn	2, 0x3041
    c4d2:	0000                	.insn	2, 0x0000
    c4d4:	7200                	.insn	2, 0x7200
    c4d6:	7369                	.insn	2, 0x7369
    c4d8:	01007663          	bgeu	zero,a6,c4e4 <tdat10+0xe6>
    c4dc:	0026                	.insn	2, 0x0026
    c4de:	0000                	.insn	2, 0x0000
    c4e0:	7205                	.insn	2, 0x7205
    c4e2:	3376                	.insn	2, 0x3376
    c4e4:	6932                	.insn	2, 0x6932
    c4e6:	7032                	.insn	2, 0x7032
    c4e8:	5f31                	.insn	2, 0x5f31
    c4ea:	326d                	.insn	2, 0x326d
    c4ec:	3070                	.insn	2, 0x3070
    c4ee:	7a5f 6369 7273      	.insn	6, 0x727363697a5f
    c4f4:	7032                	.insn	2, 0x7032
    c4f6:	5f30                	.insn	2, 0x5f30
    c4f8:	6d7a                	.insn	2, 0x6d7a
    c4fa:	756d                	.insn	2, 0x756d
    c4fc:	316c                	.insn	2, 0x316c
    c4fe:	3070                	.insn	2, 0x3070
    c500:	0000                	.insn	2, 0x0000
    c502:	0000                	.insn	2, 0x0000
    c504:	3041                	.insn	2, 0x3041
    c506:	0000                	.insn	2, 0x0000
    c508:	7200                	.insn	2, 0x7200
    c50a:	7369                	.insn	2, 0x7369
    c50c:	01007663          	bgeu	zero,a6,c518 <tdat10+0x11a>
    c510:	0026                	.insn	2, 0x0026
    c512:	0000                	.insn	2, 0x0000
    c514:	7205                	.insn	2, 0x7205
    c516:	3376                	.insn	2, 0x3376
    c518:	6932                	.insn	2, 0x6932
    c51a:	7032                	.insn	2, 0x7032
    c51c:	5f31                	.insn	2, 0x5f31
    c51e:	326d                	.insn	2, 0x326d
    c520:	3070                	.insn	2, 0x3070
    c522:	7a5f 6369 7273      	.insn	6, 0x727363697a5f
    c528:	7032                	.insn	2, 0x7032
    c52a:	5f30                	.insn	2, 0x5f30
    c52c:	6d7a                	.insn	2, 0x6d7a
    c52e:	756d                	.insn	2, 0x756d
    c530:	316c                	.insn	2, 0x316c
    c532:	3070                	.insn	2, 0x3070
    c534:	0000                	.insn	2, 0x0000
    c536:	0000                	.insn	2, 0x0000
    c538:	3041                	.insn	2, 0x3041
    c53a:	0000                	.insn	2, 0x0000
    c53c:	7200                	.insn	2, 0x7200
    c53e:	7369                	.insn	2, 0x7369
    c540:	01007663          	bgeu	zero,a6,c54c <tdat10+0x14e>
    c544:	0026                	.insn	2, 0x0026
    c546:	0000                	.insn	2, 0x0000
    c548:	7205                	.insn	2, 0x7205
    c54a:	3376                	.insn	2, 0x3376
    c54c:	6932                	.insn	2, 0x6932
    c54e:	7032                	.insn	2, 0x7032
    c550:	5f31                	.insn	2, 0x5f31
    c552:	326d                	.insn	2, 0x326d
    c554:	3070                	.insn	2, 0x3070
    c556:	7a5f 6369 7273      	.insn	6, 0x727363697a5f
    c55c:	7032                	.insn	2, 0x7032
    c55e:	5f30                	.insn	2, 0x5f30
    c560:	6d7a                	.insn	2, 0x6d7a
    c562:	756d                	.insn	2, 0x756d
    c564:	316c                	.insn	2, 0x316c
    c566:	3070                	.insn	2, 0x3070
    c568:	0000                	.insn	2, 0x0000
    c56a:	0000                	.insn	2, 0x0000
    c56c:	3041                	.insn	2, 0x3041
    c56e:	0000                	.insn	2, 0x0000
    c570:	7200                	.insn	2, 0x7200
    c572:	7369                	.insn	2, 0x7369
    c574:	01007663          	bgeu	zero,a6,c580 <tdat10+0x182>
    c578:	0026                	.insn	2, 0x0026
    c57a:	0000                	.insn	2, 0x0000
    c57c:	7205                	.insn	2, 0x7205
    c57e:	3376                	.insn	2, 0x3376
    c580:	6932                	.insn	2, 0x6932
    c582:	7032                	.insn	2, 0x7032
    c584:	5f31                	.insn	2, 0x5f31
    c586:	326d                	.insn	2, 0x326d
    c588:	3070                	.insn	2, 0x3070
    c58a:	7a5f 6369 7273      	.insn	6, 0x727363697a5f
    c590:	7032                	.insn	2, 0x7032
    c592:	5f30                	.insn	2, 0x5f30
    c594:	6d7a                	.insn	2, 0x6d7a
    c596:	756d                	.insn	2, 0x756d
    c598:	316c                	.insn	2, 0x316c
    c59a:	3070                	.insn	2, 0x3070
    c59c:	0000                	.insn	2, 0x0000
    c59e:	0000                	.insn	2, 0x0000
    c5a0:	3041                	.insn	2, 0x3041
    c5a2:	0000                	.insn	2, 0x0000
    c5a4:	7200                	.insn	2, 0x7200
    c5a6:	7369                	.insn	2, 0x7369
    c5a8:	01007663          	bgeu	zero,a6,c5b4 <tdat10+0x1b6>
    c5ac:	0026                	.insn	2, 0x0026
    c5ae:	0000                	.insn	2, 0x0000
    c5b0:	7205                	.insn	2, 0x7205
    c5b2:	3376                	.insn	2, 0x3376
    c5b4:	6932                	.insn	2, 0x6932
    c5b6:	7032                	.insn	2, 0x7032
    c5b8:	5f31                	.insn	2, 0x5f31
    c5ba:	326d                	.insn	2, 0x326d
    c5bc:	3070                	.insn	2, 0x3070
    c5be:	7a5f 6369 7273      	.insn	6, 0x727363697a5f
    c5c4:	7032                	.insn	2, 0x7032
    c5c6:	5f30                	.insn	2, 0x5f30
    c5c8:	6d7a                	.insn	2, 0x6d7a
    c5ca:	756d                	.insn	2, 0x756d
    c5cc:	316c                	.insn	2, 0x316c
    c5ce:	3070                	.insn	2, 0x3070
    c5d0:	0000                	.insn	2, 0x0000
    c5d2:	0000                	.insn	2, 0x0000
    c5d4:	3041                	.insn	2, 0x3041
    c5d6:	0000                	.insn	2, 0x0000
    c5d8:	7200                	.insn	2, 0x7200
    c5da:	7369                	.insn	2, 0x7369
    c5dc:	01007663          	bgeu	zero,a6,c5e8 <tdat10+0x1ea>
    c5e0:	0026                	.insn	2, 0x0026
    c5e2:	0000                	.insn	2, 0x0000
    c5e4:	7205                	.insn	2, 0x7205
    c5e6:	3376                	.insn	2, 0x3376
    c5e8:	6932                	.insn	2, 0x6932
    c5ea:	7032                	.insn	2, 0x7032
    c5ec:	5f31                	.insn	2, 0x5f31
    c5ee:	326d                	.insn	2, 0x326d
    c5f0:	3070                	.insn	2, 0x3070
    c5f2:	7a5f 6369 7273      	.insn	6, 0x727363697a5f
    c5f8:	7032                	.insn	2, 0x7032
    c5fa:	5f30                	.insn	2, 0x5f30
    c5fc:	6d7a                	.insn	2, 0x6d7a
    c5fe:	756d                	.insn	2, 0x756d
    c600:	316c                	.insn	2, 0x316c
    c602:	3070                	.insn	2, 0x3070
    c604:	0000                	.insn	2, 0x0000
    c606:	0000                	.insn	2, 0x0000
    c608:	3041                	.insn	2, 0x3041
    c60a:	0000                	.insn	2, 0x0000
    c60c:	7200                	.insn	2, 0x7200
    c60e:	7369                	.insn	2, 0x7369
    c610:	01007663          	bgeu	zero,a6,c61c <tdat10+0x21e>
    c614:	0026                	.insn	2, 0x0026
    c616:	0000                	.insn	2, 0x0000
    c618:	7205                	.insn	2, 0x7205
    c61a:	3376                	.insn	2, 0x3376
    c61c:	6932                	.insn	2, 0x6932
    c61e:	7032                	.insn	2, 0x7032
    c620:	5f31                	.insn	2, 0x5f31
    c622:	326d                	.insn	2, 0x326d
    c624:	3070                	.insn	2, 0x3070
    c626:	7a5f 6369 7273      	.insn	6, 0x727363697a5f
    c62c:	7032                	.insn	2, 0x7032
    c62e:	5f30                	.insn	2, 0x5f30
    c630:	6d7a                	.insn	2, 0x6d7a
    c632:	756d                	.insn	2, 0x756d
    c634:	316c                	.insn	2, 0x316c
    c636:	3070                	.insn	2, 0x3070
    c638:	0000                	.insn	2, 0x0000
	...

0000c63c <tdat>:
    c63c:	deadbeef          	jal	t4,fffe7c26 <end+0xfffdb529>

0000c640 <tdat2>:
    c640:	deadbeef          	jal	t4,fffe7c2a <end+0xfffdb52d>

0000c644 <tdat3>:
    c644:	deadbeef          	jal	t4,fffe7c2e <end+0xfffdb531>

0000c648 <tdat4>:
    c648:	deadbeef          	jal	t4,fffe7c32 <end+0xfffdb535>

0000c64c <tdat5>:
    c64c:	deadbeef          	jal	t4,fffe7c36 <end+0xfffdb539>

0000c650 <tdat6>:
    c650:	deadbeef          	jal	t4,fffe7c3a <end+0xfffdb53d>

0000c654 <tdat7>:
    c654:	deadbeef          	jal	t4,fffe7c3e <end+0xfffdb541>

0000c658 <tdat8>:
    c658:	deadbeef          	jal	t4,fffe7c42 <end+0xfffdb545>

0000c65c <tdat9>:
    c65c:	deadbeef          	jal	t4,fffe7c46 <end+0xfffdb549>

0000c660 <tdat10>:
    c660:	deadbeef          	jal	t4,fffe7c4a <end+0xfffdb54d>
    c664:	3041                	.insn	2, 0x3041
    c666:	0000                	.insn	2, 0x0000
    c668:	7200                	.insn	2, 0x7200
    c66a:	7369                	.insn	2, 0x7369
    c66c:	01007663          	bgeu	zero,a6,c678 <tdat10+0x18>
    c670:	0026                	.insn	2, 0x0026
    c672:	0000                	.insn	2, 0x0000
    c674:	7205                	.insn	2, 0x7205
    c676:	3376                	.insn	2, 0x3376
    c678:	6932                	.insn	2, 0x6932
    c67a:	7032                	.insn	2, 0x7032
    c67c:	5f31                	.insn	2, 0x5f31
    c67e:	326d                	.insn	2, 0x326d
    c680:	3070                	.insn	2, 0x3070
    c682:	7a5f 6369 7273      	.insn	6, 0x727363697a5f
    c688:	7032                	.insn	2, 0x7032
    c68a:	5f30                	.insn	2, 0x5f30
    c68c:	6d7a                	.insn	2, 0x6d7a
    c68e:	756d                	.insn	2, 0x756d
    c690:	316c                	.insn	2, 0x316c
    c692:	3070                	.insn	2, 0x3070
    c694:	0000                	.insn	2, 0x0000
    c696:	0000                	.insn	2, 0x0000
    c698:	3041                	.insn	2, 0x3041
    c69a:	0000                	.insn	2, 0x0000
    c69c:	7200                	.insn	2, 0x7200
    c69e:	7369                	.insn	2, 0x7369
    c6a0:	01007663          	bgeu	zero,a6,c6ac <tdat10+0x4c>
    c6a4:	0026                	.insn	2, 0x0026
    c6a6:	0000                	.insn	2, 0x0000
    c6a8:	7205                	.insn	2, 0x7205
    c6aa:	3376                	.insn	2, 0x3376
    c6ac:	6932                	.insn	2, 0x6932
    c6ae:	7032                	.insn	2, 0x7032
    c6b0:	5f31                	.insn	2, 0x5f31
    c6b2:	326d                	.insn	2, 0x326d
    c6b4:	3070                	.insn	2, 0x3070
    c6b6:	7a5f 6369 7273      	.insn	6, 0x727363697a5f
    c6bc:	7032                	.insn	2, 0x7032
    c6be:	5f30                	.insn	2, 0x5f30
    c6c0:	6d7a                	.insn	2, 0x6d7a
    c6c2:	756d                	.insn	2, 0x756d
    c6c4:	316c                	.insn	2, 0x316c
    c6c6:	3070                	.insn	2, 0x3070
    c6c8:	0000                	.insn	2, 0x0000
    c6ca:	0000                	.insn	2, 0x0000
    c6cc:	3041                	.insn	2, 0x3041
    c6ce:	0000                	.insn	2, 0x0000
    c6d0:	7200                	.insn	2, 0x7200
    c6d2:	7369                	.insn	2, 0x7369
    c6d4:	01007663          	bgeu	zero,a6,c6e0 <tdat10+0x80>
    c6d8:	0026                	.insn	2, 0x0026
    c6da:	0000                	.insn	2, 0x0000
    c6dc:	7205                	.insn	2, 0x7205
    c6de:	3376                	.insn	2, 0x3376
    c6e0:	6932                	.insn	2, 0x6932
    c6e2:	7032                	.insn	2, 0x7032
    c6e4:	5f31                	.insn	2, 0x5f31
    c6e6:	326d                	.insn	2, 0x326d
    c6e8:	3070                	.insn	2, 0x3070
    c6ea:	7a5f 6369 7273      	.insn	6, 0x727363697a5f
    c6f0:	7032                	.insn	2, 0x7032
    c6f2:	5f30                	.insn	2, 0x5f30
    c6f4:	6d7a                	.insn	2, 0x6d7a
    c6f6:	756d                	.insn	2, 0x756d
    c6f8:	316c                	.insn	2, 0x316c
    c6fa:	3070                	.insn	2, 0x3070
	...

0000c6fd <end>:
    c6fd:	0000                	.insn	2, 0x0000
	...
