
test.elf:     file format elf32-littleriscv


Disassembly of section .text:

00000000 <reset_vec>:
       0:	0040006f          	j	4 <start>

00000004 <start>:
       4:	00000093          	li	ra,0
       8:	00000113          	li	sp,0
       c:	00000193          	li	gp,0
      10:	00000213          	li	tp,0
      14:	00000293          	li	t0,0
      18:	00000313          	li	t1,0
      1c:	00000393          	li	t2,0
      20:	00000413          	li	s0,0
      24:	00000493          	li	s1,0
      28:	00000513          	li	a0,0
      2c:	00000593          	li	a1,0
      30:	00000613          	li	a2,0
      34:	00000693          	li	a3,0
      38:	00000713          	li	a4,0
      3c:	00000793          	li	a5,0
      40:	00000813          	li	a6,0
      44:	00000893          	li	a7,0
      48:	00000913          	li	s2,0
      4c:	00000993          	li	s3,0
      50:	00000a13          	li	s4,0
      54:	00000a93          	li	s5,0
      58:	00000b13          	li	s6,0
      5c:	00000b93          	li	s7,0
      60:	00000c13          	li	s8,0
      64:	00000c93          	li	s9,0
      68:	00000d13          	li	s10,0
      6c:	00000d93          	li	s11,0
      70:	00000e13          	li	t3,0
      74:	00000e93          	li	t4,0
      78:	00000f13          	li	t5,0
      7c:	00000f93          	li	t6,0
      80:	00800293          	li	t0,8
      84:	30029073          	csrw	mstatus,t0
      88:	0007f137          	lui	sp,0x7f
      8c:	1990b0ef          	jal	ba24 <main>

00000090 <insn_tests>:
      90:	30c00f93          	li	t6,780
      94:	001fa023          	sw	ra,0(t6)
      98:	002fa223          	sw	sp,4(t6)
      9c:	003fa423          	sw	gp,8(t6)
      a0:	004fa623          	sw	tp,12(t6)
      a4:	005fa823          	sw	t0,16(t6)
      a8:	006faa23          	sw	t1,20(t6)
      ac:	007fac23          	sw	t2,24(t6)
      b0:	008fae23          	sw	s0,28(t6)
      b4:	029fa023          	sw	s1,32(t6)
      b8:	02afa223          	sw	a0,36(t6)
      bc:	02bfa423          	sw	a1,40(t6)
      c0:	02cfa623          	sw	a2,44(t6)
      c4:	02dfa823          	sw	a3,48(t6)
      c8:	02efaa23          	sw	a4,52(t6)
      cc:	02ffac23          	sw	a5,56(t6)
      d0:	030fae23          	sw	a6,60(t6)
      d4:	051fa023          	sw	a7,64(t6)
      d8:	052fa223          	sw	s2,68(t6)
      dc:	053fa423          	sw	s3,72(t6)
      e0:	054fa623          	sw	s4,76(t6)
      e4:	055fa823          	sw	s5,80(t6)
      e8:	056faa23          	sw	s6,84(t6)
      ec:	057fac23          	sw	s7,88(t6)
      f0:	058fae23          	sw	s8,92(t6)
      f4:	079fa023          	sw	s9,96(t6)
      f8:	07afa223          	sw	s10,100(t6)
      fc:	07bfa423          	sw	s11,104(t6)
     100:	07cfa623          	sw	t3,108(t6)
     104:	07dfa823          	sw	t4,112(t6)
     108:	07efaa23          	sw	t5,116(t6)
     10c:	00a00093          	li	ra,10
     110:	49d0406f          	j	4dac <lui>

00000114 <lui_ret>:
     114:	00a00093          	li	ra,10
     118:	2f80206f          	j	2410 <auipc>

0000011c <auipc_ret>:
     11c:	00a00093          	li	ra,10
     120:	4bd0306f          	j	3ddc <j>

00000124 <j_ret>:
     124:	00a00093          	li	ra,10
     128:	59d0306f          	j	3ec4 <jal>

0000012c <jal_ret>:
     12c:	00a00093          	li	ra,10
     130:	6990306f          	j	3fc8 <jalr>

00000134 <jalr_ret>:
     134:	00a00093          	li	ra,10
     138:	3d00206f          	j	2508 <beq>

0000013c <beq_ret>:
     13c:	00a00093          	li	ra,10
     140:	6140306f          	j	3754 <bne>

00000144 <bne_ret>:
     144:	00a00093          	li	ra,10
     148:	6fd0206f          	j	3044 <blt>

0000014c <blt_ret>:
     14c:	00a00093          	li	ra,10
     150:	7240206f          	j	2874 <bge>

00000154 <bge_ret>:
     154:	00a00093          	li	ra,10
     158:	2580306f          	j	33b0 <bltu>

0000015c <bltu_ret>:
     15c:	00a00093          	li	ra,10
     160:	2e10206f          	j	2c40 <bgeu>

00000164 <bgeu_ret>:
     164:	00a00093          	li	ra,10
     168:	0100406f          	j	4178 <lb>

0000016c <lb_ret>:
     16c:	00a00093          	li	ra,10
     170:	5f80406f          	j	4768 <lh>

00000174 <lh_ret>:
     174:	00a00093          	li	ra,10
     178:	5410406f          	j	4eb8 <lw>

0000017c <lw_ret>:
     17c:	00a00093          	li	ra,10
     180:	2f00406f          	j	4470 <lbu>

00000184 <lbu_ret>:
     184:	00a00093          	li	ra,10
     188:	0f90406f          	j	4a80 <lhu>

0000018c <lhu_ret>:
     18c:	00a00093          	li	ra,10
     190:	3140706f          	j	74a4 <sb>

00000194 <sb_ret>:
     194:	00a00093          	li	ra,10
     198:	7ac0706f          	j	7944 <sh>

0000019c <sh_ret>:
     19c:	00a00093          	li	ra,10
     1a0:	7f80a06f          	j	a998 <sw>

000001a4 <sw_ret>:
     1a4:	00a00093          	li	ra,10
     1a8:	75c0106f          	j	1904 <addi>

000001ac <addi_ret>:
     1ac:	00a00093          	li	ra,10
     1b0:	3dd0806f          	j	8d8c <slti>

000001b4 <slti_ret>:
     1b4:	00a00093          	li	ra,10
     1b8:	27c0b06f          	j	b434 <xori>

000001bc <xori_ret>:
     1bc:	00a00093          	li	ra,10
     1c0:	37d0606f          	j	6d3c <ori>

000001c4 <ori_ret>:
     1c4:	00a00093          	li	ra,10
     1c8:	7d90106f          	j	21a0 <andi>

000001cc <andi_ret>:
     1cc:	00a00093          	li	ra,10
     1d0:	3140806f          	j	84e4 <slli>

000001d4 <slli_ret>:
     1d4:	00a00093          	li	ra,10
     1d8:	6f10906f          	j	a0c8 <srli>

000001dc <srli_ret>:
     1dc:	00a00093          	li	ra,10
     1e0:	5180906f          	j	96f8 <srai>

000001e4 <srai_ret>:
     1e4:	00a00093          	li	ra,10
     1e8:	1900106f          	j	1378 <add>

000001ec <add_ret>:
     1ec:	00a00093          	li	ra,10
     1f0:	23c0a06f          	j	a42c <sub>

000001f4 <sub_ret>:
     1f4:	00a00093          	li	ra,10
     1f8:	4d50706f          	j	7ecc <sll>

000001fc <sll_ret>:
     1fc:	00a00093          	li	ra,10
     200:	6180806f          	j	8818 <slt>

00000204 <slt_ret>:
     204:	00a00093          	li	ra,10
     208:	4c10a06f          	j	aec8 <xor>

0000020c <xor_ret>:
     20c:	00a00093          	li	ra,10
     210:	0510906f          	j	9a60 <srl>

00000214 <srl_ret>:
     214:	00a00093          	li	ra,10
     218:	6990806f          	j	90b0 <sra>

0000021c <sra_ret>:
     21c:	00a00093          	li	ra,10
     220:	5ac0606f          	j	67cc <or>

00000224 <or_ret>:
     224:	00a00093          	li	ra,10
     228:	2150106f          	j	1c3c <and>

0000022c <and_ret>:
     22c:	00a00093          	li	ra,10
     230:	4390706f          	j	7e68 <simple>

00000234 <simple_ret>:
     234:	00a00093          	li	ra,10
     238:	58d0606f          	j	6fc4 <rdwrctr>

0000023c <rdwrctr_ret>:
     23c:	0100006f          	j	24c <m_tests>

00000240 <break>:
     240:	00100073          	ebreak

00000244 <repeat>:
     244:	001fa023          	sw	ra,0(t6)
     248:	ffdff06f          	j	244 <repeat>

0000024c <m_tests>:
     24c:	00a00093          	li	ra,10
     250:	5140506f          	j	5764 <mulh>

00000254 <mulh_ret>:
     254:	00a00093          	li	ra,10
     258:	2850506f          	j	5cdc <mulhsu>

0000025c <mulhsu_ret>:
     25c:	00a00093          	li	ra,10
     260:	7f50506f          	j	6254 <mulhu>

00000264 <mulhu_ret>:
     264:	00a00093          	li	ra,10
     268:	7890406f          	j	51f0 <mul>

0000026c <mul_ret>:
     26c:	00a00093          	li	ra,10
     270:	0550306f          	j	3ac4 <div>

00000274 <div_ret>:
     274:	00a00093          	li	ra,10
     278:	1d50306f          	j	3c4c <divu>

0000027c <divu_ret>:
     27c:	00a00093          	li	ra,10
     280:	7110606f          	j	7190 <rem>

00000284 <rem_ret>:
     284:	00a00093          	li	ra,10
     288:	0900706f          	j	7318 <remu>

0000028c <remu_ret>:
     28c:	30c00f93          	li	t6,780
     290:	000fa083          	lw	ra,0(t6)
     294:	004fa103          	lw	sp,4(t6)
     298:	008fa183          	lw	gp,8(t6)
     29c:	00cfa203          	lw	tp,12(t6)
     2a0:	010fa283          	lw	t0,16(t6)
     2a4:	014fa303          	lw	t1,20(t6)
     2a8:	018fa383          	lw	t2,24(t6)
     2ac:	01cfa403          	lw	s0,28(t6)
     2b0:	020fa483          	lw	s1,32(t6)
     2b4:	024fa503          	lw	a0,36(t6)
     2b8:	028fa583          	lw	a1,40(t6)
     2bc:	02cfa603          	lw	a2,44(t6)
     2c0:	030fa683          	lw	a3,48(t6)
     2c4:	034fa703          	lw	a4,52(t6)
     2c8:	038fa783          	lw	a5,56(t6)
     2cc:	03cfa803          	lw	a6,60(t6)
     2d0:	040fa883          	lw	a7,64(t6)
     2d4:	044fa903          	lw	s2,68(t6)
     2d8:	048fa983          	lw	s3,72(t6)
     2dc:	04cfaa03          	lw	s4,76(t6)
     2e0:	050faa83          	lw	s5,80(t6)
     2e4:	054fab03          	lw	s6,84(t6)
     2e8:	058fab83          	lw	s7,88(t6)
     2ec:	05cfac03          	lw	s8,92(t6)
     2f0:	060fac83          	lw	s9,96(t6)
     2f4:	064fad03          	lw	s10,100(t6)
     2f8:	068fad83          	lw	s11,104(t6)
     2fc:	06cfae03          	lw	t3,108(t6)
     300:	070fae83          	lw	t4,112(t6)
     304:	074faf03          	lw	t5,116(t6)
     308:	00008067          	ret

0000030c <scratch_space>:
	...

0000040c <echo>:
     40c:	ff010113          	addi	sp,sp,-16 # 7eff0 <end+0x728f3>
     410:	0000b537          	lui	a0,0xb
     414:	00812423          	sw	s0,8(sp)
     418:	6c850513          	addi	a0,a0,1736 # b6c8 <pass+0x24>
     41c:	0000b437          	lui	s0,0xb
     420:	00112623          	sw	ra,12(sp)
     424:	71840413          	addi	s0,s0,1816 # b718 <pass+0x74>
     428:	370000ef          	jal	798 <puts>
     42c:	00040513          	mv	a0,s0
     430:	368000ef          	jal	798 <puts>
     434:	5b5000ef          	jal	11e8 <getchar>
     438:	5c9000ef          	jal	1200 <putchar>
     43c:	00a00513          	li	a0,10
     440:	5c1000ef          	jal	1200 <putchar>
     444:	5cd000ef          	jal	1210 <fflush>
     448:	fe5ff06f          	j	42c <echo+0x20>

0000044c <csr_test>:
     44c:	0000b537          	lui	a0,0xb
     450:	fc010113          	addi	sp,sp,-64
     454:	72c50513          	addi	a0,a0,1836 # b72c <pass+0x88>
     458:	02112e23          	sw	ra,60(sp)
     45c:	02812c23          	sw	s0,56(sp)
     460:	02912a23          	sw	s1,52(sp)
     464:	03212823          	sw	s2,48(sp)
     468:	03312623          	sw	s3,44(sp)
     46c:	03412423          	sw	s4,40(sp)
     470:	03512223          	sw	s5,36(sp)
     474:	03612023          	sw	s6,32(sp)
     478:	01712e23          	sw	s7,28(sp)
     47c:	31c000ef          	jal	798 <puts>
     480:	0000b537          	lui	a0,0xb
     484:	74450513          	addi	a0,a0,1860 # b744 <pass+0xa0>
     488:	deadc437          	lui	s0,0xdeadc
     48c:	30c000ef          	jal	798 <puts>
     490:	eef40413          	addi	s0,s0,-273 # deadbeef <end+0xdeacf7f2>
     494:	30541073          	csrw	mtvec,s0
     498:	305024f3          	csrr	s1,mtvec
     49c:	24848863          	beq	s1,s0,6ec <csr_test+0x2a0>
     4a0:	0000b537          	lui	a0,0xb
     4a4:	76050513          	addi	a0,a0,1888 # b760 <pass+0xbc>
     4a8:	2f0000ef          	jal	798 <puts>
     4ac:	0000b537          	lui	a0,0xb
     4b0:	00048613          	mv	a2,s1
     4b4:	00040593          	mv	a1,s0
     4b8:	76850513          	addi	a0,a0,1896 # b768 <pass+0xc4>
     4bc:	00200913          	li	s2,2
     4c0:	00100493          	li	s1,1
     4c4:	630000ef          	jal	af4 <printf>
     4c8:	00090413          	mv	s0,s2
     4cc:	00048b93          	mv	s7,s1
     4d0:	00500b13          	li	s6,5
     4d4:	00400a93          	li	s5,4
     4d8:	00300a13          	li	s4,3
     4dc:	00000993          	li	s3,0
     4e0:	0000b537          	lui	a0,0xb
     4e4:	78850513          	addi	a0,a0,1928 # b788 <pass+0xe4>
     4e8:	2b0000ef          	jal	798 <puts>
     4ec:	123455b7          	lui	a1,0x12345
     4f0:	67858593          	addi	a1,a1,1656 # 12345678 <end+0x12338f7b>
     4f4:	34159073          	csrw	mepc,a1
     4f8:	34102673          	csrr	a2,mepc
     4fc:	26b60a63          	beq	a2,a1,770 <csr_test+0x324>
     500:	0000b537          	lui	a0,0xb
     504:	76050513          	addi	a0,a0,1888 # b760 <pass+0xbc>
     508:	00c12623          	sw	a2,12(sp)
     50c:	28c000ef          	jal	798 <puts>
     510:	00c12603          	lw	a2,12(sp)
     514:	123455b7          	lui	a1,0x12345
     518:	0000b537          	lui	a0,0xb
     51c:	67858593          	addi	a1,a1,1656 # 12345678 <end+0x12338f7b>
     520:	76850513          	addi	a0,a0,1896 # b768 <pass+0xc4>
     524:	5d0000ef          	jal	af4 <printf>
     528:	0000b537          	lui	a0,0xb
     52c:	79c50513          	addi	a0,a0,1948 # b79c <pass+0xf8>
     530:	268000ef          	jal	798 <puts>
     534:	000025b7          	lui	a1,0x2
     538:	80058593          	addi	a1,a1,-2048 # 1800 <test_33+0x20>
     53c:	30059073          	csrw	mstatus,a1
     540:	30002673          	csrr	a2,mstatus
     544:	20b60663          	beq	a2,a1,750 <csr_test+0x304>
     548:	0000b537          	lui	a0,0xb
     54c:	76050513          	addi	a0,a0,1888 # b760 <pass+0xbc>
     550:	00c12623          	sw	a2,12(sp)
     554:	244000ef          	jal	798 <puts>
     558:	00c12603          	lw	a2,12(sp)
     55c:	000025b7          	lui	a1,0x2
     560:	0000b537          	lui	a0,0xb
     564:	80058593          	addi	a1,a1,-2048 # 1800 <test_33+0x20>
     568:	76850513          	addi	a0,a0,1896 # b768 <pass+0xc4>
     56c:	588000ef          	jal	af4 <printf>
     570:	00140413          	addi	s0,s0,1
     574:	00800793          	li	a5,8
     578:	30079073          	csrw	mstatus,a5
     57c:	0000b537          	lui	a0,0xb
     580:	7b050513          	addi	a0,a0,1968 # b7b0 <pass+0x10c>
     584:	facf0ab7          	lui	s5,0xfacf0
     588:	210000ef          	jal	798 <puts>
     58c:	acea8a93          	addi	s5,s5,-1330 # faceface <end+0xface33d1>
     590:	342a9073          	csrw	mcause,s5
     594:	34202673          	csrr	a2,mcause
     598:	19560e63          	beq	a2,s5,734 <csr_test+0x2e8>
     59c:	0000b537          	lui	a0,0xb
     5a0:	76050513          	addi	a0,a0,1888 # b760 <pass+0xbc>
     5a4:	00c12623          	sw	a2,12(sp)
     5a8:	1f0000ef          	jal	798 <puts>
     5ac:	00c12603          	lw	a2,12(sp)
     5b0:	0000b537          	lui	a0,0xb
     5b4:	000a8593          	mv	a1,s5
     5b8:	76850513          	addi	a0,a0,1896 # b768 <pass+0xc4>
     5bc:	538000ef          	jal	af4 <printf>
     5c0:	00140413          	addi	s0,s0,1
     5c4:	0000b537          	lui	a0,0xb
     5c8:	7c450513          	addi	a0,a0,1988 # b7c4 <pass+0x120>
     5cc:	00001ab7          	lui	s5,0x1
     5d0:	1c8000ef          	jal	798 <puts>
     5d4:	888a8a93          	addi	s5,s5,-1912 # 888 <printint+0xb4>
     5d8:	304a9073          	csrw	mie,s5
     5dc:	30402a73          	csrr	s4,mie
     5e0:	135a0e63          	beq	s4,s5,71c <csr_test+0x2d0>
     5e4:	0000b537          	lui	a0,0xb
     5e8:	76050513          	addi	a0,a0,1888 # b760 <pass+0xbc>
     5ec:	1ac000ef          	jal	798 <puts>
     5f0:	0000b537          	lui	a0,0xb
     5f4:	000a0613          	mv	a2,s4
     5f8:	000a8593          	mv	a1,s5
     5fc:	76850513          	addi	a0,a0,1896 # b768 <pass+0xc4>
     600:	4f4000ef          	jal	af4 <printf>
     604:	00140413          	addi	s0,s0,1
     608:	0000b537          	lui	a0,0xb
     60c:	7d450513          	addi	a0,a0,2004 # b7d4 <pass+0x130>
     610:	188000ef          	jal	798 <puts>
     614:	08000913          	li	s2,128
     618:	34491073          	csrw	mip,s2
     61c:	34402a73          	csrr	s4,mip
     620:	092a0263          	beq	s4,s2,6a4 <csr_test+0x258>
     624:	0000b537          	lui	a0,0xb
     628:	76050513          	addi	a0,a0,1888 # b760 <pass+0xbc>
     62c:	16c000ef          	jal	798 <puts>
     630:	0000b537          	lui	a0,0xb
     634:	000a0613          	mv	a2,s4
     638:	00090593          	mv	a1,s2
     63c:	76850513          	addi	a0,a0,1896 # b768 <pass+0xc4>
     640:	4b4000ef          	jal	af4 <printf>
     644:	0000b537          	lui	a0,0xb
     648:	7e450513          	addi	a0,a0,2020 # b7e4 <pass+0x140>
     64c:	14c000ef          	jal	798 <puts>
     650:	0000c537          	lui	a0,0xc
     654:	00098593          	mv	a1,s3
     658:	80050513          	addi	a0,a0,-2048 # b800 <pass+0x15c>
     65c:	498000ef          	jal	af4 <printf>
     660:	0000c537          	lui	a0,0xc
     664:	00140593          	addi	a1,s0,1
     668:	80c50513          	addi	a0,a0,-2036 # b80c <pass+0x168>
     66c:	488000ef          	jal	af4 <printf>
     670:	0000c537          	lui	a0,0xc
     674:	83050513          	addi	a0,a0,-2000 # b830 <pass+0x18c>
     678:	03812403          	lw	s0,56(sp)
     67c:	03c12083          	lw	ra,60(sp)
     680:	03412483          	lw	s1,52(sp)
     684:	03012903          	lw	s2,48(sp)
     688:	02c12983          	lw	s3,44(sp)
     68c:	02812a03          	lw	s4,40(sp)
     690:	02412a83          	lw	s5,36(sp)
     694:	02012b03          	lw	s6,32(sp)
     698:	01c12b83          	lw	s7,28(sp)
     69c:	04010113          	addi	sp,sp,64
     6a0:	0f80006f          	j	798 <puts>
     6a4:	0000b537          	lui	a0,0xb
     6a8:	75850513          	addi	a0,a0,1880 # b758 <pass+0xb4>
     6ac:	0ec000ef          	jal	798 <puts>
     6b0:	0000b537          	lui	a0,0xb
     6b4:	7e450513          	addi	a0,a0,2020 # b7e4 <pass+0x140>
     6b8:	0e0000ef          	jal	798 <puts>
     6bc:	0000c537          	lui	a0,0xc
     6c0:	00048593          	mv	a1,s1
     6c4:	80050513          	addi	a0,a0,-2048 # b800 <pass+0x15c>
     6c8:	42c000ef          	jal	af4 <printf>
     6cc:	0000c537          	lui	a0,0xc
     6d0:	00040593          	mv	a1,s0
     6d4:	80c50513          	addi	a0,a0,-2036 # b80c <pass+0x168>
     6d8:	41c000ef          	jal	af4 <printf>
     6dc:	f8041ae3          	bnez	s0,670 <csr_test+0x224>
     6e0:	0000c537          	lui	a0,0xc
     6e4:	81850513          	addi	a0,a0,-2024 # b818 <pass+0x174>
     6e8:	f91ff06f          	j	678 <csr_test+0x22c>
     6ec:	0000b537          	lui	a0,0xb
     6f0:	75850513          	addi	a0,a0,1880 # b758 <pass+0xb4>
     6f4:	00100413          	li	s0,1
     6f8:	0a0000ef          	jal	798 <puts>
     6fc:	00040993          	mv	s3,s0
     700:	00600b13          	li	s6,6
     704:	00500a93          	li	s5,5
     708:	00400a13          	li	s4,4
     70c:	00300913          	li	s2,3
     710:	00200493          	li	s1,2
     714:	00000b93          	li	s7,0
     718:	dc9ff06f          	j	4e0 <csr_test+0x94>
     71c:	0000b537          	lui	a0,0xb
     720:	75850513          	addi	a0,a0,1880 # b758 <pass+0xb4>
     724:	00048993          	mv	s3,s1
     728:	070000ef          	jal	798 <puts>
     72c:	00090493          	mv	s1,s2
     730:	ed9ff06f          	j	608 <csr_test+0x1bc>
     734:	0000b537          	lui	a0,0xb
     738:	75850513          	addi	a0,a0,1880 # b758 <pass+0xb4>
     73c:	00048993          	mv	s3,s1
     740:	058000ef          	jal	798 <puts>
     744:	00090493          	mv	s1,s2
     748:	000a0913          	mv	s2,s4
     74c:	e79ff06f          	j	5c4 <csr_test+0x178>
     750:	0000b537          	lui	a0,0xb
     754:	75850513          	addi	a0,a0,1880 # b758 <pass+0xb4>
     758:	00048993          	mv	s3,s1
     75c:	03c000ef          	jal	798 <puts>
     760:	00090493          	mv	s1,s2
     764:	000a0913          	mv	s2,s4
     768:	000a8a13          	mv	s4,s5
     76c:	e09ff06f          	j	574 <csr_test+0x128>
     770:	0000b537          	lui	a0,0xb
     774:	75850513          	addi	a0,a0,1880 # b758 <pass+0xb4>
     778:	00048993          	mv	s3,s1
     77c:	01c000ef          	jal	798 <puts>
     780:	00090493          	mv	s1,s2
     784:	000b8413          	mv	s0,s7
     788:	000a0913          	mv	s2,s4
     78c:	000a8a13          	mv	s4,s5
     790:	000b0a93          	mv	s5,s6
     794:	d95ff06f          	j	528 <csr_test+0xdc>

00000798 <puts>:
     798:	ff010113          	addi	sp,sp,-16
     79c:	00812423          	sw	s0,8(sp)
     7a0:	00112623          	sw	ra,12(sp)
     7a4:	00050413          	mv	s0,a0
     7a8:	00054503          	lbu	a0,0(a0)
     7ac:	00050a63          	beqz	a0,7c0 <puts+0x28>
     7b0:	251000ef          	jal	1200 <putchar>
     7b4:	00144503          	lbu	a0,1(s0)
     7b8:	00140413          	addi	s0,s0,1
     7bc:	fe051ae3          	bnez	a0,7b0 <puts+0x18>
     7c0:	00812403          	lw	s0,8(sp)
     7c4:	00c12083          	lw	ra,12(sp)
     7c8:	00a00513          	li	a0,10
     7cc:	01010113          	addi	sp,sp,16
     7d0:	2310006f          	j	1200 <putchar>

000007d4 <printint>:
     7d4:	fe010113          	addi	sp,sp,-32
     7d8:	00112e23          	sw	ra,28(sp)
     7dc:	00812c23          	sw	s0,24(sp)
     7e0:	00912a23          	sw	s1,20(sp)
     7e4:	06060663          	beqz	a2,850 <printint+0x7c>
     7e8:	06055463          	bgez	a0,850 <printint+0x7c>
     7ec:	40a00433          	neg	s0,a0
     7f0:	02b46733          	rem	a4,s0,a1
     7f4:	0000c7b7          	lui	a5,0xc
     7f8:	c1478793          	addi	a5,a5,-1004 # bc14 <digits.0>
     7fc:	02b44433          	div	s0,s0,a1
     800:	00e78733          	add	a4,a5,a4
     804:	00074703          	lbu	a4,0(a4)
     808:	00e10023          	sb	a4,0(sp)
     80c:	00100713          	li	a4,1
     810:	1c040863          	beqz	s0,9e0 <printint+0x20c>
     814:	02b46733          	rem	a4,s0,a1
     818:	02b44433          	div	s0,s0,a1
     81c:	00e78733          	add	a4,a5,a4
     820:	00074703          	lbu	a4,0(a4)
     824:	00e100a3          	sb	a4,1(sp)
     828:	00200713          	li	a4,2
     82c:	1a040a63          	beqz	s0,9e0 <printint+0x20c>
     830:	02b46733          	rem	a4,s0,a1
     834:	02b44433          	div	s0,s0,a1
     838:	00e78733          	add	a4,a5,a4
     83c:	00074703          	lbu	a4,0(a4)
     840:	00e10123          	sb	a4,2(sp)
     844:	24040063          	beqz	s0,a84 <printint+0x2b0>
     848:	00100693          	li	a3,1
     84c:	0580006f          	j	8a4 <printint+0xd0>
     850:	02b56733          	rem	a4,a0,a1
     854:	0000c7b7          	lui	a5,0xc
     858:	c1478793          	addi	a5,a5,-1004 # bc14 <digits.0>
     85c:	02b54433          	div	s0,a0,a1
     860:	00e78733          	add	a4,a5,a4
     864:	00074703          	lbu	a4,0(a4)
     868:	00e10023          	sb	a4,0(sp)
     86c:	18040263          	beqz	s0,9f0 <printint+0x21c>
     870:	02b46733          	rem	a4,s0,a1
     874:	02b44433          	div	s0,s0,a1
     878:	00e78733          	add	a4,a5,a4
     87c:	00074703          	lbu	a4,0(a4)
     880:	00e100a3          	sb	a4,1(sp)
     884:	1e040463          	beqz	s0,a6c <printint+0x298>
     888:	02b46733          	rem	a4,s0,a1
     88c:	00000693          	li	a3,0
     890:	02b44433          	div	s0,s0,a1
     894:	00e78733          	add	a4,a5,a4
     898:	00074703          	lbu	a4,0(a4)
     89c:	00e10123          	sb	a4,2(sp)
     8a0:	1e040663          	beqz	s0,a8c <printint+0x2b8>
     8a4:	02b46733          	rem	a4,s0,a1
     8a8:	02b44433          	div	s0,s0,a1
     8ac:	00e78733          	add	a4,a5,a4
     8b0:	00074703          	lbu	a4,0(a4)
     8b4:	00e101a3          	sb	a4,3(sp)
     8b8:	16040263          	beqz	s0,a1c <printint+0x248>
     8bc:	02b46733          	rem	a4,s0,a1
     8c0:	02b44433          	div	s0,s0,a1
     8c4:	00e78733          	add	a4,a5,a4
     8c8:	00074703          	lbu	a4,0(a4)
     8cc:	00e10223          	sb	a4,4(sp)
     8d0:	14040e63          	beqz	s0,a2c <printint+0x258>
     8d4:	02b46733          	rem	a4,s0,a1
     8d8:	02b44433          	div	s0,s0,a1
     8dc:	00e78733          	add	a4,a5,a4
     8e0:	00074703          	lbu	a4,0(a4)
     8e4:	00e102a3          	sb	a4,5(sp)
     8e8:	14040a63          	beqz	s0,a3c <printint+0x268>
     8ec:	02b46733          	rem	a4,s0,a1
     8f0:	02b44433          	div	s0,s0,a1
     8f4:	00e78733          	add	a4,a5,a4
     8f8:	00074703          	lbu	a4,0(a4)
     8fc:	00e10323          	sb	a4,6(sp)
     900:	14040663          	beqz	s0,a4c <printint+0x278>
     904:	02b46733          	rem	a4,s0,a1
     908:	02b44433          	div	s0,s0,a1
     90c:	00e78733          	add	a4,a5,a4
     910:	00074703          	lbu	a4,0(a4)
     914:	00e103a3          	sb	a4,7(sp)
     918:	14040e63          	beqz	s0,a74 <printint+0x2a0>
     91c:	02b46733          	rem	a4,s0,a1
     920:	02b44433          	div	s0,s0,a1
     924:	00e78733          	add	a4,a5,a4
     928:	00074703          	lbu	a4,0(a4)
     92c:	00e10423          	sb	a4,8(sp)
     930:	16040263          	beqz	s0,a94 <printint+0x2c0>
     934:	02b46733          	rem	a4,s0,a1
     938:	02b44433          	div	s0,s0,a1
     93c:	00e78733          	add	a4,a5,a4
     940:	00074703          	lbu	a4,0(a4)
     944:	00e104a3          	sb	a4,9(sp)
     948:	14040e63          	beqz	s0,aa4 <printint+0x2d0>
     94c:	02b46733          	rem	a4,s0,a1
     950:	02b44433          	div	s0,s0,a1
     954:	00e78733          	add	a4,a5,a4
     958:	00074703          	lbu	a4,0(a4)
     95c:	00e10523          	sb	a4,10(sp)
     960:	14040a63          	beqz	s0,ab4 <printint+0x2e0>
     964:	02b46733          	rem	a4,s0,a1
     968:	02b44433          	div	s0,s0,a1
     96c:	00e78733          	add	a4,a5,a4
     970:	00074703          	lbu	a4,0(a4)
     974:	00e105a3          	sb	a4,11(sp)
     978:	14040663          	beqz	s0,ac4 <printint+0x2f0>
     97c:	02b46733          	rem	a4,s0,a1
     980:	02b44433          	div	s0,s0,a1
     984:	00e78733          	add	a4,a5,a4
     988:	00074703          	lbu	a4,0(a4)
     98c:	00e10623          	sb	a4,12(sp)
     990:	14040263          	beqz	s0,ad4 <printint+0x300>
     994:	02b46733          	rem	a4,s0,a1
     998:	02b44433          	div	s0,s0,a1
     99c:	00e78733          	add	a4,a5,a4
     9a0:	00074703          	lbu	a4,0(a4)
     9a4:	00e106a3          	sb	a4,13(sp)
     9a8:	0a040a63          	beqz	s0,a5c <printint+0x288>
     9ac:	02b46633          	rem	a2,s0,a1
     9b0:	02b44733          	div	a4,s0,a1
     9b4:	00c78633          	add	a2,a5,a2
     9b8:	00064603          	lbu	a2,0(a2)
     9bc:	00c10723          	sb	a2,14(sp)
     9c0:	12070263          	beqz	a4,ae4 <printint+0x310>
     9c4:	02b76633          	rem	a2,a4,a1
     9c8:	00f00413          	li	s0,15
     9cc:	01000713          	li	a4,16
     9d0:	00c787b3          	add	a5,a5,a2
     9d4:	0007c783          	lbu	a5,0(a5)
     9d8:	00f107a3          	sb	a5,15(sp)
     9dc:	00068a63          	beqz	a3,9f0 <printint+0x21c>
     9e0:	002707b3          	add	a5,a4,sp
     9e4:	02d00693          	li	a3,45
     9e8:	00070413          	mv	s0,a4
     9ec:	00d78023          	sb	a3,0(a5)
     9f0:	00810433          	add	s0,sp,s0
     9f4:	fff10493          	addi	s1,sp,-1
     9f8:	00044503          	lbu	a0,0(s0)
     9fc:	fff40413          	addi	s0,s0,-1
     a00:	001000ef          	jal	1200 <putchar>
     a04:	fe849ae3          	bne	s1,s0,9f8 <printint+0x224>
     a08:	01c12083          	lw	ra,28(sp)
     a0c:	01812403          	lw	s0,24(sp)
     a10:	01412483          	lw	s1,20(sp)
     a14:	02010113          	addi	sp,sp,32
     a18:	00008067          	ret
     a1c:	00400713          	li	a4,4
     a20:	00300413          	li	s0,3
     a24:	fc0686e3          	beqz	a3,9f0 <printint+0x21c>
     a28:	fb9ff06f          	j	9e0 <printint+0x20c>
     a2c:	00500713          	li	a4,5
     a30:	00400413          	li	s0,4
     a34:	fa068ee3          	beqz	a3,9f0 <printint+0x21c>
     a38:	fa9ff06f          	j	9e0 <printint+0x20c>
     a3c:	00600713          	li	a4,6
     a40:	00500413          	li	s0,5
     a44:	fa0686e3          	beqz	a3,9f0 <printint+0x21c>
     a48:	f99ff06f          	j	9e0 <printint+0x20c>
     a4c:	00700713          	li	a4,7
     a50:	00600413          	li	s0,6
     a54:	f8068ee3          	beqz	a3,9f0 <printint+0x21c>
     a58:	f89ff06f          	j	9e0 <printint+0x20c>
     a5c:	00e00713          	li	a4,14
     a60:	00d00413          	li	s0,13
     a64:	f80686e3          	beqz	a3,9f0 <printint+0x21c>
     a68:	f79ff06f          	j	9e0 <printint+0x20c>
     a6c:	00100413          	li	s0,1
     a70:	f81ff06f          	j	9f0 <printint+0x21c>
     a74:	00800713          	li	a4,8
     a78:	00700413          	li	s0,7
     a7c:	f6068ae3          	beqz	a3,9f0 <printint+0x21c>
     a80:	f61ff06f          	j	9e0 <printint+0x20c>
     a84:	00300713          	li	a4,3
     a88:	f59ff06f          	j	9e0 <printint+0x20c>
     a8c:	00200413          	li	s0,2
     a90:	f61ff06f          	j	9f0 <printint+0x21c>
     a94:	00900713          	li	a4,9
     a98:	00800413          	li	s0,8
     a9c:	f4068ae3          	beqz	a3,9f0 <printint+0x21c>
     aa0:	f41ff06f          	j	9e0 <printint+0x20c>
     aa4:	00a00713          	li	a4,10
     aa8:	00900413          	li	s0,9
     aac:	f40682e3          	beqz	a3,9f0 <printint+0x21c>
     ab0:	f31ff06f          	j	9e0 <printint+0x20c>
     ab4:	00b00713          	li	a4,11
     ab8:	00a00413          	li	s0,10
     abc:	f2068ae3          	beqz	a3,9f0 <printint+0x21c>
     ac0:	f21ff06f          	j	9e0 <printint+0x20c>
     ac4:	00c00713          	li	a4,12
     ac8:	00b00413          	li	s0,11
     acc:	f20682e3          	beqz	a3,9f0 <printint+0x21c>
     ad0:	f11ff06f          	j	9e0 <printint+0x20c>
     ad4:	00d00713          	li	a4,13
     ad8:	00c00413          	li	s0,12
     adc:	f0068ae3          	beqz	a3,9f0 <printint+0x21c>
     ae0:	f01ff06f          	j	9e0 <printint+0x20c>
     ae4:	00f00713          	li	a4,15
     ae8:	00e00413          	li	s0,14
     aec:	f00682e3          	beqz	a3,9f0 <printint+0x21c>
     af0:	ef1ff06f          	j	9e0 <printint+0x20c>

00000af4 <printf>:
     af4:	f9010113          	addi	sp,sp,-112
     af8:	03312e23          	sw	s3,60(sp)
     afc:	04112623          	sw	ra,76(sp)
     b00:	00050993          	mv	s3,a0
     b04:	00054503          	lbu	a0,0(a0)
     b08:	05410313          	addi	t1,sp,84
     b0c:	04b12a23          	sw	a1,84(sp)
     b10:	04c12c23          	sw	a2,88(sp)
     b14:	04d12e23          	sw	a3,92(sp)
     b18:	06e12023          	sw	a4,96(sp)
     b1c:	06f12223          	sw	a5,100(sp)
     b20:	07012423          	sw	a6,104(sp)
     b24:	07112623          	sw	a7,108(sp)
     b28:	00612623          	sw	t1,12(sp)
     b2c:	28050263          	beqz	a0,db0 <printf+0x2bc>
     b30:	03612823          	sw	s6,48(sp)
     b34:	0000cb37          	lui	s6,0xc
     b38:	04912223          	sw	s1,68(sp)
     b3c:	05212023          	sw	s2,64(sp)
     b40:	03412c23          	sw	s4,56(sp)
     b44:	03512a23          	sw	s5,52(sp)
     b48:	03712623          	sw	s7,44(sp)
     b4c:	03812423          	sw	s8,40(sp)
     b50:	04812423          	sw	s0,72(sp)
     b54:	00000493          	li	s1,0
     b58:	c14b0b13          	addi	s6,s6,-1004 # bc14 <digits.0>
     b5c:	02500a13          	li	s4,37
     b60:	07000a93          	li	s5,112
     b64:	01010c13          	addi	s8,sp,16
     b68:	00f10913          	addi	s2,sp,15
     b6c:	07300b93          	li	s7,115
     b70:	27451463          	bne	a0,s4,dd8 <printf+0x2e4>
     b74:	00148493          	addi	s1,s1,1
     b78:	009987b3          	add	a5,s3,s1
     b7c:	0007c403          	lbu	s0,0(a5)
     b80:	20040863          	beqz	s0,d90 <printf+0x29c>
     b84:	29540c63          	beq	s0,s5,e1c <printf+0x328>
     b88:	228aec63          	bltu	s5,s0,dc0 <printf+0x2cc>
     b8c:	41440c63          	beq	s0,s4,fa4 <printf+0x4b0>
     b90:	06400793          	li	a5,100
     b94:	22f41c63          	bne	s0,a5,dcc <printf+0x2d8>
     b98:	00c12783          	lw	a5,12(sp)
     b9c:	0007a703          	lw	a4,0(a5)
     ba0:	00478793          	addi	a5,a5,4
     ba4:	00f12623          	sw	a5,12(sp)
     ba8:	40074463          	bltz	a4,fb0 <printf+0x4bc>
     bac:	66666437          	lui	s0,0x66666
     bb0:	66740413          	addi	s0,s0,1639 # 66666667 <end+0x66659f6a>
     bb4:	02871433          	mulh	s0,a4,s0
     bb8:	41f75793          	srai	a5,a4,0x1f
     bbc:	0000c6b7          	lui	a3,0xc
     bc0:	c1468693          	addi	a3,a3,-1004 # bc14 <digits.0>
     bc4:	40245413          	srai	s0,s0,0x2
     bc8:	40f40433          	sub	s0,s0,a5
     bcc:	00241793          	slli	a5,s0,0x2
     bd0:	008787b3          	add	a5,a5,s0
     bd4:	00179793          	slli	a5,a5,0x1
     bd8:	40f70733          	sub	a4,a4,a5
     bdc:	00e68733          	add	a4,a3,a4
     be0:	00074783          	lbu	a5,0(a4)
     be4:	00f10823          	sb	a5,16(sp)
     be8:	18040263          	beqz	s0,d6c <printf+0x278>
     bec:	ccccd7b7          	lui	a5,0xccccd
     bf0:	ccd78793          	addi	a5,a5,-819 # cccccccd <end+0xcccc05d0>
     bf4:	02f43733          	mulhu	a4,s0,a5
     bf8:	00375713          	srli	a4,a4,0x3
     bfc:	00271613          	slli	a2,a4,0x2
     c00:	00e60633          	add	a2,a2,a4
     c04:	00161613          	slli	a2,a2,0x1
     c08:	40c40433          	sub	s0,s0,a2
     c0c:	00868433          	add	s0,a3,s0
     c10:	00044603          	lbu	a2,0(s0)
     c14:	00100413          	li	s0,1
     c18:	00c108a3          	sb	a2,17(sp)
     c1c:	14070863          	beqz	a4,d6c <printf+0x278>
     c20:	02f737b3          	mulhu	a5,a4,a5
     c24:	0037d793          	srli	a5,a5,0x3
     c28:	00279613          	slli	a2,a5,0x2
     c2c:	00f60633          	add	a2,a2,a5
     c30:	00161613          	slli	a2,a2,0x1
     c34:	40c70733          	sub	a4,a4,a2
     c38:	00e68733          	add	a4,a3,a4
     c3c:	00074703          	lbu	a4,0(a4)
     c40:	00e10923          	sb	a4,18(sp)
     c44:	42078063          	beqz	a5,1064 <printf+0x570>
     c48:	00000593          	li	a1,0
     c4c:	ccccd737          	lui	a4,0xccccd
     c50:	ccd70713          	addi	a4,a4,-819 # cccccccd <end+0xcccc05d0>
     c54:	02e7b633          	mulhu	a2,a5,a4
     c58:	00365613          	srli	a2,a2,0x3
     c5c:	00261513          	slli	a0,a2,0x2
     c60:	00c50533          	add	a0,a0,a2
     c64:	00151513          	slli	a0,a0,0x1
     c68:	40a787b3          	sub	a5,a5,a0
     c6c:	00f687b3          	add	a5,a3,a5
     c70:	0007c783          	lbu	a5,0(a5)
     c74:	00f109a3          	sb	a5,19(sp)
     c78:	40060663          	beqz	a2,1084 <printf+0x590>
     c7c:	02e637b3          	mulhu	a5,a2,a4
     c80:	0037d793          	srli	a5,a5,0x3
     c84:	00279513          	slli	a0,a5,0x2
     c88:	00f50533          	add	a0,a0,a5
     c8c:	00151513          	slli	a0,a0,0x1
     c90:	40a60633          	sub	a2,a2,a0
     c94:	00c68633          	add	a2,a3,a2
     c98:	00064603          	lbu	a2,0(a2)
     c9c:	00c10a23          	sb	a2,20(sp)
     ca0:	3e078863          	beqz	a5,1090 <printf+0x59c>
     ca4:	02e7b633          	mulhu	a2,a5,a4
     ca8:	00365613          	srli	a2,a2,0x3
     cac:	00261513          	slli	a0,a2,0x2
     cb0:	00c50533          	add	a0,a0,a2
     cb4:	00151513          	slli	a0,a0,0x1
     cb8:	40a787b3          	sub	a5,a5,a0
     cbc:	00f687b3          	add	a5,a3,a5
     cc0:	0007c783          	lbu	a5,0(a5)
     cc4:	00f10aa3          	sb	a5,21(sp)
     cc8:	3e060263          	beqz	a2,10ac <printf+0x5b8>
     ccc:	02e637b3          	mulhu	a5,a2,a4
     cd0:	0037d793          	srli	a5,a5,0x3
     cd4:	00279513          	slli	a0,a5,0x2
     cd8:	00f50533          	add	a0,a0,a5
     cdc:	00151513          	slli	a0,a0,0x1
     ce0:	40a60633          	sub	a2,a2,a0
     ce4:	00c68633          	add	a2,a3,a2
     ce8:	00064603          	lbu	a2,0(a2)
     cec:	00c10b23          	sb	a2,22(sp)
     cf0:	3c078863          	beqz	a5,10c0 <printf+0x5cc>
     cf4:	02e7b633          	mulhu	a2,a5,a4
     cf8:	00365613          	srli	a2,a2,0x3
     cfc:	00261513          	slli	a0,a2,0x2
     d00:	00c50533          	add	a0,a0,a2
     d04:	00151513          	slli	a0,a0,0x1
     d08:	40a787b3          	sub	a5,a5,a0
     d0c:	00f687b3          	add	a5,a3,a5
     d10:	0007c783          	lbu	a5,0(a5)
     d14:	00f10ba3          	sb	a5,23(sp)
     d18:	3c060263          	beqz	a2,10dc <printf+0x5e8>
     d1c:	02e63733          	mulhu	a4,a2,a4
     d20:	00375713          	srli	a4,a4,0x3
     d24:	00271793          	slli	a5,a4,0x2
     d28:	00e787b3          	add	a5,a5,a4
     d2c:	00179793          	slli	a5,a5,0x1
     d30:	40f60633          	sub	a2,a2,a5
     d34:	00c68633          	add	a2,a3,a2
     d38:	00064783          	lbu	a5,0(a2)
     d3c:	00f10c23          	sb	a5,24(sp)
     d40:	30070c63          	beqz	a4,1058 <printf+0x564>
     d44:	00e68733          	add	a4,a3,a4
     d48:	00074703          	lbu	a4,0(a4)
     d4c:	00a00793          	li	a5,10
     d50:	00900413          	li	s0,9
     d54:	00e10ca3          	sb	a4,25(sp)
     d58:	00058a63          	beqz	a1,d6c <printf+0x278>
     d5c:	00278733          	add	a4,a5,sp
     d60:	02d00693          	li	a3,45
     d64:	00078413          	mv	s0,a5
     d68:	00d70823          	sb	a3,16(a4)
     d6c:	01840433          	add	s0,s0,s8
     d70:	00044503          	lbu	a0,0(s0)
     d74:	fff40413          	addi	s0,s0,-1
     d78:	488000ef          	jal	1200 <putchar>
     d7c:	fe891ae3          	bne	s2,s0,d70 <printf+0x27c>
     d80:	00148493          	addi	s1,s1,1
     d84:	009987b3          	add	a5,s3,s1
     d88:	0007c503          	lbu	a0,0(a5)
     d8c:	de0512e3          	bnez	a0,b70 <printf+0x7c>
     d90:	04812403          	lw	s0,72(sp)
     d94:	04412483          	lw	s1,68(sp)
     d98:	04012903          	lw	s2,64(sp)
     d9c:	03812a03          	lw	s4,56(sp)
     da0:	03412a83          	lw	s5,52(sp)
     da4:	03012b03          	lw	s6,48(sp)
     da8:	02c12b83          	lw	s7,44(sp)
     dac:	02812c03          	lw	s8,40(sp)
     db0:	04c12083          	lw	ra,76(sp)
     db4:	03c12983          	lw	s3,60(sp)
     db8:	07010113          	addi	sp,sp,112
     dbc:	00008067          	ret
     dc0:	03740863          	beq	s0,s7,df0 <printf+0x2fc>
     dc4:	07800793          	li	a5,120
     dc8:	04f40a63          	beq	s0,a5,e1c <printf+0x328>
     dcc:	02500513          	li	a0,37
     dd0:	430000ef          	jal	1200 <putchar>
     dd4:	00040513          	mv	a0,s0
     dd8:	428000ef          	jal	1200 <putchar>
     ddc:	00148493          	addi	s1,s1,1
     de0:	009987b3          	add	a5,s3,s1
     de4:	0007c503          	lbu	a0,0(a5)
     de8:	d80514e3          	bnez	a0,b70 <printf+0x7c>
     dec:	fa5ff06f          	j	d90 <printf+0x29c>
     df0:	00c12783          	lw	a5,12(sp)
     df4:	0007a403          	lw	s0,0(a5)
     df8:	00478793          	addi	a5,a5,4
     dfc:	00f12623          	sw	a5,12(sp)
     e00:	00041863          	bnez	s0,e10 <printf+0x31c>
     e04:	2440006f          	j	1048 <printf+0x554>
     e08:	3f8000ef          	jal	1200 <putchar>
     e0c:	00140413          	addi	s0,s0,1
     e10:	00044503          	lbu	a0,0(s0)
     e14:	fe051ae3          	bnez	a0,e08 <printf+0x314>
     e18:	fc5ff06f          	j	ddc <printf+0x2e8>
     e1c:	00c12783          	lw	a5,12(sp)
     e20:	0007a683          	lw	a3,0(a5)
     e24:	00478793          	addi	a5,a5,4
     e28:	00f12623          	sw	a5,12(sp)
     e2c:	41f6d793          	srai	a5,a3,0x1f
     e30:	01c7d613          	srli	a2,a5,0x1c
     e34:	00c68733          	add	a4,a3,a2
     e38:	00f77713          	andi	a4,a4,15
     e3c:	40c70733          	sub	a4,a4,a2
     e40:	00eb0733          	add	a4,s6,a4
     e44:	00074703          	lbu	a4,0(a4)
     e48:	00f7f793          	andi	a5,a5,15
     e4c:	00d787b3          	add	a5,a5,a3
     e50:	00e10823          	sb	a4,16(sp)
     e54:	4047d413          	srai	s0,a5,0x4
     e58:	12040a63          	beqz	s0,f8c <printf+0x498>
     e5c:	41f7d793          	srai	a5,a5,0x1f
     e60:	01c7d693          	srli	a3,a5,0x1c
     e64:	00d40733          	add	a4,s0,a3
     e68:	00f77713          	andi	a4,a4,15
     e6c:	40d70733          	sub	a4,a4,a3
     e70:	00eb0733          	add	a4,s6,a4
     e74:	00074703          	lbu	a4,0(a4)
     e78:	00f7f793          	andi	a5,a5,15
     e7c:	008787b3          	add	a5,a5,s0
     e80:	00e108a3          	sb	a4,17(sp)
     e84:	4047d693          	srai	a3,a5,0x4
     e88:	1e068263          	beqz	a3,106c <printf+0x578>
     e8c:	41f7d793          	srai	a5,a5,0x1f
     e90:	01c7d613          	srli	a2,a5,0x1c
     e94:	00c68733          	add	a4,a3,a2
     e98:	00f77713          	andi	a4,a4,15
     e9c:	40c70733          	sub	a4,a4,a2
     ea0:	00eb0733          	add	a4,s6,a4
     ea4:	00074703          	lbu	a4,0(a4)
     ea8:	00f7f793          	andi	a5,a5,15
     eac:	00d787b3          	add	a5,a5,a3
     eb0:	00e10923          	sb	a4,18(sp)
     eb4:	4047d693          	srai	a3,a5,0x4
     eb8:	1a068e63          	beqz	a3,1074 <printf+0x580>
     ebc:	41f7d793          	srai	a5,a5,0x1f
     ec0:	01c7d613          	srli	a2,a5,0x1c
     ec4:	00c68733          	add	a4,a3,a2
     ec8:	00f77713          	andi	a4,a4,15
     ecc:	40c70733          	sub	a4,a4,a2
     ed0:	00eb0733          	add	a4,s6,a4
     ed4:	00074703          	lbu	a4,0(a4)
     ed8:	00f7f793          	andi	a5,a5,15
     edc:	00d787b3          	add	a5,a5,a3
     ee0:	00e109a3          	sb	a4,19(sp)
     ee4:	4047d693          	srai	a3,a5,0x4
     ee8:	18068a63          	beqz	a3,107c <printf+0x588>
     eec:	41f7d793          	srai	a5,a5,0x1f
     ef0:	01c7d613          	srli	a2,a5,0x1c
     ef4:	00c68733          	add	a4,a3,a2
     ef8:	00f77713          	andi	a4,a4,15
     efc:	40c70733          	sub	a4,a4,a2
     f00:	00eb0733          	add	a4,s6,a4
     f04:	00074703          	lbu	a4,0(a4)
     f08:	00f7f793          	andi	a5,a5,15
     f0c:	00d787b3          	add	a5,a5,a3
     f10:	00e10a23          	sb	a4,20(sp)
     f14:	4047d693          	srai	a3,a5,0x4
     f18:	18068263          	beqz	a3,109c <printf+0x5a8>
     f1c:	41f7d793          	srai	a5,a5,0x1f
     f20:	01c7d613          	srli	a2,a5,0x1c
     f24:	00c68733          	add	a4,a3,a2
     f28:	00f77713          	andi	a4,a4,15
     f2c:	40c70733          	sub	a4,a4,a2
     f30:	00eb0733          	add	a4,s6,a4
     f34:	00074703          	lbu	a4,0(a4)
     f38:	00f7f793          	andi	a5,a5,15
     f3c:	00d787b3          	add	a5,a5,a3
     f40:	00e10aa3          	sb	a4,21(sp)
     f44:	4047d693          	srai	a3,a5,0x4
     f48:	14068e63          	beqz	a3,10a4 <printf+0x5b0>
     f4c:	41f7d793          	srai	a5,a5,0x1f
     f50:	01c7d613          	srli	a2,a5,0x1c
     f54:	00c68733          	add	a4,a3,a2
     f58:	00f77713          	andi	a4,a4,15
     f5c:	40c70733          	sub	a4,a4,a2
     f60:	00eb0733          	add	a4,s6,a4
     f64:	00074703          	lbu	a4,0(a4)
     f68:	00f7f793          	andi	a5,a5,15
     f6c:	00d787b3          	add	a5,a5,a3
     f70:	00e10b23          	sb	a4,22(sp)
     f74:	4047d793          	srai	a5,a5,0x4
     f78:	14078a63          	beqz	a5,10cc <printf+0x5d8>
     f7c:	00fb07b3          	add	a5,s6,a5
     f80:	0007c783          	lbu	a5,0(a5)
     f84:	00700413          	li	s0,7
     f88:	00f10ba3          	sb	a5,23(sp)
     f8c:	01840433          	add	s0,s0,s8
     f90:	00044503          	lbu	a0,0(s0)
     f94:	fff40413          	addi	s0,s0,-1
     f98:	268000ef          	jal	1200 <putchar>
     f9c:	fe891ae3          	bne	s2,s0,f90 <printf+0x49c>
     fa0:	e3dff06f          	j	ddc <printf+0x2e8>
     fa4:	000a0513          	mv	a0,s4
     fa8:	258000ef          	jal	1200 <putchar>
     fac:	e31ff06f          	j	ddc <printf+0x2e8>
     fb0:	ccccd7b7          	lui	a5,0xccccd
     fb4:	40e00733          	neg	a4,a4
     fb8:	ccd78793          	addi	a5,a5,-819 # cccccccd <end+0xcccc05d0>
     fbc:	02f73633          	mulhu	a2,a4,a5
     fc0:	0000c6b7          	lui	a3,0xc
     fc4:	c1468693          	addi	a3,a3,-1004 # bc14 <digits.0>
     fc8:	00365613          	srli	a2,a2,0x3
     fcc:	00261593          	slli	a1,a2,0x2
     fd0:	00c585b3          	add	a1,a1,a2
     fd4:	00159593          	slli	a1,a1,0x1
     fd8:	40b70733          	sub	a4,a4,a1
     fdc:	00e68733          	add	a4,a3,a4
     fe0:	00074703          	lbu	a4,0(a4)
     fe4:	00e10823          	sb	a4,16(sp)
     fe8:	0c060863          	beqz	a2,10b8 <printf+0x5c4>
     fec:	02f63733          	mulhu	a4,a2,a5
     ff0:	00375713          	srli	a4,a4,0x3
     ff4:	00271593          	slli	a1,a4,0x2
     ff8:	00e585b3          	add	a1,a1,a4
     ffc:	00159593          	slli	a1,a1,0x1
    1000:	40b60633          	sub	a2,a2,a1
    1004:	00c68633          	add	a2,a3,a2
    1008:	00064603          	lbu	a2,0(a2)
    100c:	00c108a3          	sb	a2,17(sp)
    1010:	0c070263          	beqz	a4,10d4 <printf+0x5e0>
    1014:	02f737b3          	mulhu	a5,a4,a5
    1018:	00100593          	li	a1,1
    101c:	0037d793          	srli	a5,a5,0x3
    1020:	00279613          	slli	a2,a5,0x2
    1024:	00f60633          	add	a2,a2,a5
    1028:	00161613          	slli	a2,a2,0x1
    102c:	40c70733          	sub	a4,a4,a2
    1030:	00e68733          	add	a4,a3,a4
    1034:	00074703          	lbu	a4,0(a4)
    1038:	00e10923          	sb	a4,18(sp)
    103c:	c00798e3          	bnez	a5,c4c <printf+0x158>
    1040:	00300793          	li	a5,3
    1044:	d19ff06f          	j	d5c <printf+0x268>
    1048:	0000c437          	lui	s0,0xc
    104c:	99040413          	addi	s0,s0,-1648 # b990 <pass+0x2ec>
    1050:	02800513          	li	a0,40
    1054:	db5ff06f          	j	e08 <printf+0x314>
    1058:	00900793          	li	a5,9
    105c:	00800413          	li	s0,8
    1060:	cf9ff06f          	j	d58 <printf+0x264>
    1064:	00200413          	li	s0,2
    1068:	d05ff06f          	j	d6c <printf+0x278>
    106c:	00100413          	li	s0,1
    1070:	f1dff06f          	j	f8c <printf+0x498>
    1074:	00200413          	li	s0,2
    1078:	f15ff06f          	j	f8c <printf+0x498>
    107c:	00300413          	li	s0,3
    1080:	f0dff06f          	j	f8c <printf+0x498>
    1084:	00400793          	li	a5,4
    1088:	00300413          	li	s0,3
    108c:	ccdff06f          	j	d58 <printf+0x264>
    1090:	00500793          	li	a5,5
    1094:	00400413          	li	s0,4
    1098:	cc1ff06f          	j	d58 <printf+0x264>
    109c:	00400413          	li	s0,4
    10a0:	eedff06f          	j	f8c <printf+0x498>
    10a4:	00500413          	li	s0,5
    10a8:	ee5ff06f          	j	f8c <printf+0x498>
    10ac:	00600793          	li	a5,6
    10b0:	00500413          	li	s0,5
    10b4:	ca5ff06f          	j	d58 <printf+0x264>
    10b8:	00100793          	li	a5,1
    10bc:	ca1ff06f          	j	d5c <printf+0x268>
    10c0:	00700793          	li	a5,7
    10c4:	00600413          	li	s0,6
    10c8:	c91ff06f          	j	d58 <printf+0x264>
    10cc:	00600413          	li	s0,6
    10d0:	ebdff06f          	j	f8c <printf+0x498>
    10d4:	00200793          	li	a5,2
    10d8:	c85ff06f          	j	d5c <printf+0x268>
    10dc:	00800793          	li	a5,8
    10e0:	00700413          	li	s0,7
    10e4:	c75ff06f          	j	d58 <printf+0x264>

000010e8 <init_trap>:
    10e8:	000017b7          	lui	a5,0x1
    10ec:	26478793          	addi	a5,a5,612 # 1264 <trap_vector>
    10f0:	30579073          	csrw	mtvec,a5
    10f4:	00008067          	ret

000010f8 <trap_entry>:
    10f8:	0000c537          	lui	a0,0xc
    10fc:	ff010113          	addi	sp,sp,-16
    1100:	99850513          	addi	a0,a0,-1640 # b998 <pass+0x2f4>
    1104:	00112623          	sw	ra,12(sp)
    1108:	00812423          	sw	s0,8(sp)
    110c:	e8cff0ef          	jal	798 <puts>
    1110:	0000c537          	lui	a0,0xc
    1114:	9a850513          	addi	a0,a0,-1624 # b9a8 <pass+0x304>
    1118:	e80ff0ef          	jal	798 <puts>
    111c:	34202473          	csrr	s0,mcause
    1120:	00000613          	li	a2,0
    1124:	01000593          	li	a1,16
    1128:	00040513          	mv	a0,s0
    112c:	ea8ff0ef          	jal	7d4 <printint>
    1130:	0000c537          	lui	a0,0xc
    1134:	9b450513          	addi	a0,a0,-1612 # b9b4 <pass+0x310>
    1138:	e60ff0ef          	jal	798 <puts>
    113c:	00200793          	li	a5,2
    1140:	04f40463          	beq	s0,a5,1188 <trap_entry+0x90>
    1144:	00b00793          	li	a5,11
    1148:	04f40e63          	beq	s0,a5,11a4 <trap_entry+0xac>
    114c:	00700793          	li	a5,7
    1150:	00f40e63          	beq	s0,a5,116c <trap_entry+0x74>
    1154:	00812403          	lw	s0,8(sp)
    1158:	00c12083          	lw	ra,12(sp)
    115c:	0000c537          	lui	a0,0xc
    1160:	a0c50513          	addi	a0,a0,-1524 # ba0c <pass+0x368>
    1164:	01010113          	addi	sp,sp,16
    1168:	e30ff06f          	j	798 <puts>
    116c:	0000c537          	lui	a0,0xc
    1170:	9f050513          	addi	a0,a0,-1552 # b9f0 <pass+0x34c>
    1174:	e24ff0ef          	jal	798 <puts>
    1178:	00812403          	lw	s0,8(sp)
    117c:	00c12083          	lw	ra,12(sp)
    1180:	01010113          	addi	sp,sp,16
    1184:	0d00006f          	j	1254 <clear_timer>
    1188:	0000c537          	lui	a0,0xc
    118c:	9b850513          	addi	a0,a0,-1608 # b9b8 <pass+0x314>
    1190:	e08ff0ef          	jal	798 <puts>
    1194:	00812403          	lw	s0,8(sp)
    1198:	00c12083          	lw	ra,12(sp)
    119c:	01010113          	addi	sp,sp,16
    11a0:	0840006f          	j	1224 <ebreak>
    11a4:	00812403          	lw	s0,8(sp)
    11a8:	00c12083          	lw	ra,12(sp)
    11ac:	0000c537          	lui	a0,0xc
    11b0:	9dc50513          	addi	a0,a0,-1572 # b9dc <pass+0x338>
    11b4:	01010113          	addi	sp,sp,16
    11b8:	de0ff06f          	j	798 <puts>

000011bc <pvadd>:
    11bc:	00b5155b          	.word	0x00b5155b
    11c0:	00008067          	ret

000011c4 <pvmul>:
    11c4:	02b5155b          	.word	0x02b5155b
    11c8:	00008067          	ret

000011cc <pvmul_upper>:
    11cc:	06b5155b          	.word	0x06b5155b
    11d0:	00008067          	ret

000011d4 <pvmac>:
    11d4:	04b5155b          	.word	0x04b5155b
    11d8:	00008067          	ret

000011dc <illegal_instruction>:
    11dc:	00000000          	.word	0x00000000

000011e0 <write_cycle_counter>:
    11e0:	00008067          	ret

000011e4 <read_cycle_counter>:
    11e4:	00008067          	ret

000011e8 <getchar>:
    11e8:	10000fb7          	lui	t6,0x10000

000011ec <getchar_wait>:
    11ec:	004f9283          	lh	t0,4(t6) # 10000004 <end+0xfff3907>
    11f0:	4082d313          	srai	t1,t0,0x8
    11f4:	fe030ce3          	beqz	t1,11ec <getchar_wait>
    11f8:	0ff2f513          	zext.b	a0,t0
    11fc:	00008067          	ret

00001200 <putchar>:
    1200:	10000fb7          	lui	t6,0x10000
    1204:	00af8023          	sb	a0,0(t6) # 10000000 <end+0xfff3903>
    1208:	00000513          	li	a0,0
    120c:	00008067          	ret

00001210 <fflush>:
    1210:	10000fb7          	lui	t6,0x10000

00001214 <fflush_wait>:
    1214:	008f8283          	lb	t0,8(t6) # 10000008 <end+0xfff390b>
    1218:	fe029ee3          	bnez	t0,1214 <fflush_wait>
    121c:	00000513          	li	a0,0
    1220:	00008067          	ret

00001224 <ebreak>:
    1224:	00100073          	ebreak

00001228 <halt>:
    1228:	0000006f          	j	1228 <halt>

0000122c <set_timer>:
    122c:	200002b7          	lui	t0,0x20000
    1230:	00a2a423          	sw	a0,8(t0) # 20000008 <end+0x1fff390b>
    1234:	00b2a623          	sw	a1,12(t0)
    1238:	00008067          	ret

0000123c <read_timer>:
    123c:	200002b7          	lui	t0,0x20000
    1240:	0082a303          	lw	t1,8(t0) # 20000008 <end+0x1fff390b>
    1244:	00c2a383          	lw	t2,12(t0)
    1248:	00652023          	sw	t1,0(a0)
    124c:	0075a023          	sw	t2,0(a1)
    1250:	00008067          	ret

00001254 <clear_timer>:
    1254:	200002b7          	lui	t0,0x20000
    1258:	0002a423          	sw	zero,8(t0) # 20000008 <end+0x1fff390b>
    125c:	0002a623          	sw	zero,12(t0)
    1260:	00008067          	ret

00001264 <trap_vector>:
    1264:	f8410113          	addi	sp,sp,-124
    1268:	00112023          	sw	ra,0(sp)
    126c:	00312423          	sw	gp,8(sp)
    1270:	00412623          	sw	tp,12(sp)
    1274:	00512823          	sw	t0,16(sp)
    1278:	00612a23          	sw	t1,20(sp)
    127c:	00712c23          	sw	t2,24(sp)
    1280:	00812e23          	sw	s0,28(sp)
    1284:	02912023          	sw	s1,32(sp)
    1288:	02a12223          	sw	a0,36(sp)
    128c:	02b12423          	sw	a1,40(sp)
    1290:	02c12623          	sw	a2,44(sp)
    1294:	02d12823          	sw	a3,48(sp)
    1298:	02e12a23          	sw	a4,52(sp)
    129c:	02f12c23          	sw	a5,56(sp)
    12a0:	03012e23          	sw	a6,60(sp)
    12a4:	05112023          	sw	a7,64(sp)
    12a8:	05212223          	sw	s2,68(sp)
    12ac:	05312423          	sw	s3,72(sp)
    12b0:	05412623          	sw	s4,76(sp)
    12b4:	05512823          	sw	s5,80(sp)
    12b8:	05612a23          	sw	s6,84(sp)
    12bc:	05712c23          	sw	s7,88(sp)
    12c0:	05812e23          	sw	s8,92(sp)
    12c4:	07912023          	sw	s9,96(sp)
    12c8:	07a12223          	sw	s10,100(sp)
    12cc:	07b12423          	sw	s11,104(sp)
    12d0:	07c12623          	sw	t3,108(sp)
    12d4:	07d12823          	sw	t4,112(sp)
    12d8:	07e12a23          	sw	t5,116(sp)
    12dc:	07f12c23          	sw	t6,120(sp)
    12e0:	07c10293          	addi	t0,sp,124
    12e4:	00512223          	sw	t0,4(sp)
    12e8:	e11ff0ef          	jal	10f8 <trap_entry>

000012ec <trap_return>:
    12ec:	00812183          	lw	gp,8(sp)
    12f0:	00c12203          	lw	tp,12(sp)
    12f4:	01012283          	lw	t0,16(sp)
    12f8:	01412303          	lw	t1,20(sp)
    12fc:	01812383          	lw	t2,24(sp)
    1300:	01c12403          	lw	s0,28(sp)
    1304:	02012483          	lw	s1,32(sp)
    1308:	02412503          	lw	a0,36(sp)
    130c:	02812583          	lw	a1,40(sp)
    1310:	02c12603          	lw	a2,44(sp)
    1314:	03012683          	lw	a3,48(sp)
    1318:	03412703          	lw	a4,52(sp)
    131c:	03812783          	lw	a5,56(sp)
    1320:	03c12803          	lw	a6,60(sp)
    1324:	04012883          	lw	a7,64(sp)
    1328:	04412903          	lw	s2,68(sp)
    132c:	04812983          	lw	s3,72(sp)
    1330:	04c12a03          	lw	s4,76(sp)
    1334:	05012a83          	lw	s5,80(sp)
    1338:	05412b03          	lw	s6,84(sp)
    133c:	05812b83          	lw	s7,88(sp)
    1340:	05c12c03          	lw	s8,92(sp)
    1344:	06012c83          	lw	s9,96(sp)
    1348:	06412d03          	lw	s10,100(sp)
    134c:	06812d83          	lw	s11,104(sp)
    1350:	06c12e03          	lw	t3,108(sp)
    1354:	07012e83          	lw	t4,112(sp)
    1358:	07412f03          	lw	t5,116(sp)
    135c:	00800293          	li	t0,8
    1360:	30029073          	csrw	mstatus,t0
    1364:	07812f83          	lw	t6,120(sp)
    1368:	00012083          	lw	ra,0(sp)
    136c:	07c10113          	addi	sp,sp,124
    1370:	30200073          	mret

00001374 <ecall>:
    1374:	00000073          	ecall

00001378 <add>:
    1378:	00001537          	lui	a0,0x1
    137c:	39c50513          	addi	a0,a0,924 # 139c <.test_name>
    1380:	00000613          	li	a2,0
    1384:	10000637          	lui	a2,0x10000

00001388 <.prname_next>:
    1388:	00050583          	lb	a1,0(a0)
    138c:	00058a63          	beqz	a1,13a0 <.prname_done>
    1390:	00b62023          	sw	a1,0(a2) # 10000000 <end+0xfff3903>
    1394:	00150513          	addi	a0,a0,1
    1398:	ff1ff06f          	j	1388 <.prname_next>

0000139c <.test_name>:
    139c:	00646461          	.word	0x00646461

000013a0 <.prname_done>:
    13a0:	00000613          	li	a2,0
    13a4:	10000637          	lui	a2,0x10000
    13a8:	02e00593          	li	a1,46
    13ac:	00b62023          	sw	a1,0(a2) # 10000000 <end+0xfff3903>
    13b0:	00b62023          	sw	a1,0(a2)

000013b4 <test_2>:
    13b4:	00000093          	li	ra,0
    13b8:	00000113          	li	sp,0
    13bc:	002081b3          	add	gp,ra,sp
    13c0:	00000e93          	li	t4,0
    13c4:	00200e13          	li	t3,2
    13c8:	4dd19663          	bne	gp,t4,1894 <fail>

000013cc <test_3>:
    13cc:	00100093          	li	ra,1
    13d0:	00100113          	li	sp,1
    13d4:	002081b3          	add	gp,ra,sp
    13d8:	00200e93          	li	t4,2
    13dc:	00300e13          	li	t3,3
    13e0:	4bd19a63          	bne	gp,t4,1894 <fail>

000013e4 <test_4>:
    13e4:	00300093          	li	ra,3
    13e8:	00700113          	li	sp,7
    13ec:	002081b3          	add	gp,ra,sp
    13f0:	00a00e93          	li	t4,10
    13f4:	00400e13          	li	t3,4
    13f8:	49d19e63          	bne	gp,t4,1894 <fail>

000013fc <test_5>:
    13fc:	00000093          	li	ra,0
    1400:	ffff8137          	lui	sp,0xffff8
    1404:	002081b3          	add	gp,ra,sp
    1408:	ffff8eb7          	lui	t4,0xffff8
    140c:	00500e13          	li	t3,5
    1410:	49d19263          	bne	gp,t4,1894 <fail>

00001414 <test_6>:
    1414:	800000b7          	lui	ra,0x80000
    1418:	00000113          	li	sp,0
    141c:	002081b3          	add	gp,ra,sp
    1420:	80000eb7          	lui	t4,0x80000
    1424:	00600e13          	li	t3,6
    1428:	47d19663          	bne	gp,t4,1894 <fail>

0000142c <test_7>:
    142c:	800000b7          	lui	ra,0x80000
    1430:	ffff8137          	lui	sp,0xffff8
    1434:	002081b3          	add	gp,ra,sp
    1438:	7fff8eb7          	lui	t4,0x7fff8
    143c:	00700e13          	li	t3,7
    1440:	45d19a63          	bne	gp,t4,1894 <fail>

00001444 <test_8>:
    1444:	00000093          	li	ra,0
    1448:	00008137          	lui	sp,0x8
    144c:	fff10113          	addi	sp,sp,-1 # 7fff <test_12+0x7>
    1450:	002081b3          	add	gp,ra,sp
    1454:	00008eb7          	lui	t4,0x8
    1458:	fffe8e93          	addi	t4,t4,-1 # 7fff <test_12+0x7>
    145c:	00800e13          	li	t3,8
    1460:	43d19a63          	bne	gp,t4,1894 <fail>

00001464 <test_9>:
    1464:	800000b7          	lui	ra,0x80000
    1468:	fff08093          	addi	ra,ra,-1 # 7fffffff <end+0x7fff3902>
    146c:	00000113          	li	sp,0
    1470:	002081b3          	add	gp,ra,sp
    1474:	80000eb7          	lui	t4,0x80000
    1478:	fffe8e93          	addi	t4,t4,-1 # 7fffffff <end+0x7fff3902>
    147c:	00900e13          	li	t3,9
    1480:	41d19a63          	bne	gp,t4,1894 <fail>

00001484 <test_10>:
    1484:	800000b7          	lui	ra,0x80000
    1488:	fff08093          	addi	ra,ra,-1 # 7fffffff <end+0x7fff3902>
    148c:	00008137          	lui	sp,0x8
    1490:	fff10113          	addi	sp,sp,-1 # 7fff <test_12+0x7>
    1494:	002081b3          	add	gp,ra,sp
    1498:	80008eb7          	lui	t4,0x80008
    149c:	ffee8e93          	addi	t4,t4,-2 # 80007ffe <end+0x7fffb901>
    14a0:	00a00e13          	li	t3,10
    14a4:	3fd19863          	bne	gp,t4,1894 <fail>

000014a8 <test_11>:
    14a8:	800000b7          	lui	ra,0x80000
    14ac:	00008137          	lui	sp,0x8
    14b0:	fff10113          	addi	sp,sp,-1 # 7fff <test_12+0x7>
    14b4:	002081b3          	add	gp,ra,sp
    14b8:	80008eb7          	lui	t4,0x80008
    14bc:	fffe8e93          	addi	t4,t4,-1 # 80007fff <end+0x7fffb902>
    14c0:	00b00e13          	li	t3,11
    14c4:	3dd19863          	bne	gp,t4,1894 <fail>

000014c8 <test_12>:
    14c8:	800000b7          	lui	ra,0x80000
    14cc:	fff08093          	addi	ra,ra,-1 # 7fffffff <end+0x7fff3902>
    14d0:	ffff8137          	lui	sp,0xffff8
    14d4:	002081b3          	add	gp,ra,sp
    14d8:	7fff8eb7          	lui	t4,0x7fff8
    14dc:	fffe8e93          	addi	t4,t4,-1 # 7fff7fff <end+0x7ffeb902>
    14e0:	00c00e13          	li	t3,12
    14e4:	3bd19863          	bne	gp,t4,1894 <fail>

000014e8 <test_13>:
    14e8:	00000093          	li	ra,0
    14ec:	fff00113          	li	sp,-1
    14f0:	002081b3          	add	gp,ra,sp
    14f4:	fff00e93          	li	t4,-1
    14f8:	00d00e13          	li	t3,13
    14fc:	39d19c63          	bne	gp,t4,1894 <fail>

00001500 <test_14>:
    1500:	fff00093          	li	ra,-1
    1504:	00100113          	li	sp,1
    1508:	002081b3          	add	gp,ra,sp
    150c:	00000e93          	li	t4,0
    1510:	00e00e13          	li	t3,14
    1514:	39d19063          	bne	gp,t4,1894 <fail>

00001518 <test_15>:
    1518:	fff00093          	li	ra,-1
    151c:	fff00113          	li	sp,-1
    1520:	002081b3          	add	gp,ra,sp
    1524:	ffe00e93          	li	t4,-2
    1528:	00f00e13          	li	t3,15
    152c:	37d19463          	bne	gp,t4,1894 <fail>

00001530 <test_16>:
    1530:	00100093          	li	ra,1
    1534:	80000137          	lui	sp,0x80000
    1538:	fff10113          	addi	sp,sp,-1 # 7fffffff <end+0x7fff3902>
    153c:	002081b3          	add	gp,ra,sp
    1540:	80000eb7          	lui	t4,0x80000
    1544:	01000e13          	li	t3,16
    1548:	35d19663          	bne	gp,t4,1894 <fail>

0000154c <test_17>:
    154c:	00d00093          	li	ra,13
    1550:	00b00113          	li	sp,11
    1554:	002080b3          	add	ra,ra,sp
    1558:	01800e93          	li	t4,24
    155c:	01100e13          	li	t3,17
    1560:	33d09a63          	bne	ra,t4,1894 <fail>

00001564 <test_18>:
    1564:	00e00093          	li	ra,14
    1568:	00b00113          	li	sp,11
    156c:	00208133          	add	sp,ra,sp
    1570:	01900e93          	li	t4,25
    1574:	01200e13          	li	t3,18
    1578:	31d11e63          	bne	sp,t4,1894 <fail>

0000157c <test_19>:
    157c:	00d00093          	li	ra,13
    1580:	001080b3          	add	ra,ra,ra
    1584:	01a00e93          	li	t4,26
    1588:	01300e13          	li	t3,19
    158c:	31d09463          	bne	ra,t4,1894 <fail>

00001590 <test_20>:
    1590:	00000213          	li	tp,0
    1594:	00d00093          	li	ra,13
    1598:	00b00113          	li	sp,11
    159c:	002081b3          	add	gp,ra,sp
    15a0:	00018313          	mv	t1,gp
    15a4:	00120213          	addi	tp,tp,1 # 1 <reset_vec+0x1>
    15a8:	00200293          	li	t0,2
    15ac:	fe5214e3          	bne	tp,t0,1594 <test_20+0x4>
    15b0:	01800e93          	li	t4,24
    15b4:	01400e13          	li	t3,20
    15b8:	2dd31e63          	bne	t1,t4,1894 <fail>

000015bc <test_21>:
    15bc:	00000213          	li	tp,0
    15c0:	00e00093          	li	ra,14
    15c4:	00b00113          	li	sp,11
    15c8:	002081b3          	add	gp,ra,sp
    15cc:	00000013          	nop
    15d0:	00018313          	mv	t1,gp
    15d4:	00120213          	addi	tp,tp,1 # 1 <reset_vec+0x1>
    15d8:	00200293          	li	t0,2
    15dc:	fe5212e3          	bne	tp,t0,15c0 <test_21+0x4>
    15e0:	01900e93          	li	t4,25
    15e4:	01500e13          	li	t3,21
    15e8:	2bd31663          	bne	t1,t4,1894 <fail>

000015ec <test_22>:
    15ec:	00000213          	li	tp,0
    15f0:	00f00093          	li	ra,15
    15f4:	00b00113          	li	sp,11
    15f8:	002081b3          	add	gp,ra,sp
    15fc:	00000013          	nop
    1600:	00000013          	nop
    1604:	00018313          	mv	t1,gp
    1608:	00120213          	addi	tp,tp,1 # 1 <reset_vec+0x1>
    160c:	00200293          	li	t0,2
    1610:	fe5210e3          	bne	tp,t0,15f0 <test_22+0x4>
    1614:	01a00e93          	li	t4,26
    1618:	01600e13          	li	t3,22
    161c:	27d31c63          	bne	t1,t4,1894 <fail>

00001620 <test_23>:
    1620:	00000213          	li	tp,0
    1624:	00d00093          	li	ra,13
    1628:	00b00113          	li	sp,11
    162c:	002081b3          	add	gp,ra,sp
    1630:	00120213          	addi	tp,tp,1 # 1 <reset_vec+0x1>
    1634:	00200293          	li	t0,2
    1638:	fe5216e3          	bne	tp,t0,1624 <test_23+0x4>
    163c:	01800e93          	li	t4,24
    1640:	01700e13          	li	t3,23
    1644:	25d19863          	bne	gp,t4,1894 <fail>

00001648 <test_24>:
    1648:	00000213          	li	tp,0
    164c:	00e00093          	li	ra,14
    1650:	00b00113          	li	sp,11
    1654:	00000013          	nop
    1658:	002081b3          	add	gp,ra,sp
    165c:	00120213          	addi	tp,tp,1 # 1 <reset_vec+0x1>
    1660:	00200293          	li	t0,2
    1664:	fe5214e3          	bne	tp,t0,164c <test_24+0x4>
    1668:	01900e93          	li	t4,25
    166c:	01800e13          	li	t3,24
    1670:	23d19263          	bne	gp,t4,1894 <fail>

00001674 <test_25>:
    1674:	00000213          	li	tp,0
    1678:	00f00093          	li	ra,15
    167c:	00b00113          	li	sp,11
    1680:	00000013          	nop
    1684:	00000013          	nop
    1688:	002081b3          	add	gp,ra,sp
    168c:	00120213          	addi	tp,tp,1 # 1 <reset_vec+0x1>
    1690:	00200293          	li	t0,2
    1694:	fe5212e3          	bne	tp,t0,1678 <test_25+0x4>
    1698:	01a00e93          	li	t4,26
    169c:	01900e13          	li	t3,25
    16a0:	1fd19a63          	bne	gp,t4,1894 <fail>

000016a4 <test_26>:
    16a4:	00000213          	li	tp,0
    16a8:	00d00093          	li	ra,13
    16ac:	00000013          	nop
    16b0:	00b00113          	li	sp,11
    16b4:	002081b3          	add	gp,ra,sp
    16b8:	00120213          	addi	tp,tp,1 # 1 <reset_vec+0x1>
    16bc:	00200293          	li	t0,2
    16c0:	fe5214e3          	bne	tp,t0,16a8 <test_26+0x4>
    16c4:	01800e93          	li	t4,24
    16c8:	01a00e13          	li	t3,26
    16cc:	1dd19463          	bne	gp,t4,1894 <fail>

000016d0 <test_27>:
    16d0:	00000213          	li	tp,0
    16d4:	00e00093          	li	ra,14
    16d8:	00000013          	nop
    16dc:	00b00113          	li	sp,11
    16e0:	00000013          	nop
    16e4:	002081b3          	add	gp,ra,sp
    16e8:	00120213          	addi	tp,tp,1 # 1 <reset_vec+0x1>
    16ec:	00200293          	li	t0,2
    16f0:	fe5212e3          	bne	tp,t0,16d4 <test_27+0x4>
    16f4:	01900e93          	li	t4,25
    16f8:	01b00e13          	li	t3,27
    16fc:	19d19c63          	bne	gp,t4,1894 <fail>

00001700 <test_28>:
    1700:	00000213          	li	tp,0
    1704:	00f00093          	li	ra,15
    1708:	00000013          	nop
    170c:	00000013          	nop
    1710:	00b00113          	li	sp,11
    1714:	002081b3          	add	gp,ra,sp
    1718:	00120213          	addi	tp,tp,1 # 1 <reset_vec+0x1>
    171c:	00200293          	li	t0,2
    1720:	fe5212e3          	bne	tp,t0,1704 <test_28+0x4>
    1724:	01a00e93          	li	t4,26
    1728:	01c00e13          	li	t3,28
    172c:	17d19463          	bne	gp,t4,1894 <fail>

00001730 <test_29>:
    1730:	00000213          	li	tp,0
    1734:	00b00113          	li	sp,11
    1738:	00d00093          	li	ra,13
    173c:	002081b3          	add	gp,ra,sp
    1740:	00120213          	addi	tp,tp,1 # 1 <reset_vec+0x1>
    1744:	00200293          	li	t0,2
    1748:	fe5216e3          	bne	tp,t0,1734 <test_29+0x4>
    174c:	01800e93          	li	t4,24
    1750:	01d00e13          	li	t3,29
    1754:	15d19063          	bne	gp,t4,1894 <fail>

00001758 <test_30>:
    1758:	00000213          	li	tp,0
    175c:	00b00113          	li	sp,11
    1760:	00e00093          	li	ra,14
    1764:	00000013          	nop
    1768:	002081b3          	add	gp,ra,sp
    176c:	00120213          	addi	tp,tp,1 # 1 <reset_vec+0x1>
    1770:	00200293          	li	t0,2
    1774:	fe5214e3          	bne	tp,t0,175c <test_30+0x4>
    1778:	01900e93          	li	t4,25
    177c:	01e00e13          	li	t3,30
    1780:	11d19a63          	bne	gp,t4,1894 <fail>

00001784 <test_31>:
    1784:	00000213          	li	tp,0
    1788:	00b00113          	li	sp,11
    178c:	00f00093          	li	ra,15
    1790:	00000013          	nop
    1794:	00000013          	nop
    1798:	002081b3          	add	gp,ra,sp
    179c:	00120213          	addi	tp,tp,1 # 1 <reset_vec+0x1>
    17a0:	00200293          	li	t0,2
    17a4:	fe5212e3          	bne	tp,t0,1788 <test_31+0x4>
    17a8:	01a00e93          	li	t4,26
    17ac:	01f00e13          	li	t3,31
    17b0:	0fd19263          	bne	gp,t4,1894 <fail>

000017b4 <test_32>:
    17b4:	00000213          	li	tp,0
    17b8:	00b00113          	li	sp,11
    17bc:	00000013          	nop
    17c0:	00d00093          	li	ra,13
    17c4:	002081b3          	add	gp,ra,sp
    17c8:	00120213          	addi	tp,tp,1 # 1 <reset_vec+0x1>
    17cc:	00200293          	li	t0,2
    17d0:	fe5214e3          	bne	tp,t0,17b8 <test_32+0x4>
    17d4:	01800e93          	li	t4,24
    17d8:	02000e13          	li	t3,32
    17dc:	0bd19c63          	bne	gp,t4,1894 <fail>

000017e0 <test_33>:
    17e0:	00000213          	li	tp,0
    17e4:	00b00113          	li	sp,11
    17e8:	00000013          	nop
    17ec:	00e00093          	li	ra,14
    17f0:	00000013          	nop
    17f4:	002081b3          	add	gp,ra,sp
    17f8:	00120213          	addi	tp,tp,1 # 1 <reset_vec+0x1>
    17fc:	00200293          	li	t0,2
    1800:	fe5212e3          	bne	tp,t0,17e4 <test_33+0x4>
    1804:	01900e93          	li	t4,25
    1808:	02100e13          	li	t3,33
    180c:	09d19463          	bne	gp,t4,1894 <fail>

00001810 <test_34>:
    1810:	00000213          	li	tp,0
    1814:	00b00113          	li	sp,11
    1818:	00000013          	nop
    181c:	00000013          	nop
    1820:	00f00093          	li	ra,15
    1824:	002081b3          	add	gp,ra,sp
    1828:	00120213          	addi	tp,tp,1 # 1 <reset_vec+0x1>
    182c:	00200293          	li	t0,2
    1830:	fe5212e3          	bne	tp,t0,1814 <test_34+0x4>
    1834:	01a00e93          	li	t4,26
    1838:	02200e13          	li	t3,34
    183c:	05d19c63          	bne	gp,t4,1894 <fail>

00001840 <test_35>:
    1840:	00f00093          	li	ra,15
    1844:	00100133          	add	sp,zero,ra
    1848:	00f00e93          	li	t4,15
    184c:	02300e13          	li	t3,35
    1850:	05d11263          	bne	sp,t4,1894 <fail>

00001854 <test_36>:
    1854:	02000093          	li	ra,32
    1858:	00008133          	add	sp,ra,zero
    185c:	02000e93          	li	t4,32
    1860:	02400e13          	li	t3,36
    1864:	03d11863          	bne	sp,t4,1894 <fail>

00001868 <test_37>:
    1868:	000000b3          	add	ra,zero,zero
    186c:	00000e93          	li	t4,0
    1870:	02500e13          	li	t3,37
    1874:	03d09063          	bne	ra,t4,1894 <fail>

00001878 <test_38>:
    1878:	01000093          	li	ra,16
    187c:	01e00113          	li	sp,30
    1880:	00208033          	add	zero,ra,sp
    1884:	00000e93          	li	t4,0
    1888:	02600e13          	li	t3,38
    188c:	01d01463          	bne	zero,t4,1894 <fail>
    1890:	05c01863          	bne	zero,t3,18e0 <pass>

00001894 <fail>:
    1894:	00000513          	li	a0,0
    1898:	10000537          	lui	a0,0x10000
    189c:	04500593          	li	a1,69
    18a0:	05200613          	li	a2,82
    18a4:	04f00693          	li	a3,79
    18a8:	00b52023          	sw	a1,0(a0) # 10000000 <end+0xfff3903>
    18ac:	00c52023          	sw	a2,0(a0)
    18b0:	00c52023          	sw	a2,0(a0)
    18b4:	00d52023          	sw	a3,0(a0)
    18b8:	00c52023          	sw	a2,0(a0)
    18bc:	030e0593          	addi	a1,t3,48
    18c0:	02000613          	li	a2,32
    18c4:	03a00693          	li	a3,58
    18c8:	00d52023          	sw	a3,0(a0)
    18cc:	00c52023          	sw	a2,0(a0)
    18d0:	00b52023          	sw	a1,0(a0)
    18d4:	00a00713          	li	a4,10
    18d8:	00e52023          	sw	a4,0(a0)
    18dc:	911fe06f          	j	1ec <add_ret>

000018e0 <pass>:
    18e0:	00000513          	li	a0,0
    18e4:	10000537          	lui	a0,0x10000
    18e8:	04f00593          	li	a1,79
    18ec:	04b00613          	li	a2,75
    18f0:	00a00693          	li	a3,10
    18f4:	00b52023          	sw	a1,0(a0) # 10000000 <end+0xfff3903>
    18f8:	00c52023          	sw	a2,0(a0)
    18fc:	00d52023          	sw	a3,0(a0)
    1900:	8edfe06f          	j	1ec <add_ret>

00001904 <addi>:
    1904:	00002537          	lui	a0,0x2
    1908:	92850513          	addi	a0,a0,-1752 # 1928 <.test_name>
    190c:	00000613          	li	a2,0
    1910:	10000637          	lui	a2,0x10000

00001914 <.prname_next>:
    1914:	00050583          	lb	a1,0(a0)
    1918:	00058c63          	beqz	a1,1930 <.prname_done>
    191c:	00b62023          	sw	a1,0(a2) # 10000000 <end+0xfff3903>
    1920:	00150513          	addi	a0,a0,1
    1924:	ff1ff06f          	j	1914 <.prname_next>

00001928 <.test_name>:
    1928:	69646461          	.word	0x69646461
    192c:	00000000          	.word	0x00000000

00001930 <.prname_done>:
    1930:	00000613          	li	a2,0
    1934:	10000637          	lui	a2,0x10000
    1938:	02e00593          	li	a1,46
    193c:	00b62023          	sw	a1,0(a2) # 10000000 <end+0xfff3903>
    1940:	00b62023          	sw	a1,0(a2)

00001944 <test_2>:
    1944:	00000093          	li	ra,0
    1948:	00008193          	mv	gp,ra
    194c:	00000e93          	li	t4,0
    1950:	00200e13          	li	t3,2
    1954:	27d19c63          	bne	gp,t4,1bcc <fail>

00001958 <test_3>:
    1958:	00100093          	li	ra,1
    195c:	00108193          	addi	gp,ra,1
    1960:	00200e93          	li	t4,2
    1964:	00300e13          	li	t3,3
    1968:	27d19263          	bne	gp,t4,1bcc <fail>

0000196c <test_4>:
    196c:	00300093          	li	ra,3
    1970:	00708193          	addi	gp,ra,7
    1974:	00a00e93          	li	t4,10
    1978:	00400e13          	li	t3,4
    197c:	25d19863          	bne	gp,t4,1bcc <fail>

00001980 <test_5>:
    1980:	00000093          	li	ra,0
    1984:	80008193          	addi	gp,ra,-2048
    1988:	80000e93          	li	t4,-2048
    198c:	00500e13          	li	t3,5
    1990:	23d19e63          	bne	gp,t4,1bcc <fail>

00001994 <test_6>:
    1994:	800000b7          	lui	ra,0x80000
    1998:	00008193          	mv	gp,ra
    199c:	80000eb7          	lui	t4,0x80000
    19a0:	00600e13          	li	t3,6
    19a4:	23d19463          	bne	gp,t4,1bcc <fail>

000019a8 <test_7>:
    19a8:	800000b7          	lui	ra,0x80000
    19ac:	80008193          	addi	gp,ra,-2048 # 7ffff800 <end+0x7fff3103>
    19b0:	80000eb7          	lui	t4,0x80000
    19b4:	800e8e93          	addi	t4,t4,-2048 # 7ffff800 <end+0x7fff3103>
    19b8:	00700e13          	li	t3,7
    19bc:	21d19863          	bne	gp,t4,1bcc <fail>

000019c0 <test_8>:
    19c0:	00000093          	li	ra,0
    19c4:	7ff08193          	addi	gp,ra,2047
    19c8:	7ff00e93          	li	t4,2047
    19cc:	00800e13          	li	t3,8
    19d0:	1fd19e63          	bne	gp,t4,1bcc <fail>

000019d4 <test_9>:
    19d4:	800000b7          	lui	ra,0x80000
    19d8:	fff08093          	addi	ra,ra,-1 # 7fffffff <end+0x7fff3902>
    19dc:	00008193          	mv	gp,ra
    19e0:	80000eb7          	lui	t4,0x80000
    19e4:	fffe8e93          	addi	t4,t4,-1 # 7fffffff <end+0x7fff3902>
    19e8:	00900e13          	li	t3,9
    19ec:	1fd19063          	bne	gp,t4,1bcc <fail>

000019f0 <test_10>:
    19f0:	800000b7          	lui	ra,0x80000
    19f4:	fff08093          	addi	ra,ra,-1 # 7fffffff <end+0x7fff3902>
    19f8:	7ff08193          	addi	gp,ra,2047
    19fc:	80000eb7          	lui	t4,0x80000
    1a00:	7fee8e93          	addi	t4,t4,2046 # 800007fe <end+0x7fff4101>
    1a04:	00a00e13          	li	t3,10
    1a08:	1dd19263          	bne	gp,t4,1bcc <fail>

00001a0c <test_11>:
    1a0c:	800000b7          	lui	ra,0x80000
    1a10:	7ff08193          	addi	gp,ra,2047 # 800007ff <end+0x7fff4102>
    1a14:	80000eb7          	lui	t4,0x80000
    1a18:	7ffe8e93          	addi	t4,t4,2047 # 800007ff <end+0x7fff4102>
    1a1c:	00b00e13          	li	t3,11
    1a20:	1bd19663          	bne	gp,t4,1bcc <fail>

00001a24 <test_12>:
    1a24:	800000b7          	lui	ra,0x80000
    1a28:	fff08093          	addi	ra,ra,-1 # 7fffffff <end+0x7fff3902>
    1a2c:	80008193          	addi	gp,ra,-2048
    1a30:	7ffffeb7          	lui	t4,0x7ffff
    1a34:	7ffe8e93          	addi	t4,t4,2047 # 7ffff7ff <end+0x7fff3102>
    1a38:	00c00e13          	li	t3,12
    1a3c:	19d19863          	bne	gp,t4,1bcc <fail>

00001a40 <test_13>:
    1a40:	00000093          	li	ra,0
    1a44:	fff08193          	addi	gp,ra,-1
    1a48:	fff00e93          	li	t4,-1
    1a4c:	00d00e13          	li	t3,13
    1a50:	17d19e63          	bne	gp,t4,1bcc <fail>

00001a54 <test_14>:
    1a54:	fff00093          	li	ra,-1
    1a58:	00108193          	addi	gp,ra,1
    1a5c:	00000e93          	li	t4,0
    1a60:	00e00e13          	li	t3,14
    1a64:	17d19463          	bne	gp,t4,1bcc <fail>

00001a68 <test_15>:
    1a68:	fff00093          	li	ra,-1
    1a6c:	fff08193          	addi	gp,ra,-1
    1a70:	ffe00e93          	li	t4,-2
    1a74:	00f00e13          	li	t3,15
    1a78:	15d19a63          	bne	gp,t4,1bcc <fail>

00001a7c <test_16>:
    1a7c:	800000b7          	lui	ra,0x80000
    1a80:	fff08093          	addi	ra,ra,-1 # 7fffffff <end+0x7fff3902>
    1a84:	00108193          	addi	gp,ra,1
    1a88:	80000eb7          	lui	t4,0x80000
    1a8c:	01000e13          	li	t3,16
    1a90:	13d19e63          	bne	gp,t4,1bcc <fail>

00001a94 <test_17>:
    1a94:	00d00093          	li	ra,13
    1a98:	00b08093          	addi	ra,ra,11
    1a9c:	01800e93          	li	t4,24
    1aa0:	01100e13          	li	t3,17
    1aa4:	13d09463          	bne	ra,t4,1bcc <fail>

00001aa8 <test_18>:
    1aa8:	00000213          	li	tp,0
    1aac:	00d00093          	li	ra,13
    1ab0:	00b08193          	addi	gp,ra,11
    1ab4:	00018313          	mv	t1,gp
    1ab8:	00120213          	addi	tp,tp,1 # 1 <reset_vec+0x1>
    1abc:	00200293          	li	t0,2
    1ac0:	fe5216e3          	bne	tp,t0,1aac <test_18+0x4>
    1ac4:	01800e93          	li	t4,24
    1ac8:	01200e13          	li	t3,18
    1acc:	11d31063          	bne	t1,t4,1bcc <fail>

00001ad0 <test_19>:
    1ad0:	00000213          	li	tp,0
    1ad4:	00d00093          	li	ra,13
    1ad8:	00a08193          	addi	gp,ra,10
    1adc:	00000013          	nop
    1ae0:	00018313          	mv	t1,gp
    1ae4:	00120213          	addi	tp,tp,1 # 1 <reset_vec+0x1>
    1ae8:	00200293          	li	t0,2
    1aec:	fe5214e3          	bne	tp,t0,1ad4 <test_19+0x4>
    1af0:	01700e93          	li	t4,23
    1af4:	01300e13          	li	t3,19
    1af8:	0dd31a63          	bne	t1,t4,1bcc <fail>

00001afc <test_20>:
    1afc:	00000213          	li	tp,0
    1b00:	00d00093          	li	ra,13
    1b04:	00908193          	addi	gp,ra,9
    1b08:	00000013          	nop
    1b0c:	00000013          	nop
    1b10:	00018313          	mv	t1,gp
    1b14:	00120213          	addi	tp,tp,1 # 1 <reset_vec+0x1>
    1b18:	00200293          	li	t0,2
    1b1c:	fe5212e3          	bne	tp,t0,1b00 <test_20+0x4>
    1b20:	01600e93          	li	t4,22
    1b24:	01400e13          	li	t3,20
    1b28:	0bd31263          	bne	t1,t4,1bcc <fail>

00001b2c <test_21>:
    1b2c:	00000213          	li	tp,0
    1b30:	00d00093          	li	ra,13
    1b34:	00b08193          	addi	gp,ra,11
    1b38:	00120213          	addi	tp,tp,1 # 1 <reset_vec+0x1>
    1b3c:	00200293          	li	t0,2
    1b40:	fe5218e3          	bne	tp,t0,1b30 <test_21+0x4>
    1b44:	01800e93          	li	t4,24
    1b48:	01500e13          	li	t3,21
    1b4c:	09d19063          	bne	gp,t4,1bcc <fail>

00001b50 <test_22>:
    1b50:	00000213          	li	tp,0
    1b54:	00d00093          	li	ra,13
    1b58:	00000013          	nop
    1b5c:	00a08193          	addi	gp,ra,10
    1b60:	00120213          	addi	tp,tp,1 # 1 <reset_vec+0x1>
    1b64:	00200293          	li	t0,2
    1b68:	fe5216e3          	bne	tp,t0,1b54 <test_22+0x4>
    1b6c:	01700e93          	li	t4,23
    1b70:	01600e13          	li	t3,22
    1b74:	05d19c63          	bne	gp,t4,1bcc <fail>

00001b78 <test_23>:
    1b78:	00000213          	li	tp,0
    1b7c:	00d00093          	li	ra,13
    1b80:	00000013          	nop
    1b84:	00000013          	nop
    1b88:	00908193          	addi	gp,ra,9
    1b8c:	00120213          	addi	tp,tp,1 # 1 <reset_vec+0x1>
    1b90:	00200293          	li	t0,2
    1b94:	fe5214e3          	bne	tp,t0,1b7c <test_23+0x4>
    1b98:	01600e93          	li	t4,22
    1b9c:	01700e13          	li	t3,23
    1ba0:	03d19663          	bne	gp,t4,1bcc <fail>

00001ba4 <test_24>:
    1ba4:	02000093          	li	ra,32
    1ba8:	02000e93          	li	t4,32
    1bac:	01800e13          	li	t3,24
    1bb0:	01d09e63          	bne	ra,t4,1bcc <fail>

00001bb4 <test_25>:
    1bb4:	02100093          	li	ra,33
    1bb8:	03208013          	addi	zero,ra,50
    1bbc:	00000e93          	li	t4,0
    1bc0:	01900e13          	li	t3,25
    1bc4:	01d01463          	bne	zero,t4,1bcc <fail>
    1bc8:	05c01863          	bne	zero,t3,1c18 <pass>

00001bcc <fail>:
    1bcc:	00000513          	li	a0,0
    1bd0:	10000537          	lui	a0,0x10000
    1bd4:	04500593          	li	a1,69
    1bd8:	05200613          	li	a2,82
    1bdc:	04f00693          	li	a3,79
    1be0:	00b52023          	sw	a1,0(a0) # 10000000 <end+0xfff3903>
    1be4:	00c52023          	sw	a2,0(a0)
    1be8:	00c52023          	sw	a2,0(a0)
    1bec:	00d52023          	sw	a3,0(a0)
    1bf0:	00c52023          	sw	a2,0(a0)
    1bf4:	030e0593          	addi	a1,t3,48
    1bf8:	02000613          	li	a2,32
    1bfc:	03a00693          	li	a3,58
    1c00:	00d52023          	sw	a3,0(a0)
    1c04:	00c52023          	sw	a2,0(a0)
    1c08:	00b52023          	sw	a1,0(a0)
    1c0c:	00a00713          	li	a4,10
    1c10:	00e52023          	sw	a4,0(a0)
    1c14:	d98fe06f          	j	1ac <addi_ret>

00001c18 <pass>:
    1c18:	00000513          	li	a0,0
    1c1c:	10000537          	lui	a0,0x10000
    1c20:	04f00593          	li	a1,79
    1c24:	04b00613          	li	a2,75
    1c28:	00a00693          	li	a3,10
    1c2c:	00b52023          	sw	a1,0(a0) # 10000000 <end+0xfff3903>
    1c30:	00c52023          	sw	a2,0(a0)
    1c34:	00d52023          	sw	a3,0(a0)
    1c38:	d74fe06f          	j	1ac <addi_ret>

00001c3c <and>:
    1c3c:	00002537          	lui	a0,0x2
    1c40:	c6050513          	addi	a0,a0,-928 # 1c60 <.test_name>
    1c44:	00000613          	li	a2,0
    1c48:	10000637          	lui	a2,0x10000

00001c4c <.prname_next>:
    1c4c:	00050583          	lb	a1,0(a0)
    1c50:	00058a63          	beqz	a1,1c64 <.prname_done>
    1c54:	00b62023          	sw	a1,0(a2) # 10000000 <end+0xfff3903>
    1c58:	00150513          	addi	a0,a0,1
    1c5c:	ff1ff06f          	j	1c4c <.prname_next>

00001c60 <.test_name>:
    1c60:	00646e61          	.word	0x00646e61

00001c64 <.prname_done>:
    1c64:	00000613          	li	a2,0
    1c68:	10000637          	lui	a2,0x10000
    1c6c:	02e00593          	li	a1,46
    1c70:	00b62023          	sw	a1,0(a2) # 10000000 <end+0xfff3903>
    1c74:	00b62023          	sw	a1,0(a2)

00001c78 <test_2>:
    1c78:	ff0100b7          	lui	ra,0xff010
    1c7c:	f0008093          	addi	ra,ra,-256 # ff00ff00 <end+0xff003803>
    1c80:	0f0f1137          	lui	sp,0xf0f1
    1c84:	f0f10113          	addi	sp,sp,-241 # f0f0f0f <end+0xf0e4812>
    1c88:	0020f1b3          	and	gp,ra,sp
    1c8c:	0f001eb7          	lui	t4,0xf001
    1c90:	f00e8e93          	addi	t4,t4,-256 # f000f00 <end+0xeff4803>
    1c94:	00200e13          	li	t3,2
    1c98:	49d19c63          	bne	gp,t4,2130 <fail>

00001c9c <test_3>:
    1c9c:	0ff010b7          	lui	ra,0xff01
    1ca0:	ff008093          	addi	ra,ra,-16 # ff00ff0 <end+0xfef48f3>
    1ca4:	f0f0f137          	lui	sp,0xf0f0f
    1ca8:	0f010113          	addi	sp,sp,240 # f0f0f0f0 <end+0xf0f029f3>
    1cac:	0020f1b3          	and	gp,ra,sp
    1cb0:	00f00eb7          	lui	t4,0xf00
    1cb4:	0f0e8e93          	addi	t4,t4,240 # f000f0 <end+0xef39f3>
    1cb8:	00300e13          	li	t3,3
    1cbc:	47d19a63          	bne	gp,t4,2130 <fail>

00001cc0 <test_4>:
    1cc0:	00ff00b7          	lui	ra,0xff0
    1cc4:	0ff08093          	addi	ra,ra,255 # ff00ff <end+0xfe3a02>
    1cc8:	0f0f1137          	lui	sp,0xf0f1
    1ccc:	f0f10113          	addi	sp,sp,-241 # f0f0f0f <end+0xf0e4812>
    1cd0:	0020f1b3          	and	gp,ra,sp
    1cd4:	000f0eb7          	lui	t4,0xf0
    1cd8:	00fe8e93          	addi	t4,t4,15 # f000f <end+0xe3912>
    1cdc:	00400e13          	li	t3,4
    1ce0:	45d19863          	bne	gp,t4,2130 <fail>

00001ce4 <test_5>:
    1ce4:	f00ff0b7          	lui	ra,0xf00ff
    1ce8:	00f08093          	addi	ra,ra,15 # f00ff00f <end+0xf00f2912>
    1cec:	f0f0f137          	lui	sp,0xf0f0f
    1cf0:	0f010113          	addi	sp,sp,240 # f0f0f0f0 <end+0xf0f029f3>
    1cf4:	0020f1b3          	and	gp,ra,sp
    1cf8:	f000feb7          	lui	t4,0xf000f
    1cfc:	00500e13          	li	t3,5
    1d00:	43d19863          	bne	gp,t4,2130 <fail>

00001d04 <test_6>:
    1d04:	ff0100b7          	lui	ra,0xff010
    1d08:	f0008093          	addi	ra,ra,-256 # ff00ff00 <end+0xff003803>
    1d0c:	0f0f1137          	lui	sp,0xf0f1
    1d10:	f0f10113          	addi	sp,sp,-241 # f0f0f0f <end+0xf0e4812>
    1d14:	0020f0b3          	and	ra,ra,sp
    1d18:	0f001eb7          	lui	t4,0xf001
    1d1c:	f00e8e93          	addi	t4,t4,-256 # f000f00 <end+0xeff4803>
    1d20:	00600e13          	li	t3,6
    1d24:	41d09663          	bne	ra,t4,2130 <fail>

00001d28 <test_7>:
    1d28:	0ff010b7          	lui	ra,0xff01
    1d2c:	ff008093          	addi	ra,ra,-16 # ff00ff0 <end+0xfef48f3>
    1d30:	f0f0f137          	lui	sp,0xf0f0f
    1d34:	0f010113          	addi	sp,sp,240 # f0f0f0f0 <end+0xf0f029f3>
    1d38:	0020f133          	and	sp,ra,sp
    1d3c:	00f00eb7          	lui	t4,0xf00
    1d40:	0f0e8e93          	addi	t4,t4,240 # f000f0 <end+0xef39f3>
    1d44:	00700e13          	li	t3,7
    1d48:	3fd11463          	bne	sp,t4,2130 <fail>

00001d4c <test_8>:
    1d4c:	ff0100b7          	lui	ra,0xff010
    1d50:	f0008093          	addi	ra,ra,-256 # ff00ff00 <end+0xff003803>
    1d54:	0010f0b3          	and	ra,ra,ra
    1d58:	ff010eb7          	lui	t4,0xff010
    1d5c:	f00e8e93          	addi	t4,t4,-256 # ff00ff00 <end+0xff003803>
    1d60:	00800e13          	li	t3,8
    1d64:	3dd09663          	bne	ra,t4,2130 <fail>

00001d68 <test_9>:
    1d68:	00000213          	li	tp,0
    1d6c:	ff0100b7          	lui	ra,0xff010
    1d70:	f0008093          	addi	ra,ra,-256 # ff00ff00 <end+0xff003803>
    1d74:	0f0f1137          	lui	sp,0xf0f1
    1d78:	f0f10113          	addi	sp,sp,-241 # f0f0f0f <end+0xf0e4812>
    1d7c:	0020f1b3          	and	gp,ra,sp
    1d80:	00018313          	mv	t1,gp
    1d84:	00120213          	addi	tp,tp,1 # 1 <reset_vec+0x1>
    1d88:	00200293          	li	t0,2
    1d8c:	fe5210e3          	bne	tp,t0,1d6c <test_9+0x4>
    1d90:	0f001eb7          	lui	t4,0xf001
    1d94:	f00e8e93          	addi	t4,t4,-256 # f000f00 <end+0xeff4803>
    1d98:	00900e13          	li	t3,9
    1d9c:	39d31a63          	bne	t1,t4,2130 <fail>

00001da0 <test_10>:
    1da0:	00000213          	li	tp,0
    1da4:	0ff010b7          	lui	ra,0xff01
    1da8:	ff008093          	addi	ra,ra,-16 # ff00ff0 <end+0xfef48f3>
    1dac:	f0f0f137          	lui	sp,0xf0f0f
    1db0:	0f010113          	addi	sp,sp,240 # f0f0f0f0 <end+0xf0f029f3>
    1db4:	0020f1b3          	and	gp,ra,sp
    1db8:	00000013          	nop
    1dbc:	00018313          	mv	t1,gp
    1dc0:	00120213          	addi	tp,tp,1 # 1 <reset_vec+0x1>
    1dc4:	00200293          	li	t0,2
    1dc8:	fc521ee3          	bne	tp,t0,1da4 <test_10+0x4>
    1dcc:	00f00eb7          	lui	t4,0xf00
    1dd0:	0f0e8e93          	addi	t4,t4,240 # f000f0 <end+0xef39f3>
    1dd4:	00a00e13          	li	t3,10
    1dd8:	35d31c63          	bne	t1,t4,2130 <fail>

00001ddc <test_11>:
    1ddc:	00000213          	li	tp,0
    1de0:	00ff00b7          	lui	ra,0xff0
    1de4:	0ff08093          	addi	ra,ra,255 # ff00ff <end+0xfe3a02>
    1de8:	0f0f1137          	lui	sp,0xf0f1
    1dec:	f0f10113          	addi	sp,sp,-241 # f0f0f0f <end+0xf0e4812>
    1df0:	0020f1b3          	and	gp,ra,sp
    1df4:	00000013          	nop
    1df8:	00000013          	nop
    1dfc:	00018313          	mv	t1,gp
    1e00:	00120213          	addi	tp,tp,1 # 1 <reset_vec+0x1>
    1e04:	00200293          	li	t0,2
    1e08:	fc521ce3          	bne	tp,t0,1de0 <test_11+0x4>
    1e0c:	000f0eb7          	lui	t4,0xf0
    1e10:	00fe8e93          	addi	t4,t4,15 # f000f <end+0xe3912>
    1e14:	00b00e13          	li	t3,11
    1e18:	31d31c63          	bne	t1,t4,2130 <fail>

00001e1c <test_12>:
    1e1c:	00000213          	li	tp,0
    1e20:	ff0100b7          	lui	ra,0xff010
    1e24:	f0008093          	addi	ra,ra,-256 # ff00ff00 <end+0xff003803>
    1e28:	0f0f1137          	lui	sp,0xf0f1
    1e2c:	f0f10113          	addi	sp,sp,-241 # f0f0f0f <end+0xf0e4812>
    1e30:	0020f1b3          	and	gp,ra,sp
    1e34:	00120213          	addi	tp,tp,1 # 1 <reset_vec+0x1>
    1e38:	00200293          	li	t0,2
    1e3c:	fe5212e3          	bne	tp,t0,1e20 <test_12+0x4>
    1e40:	0f001eb7          	lui	t4,0xf001
    1e44:	f00e8e93          	addi	t4,t4,-256 # f000f00 <end+0xeff4803>
    1e48:	00c00e13          	li	t3,12
    1e4c:	2fd19263          	bne	gp,t4,2130 <fail>

00001e50 <test_13>:
    1e50:	00000213          	li	tp,0
    1e54:	0ff010b7          	lui	ra,0xff01
    1e58:	ff008093          	addi	ra,ra,-16 # ff00ff0 <end+0xfef48f3>
    1e5c:	f0f0f137          	lui	sp,0xf0f0f
    1e60:	0f010113          	addi	sp,sp,240 # f0f0f0f0 <end+0xf0f029f3>
    1e64:	00000013          	nop
    1e68:	0020f1b3          	and	gp,ra,sp
    1e6c:	00120213          	addi	tp,tp,1 # 1 <reset_vec+0x1>
    1e70:	00200293          	li	t0,2
    1e74:	fe5210e3          	bne	tp,t0,1e54 <test_13+0x4>
    1e78:	00f00eb7          	lui	t4,0xf00
    1e7c:	0f0e8e93          	addi	t4,t4,240 # f000f0 <end+0xef39f3>
    1e80:	00d00e13          	li	t3,13
    1e84:	2bd19663          	bne	gp,t4,2130 <fail>

00001e88 <test_14>:
    1e88:	00000213          	li	tp,0
    1e8c:	00ff00b7          	lui	ra,0xff0
    1e90:	0ff08093          	addi	ra,ra,255 # ff00ff <end+0xfe3a02>
    1e94:	0f0f1137          	lui	sp,0xf0f1
    1e98:	f0f10113          	addi	sp,sp,-241 # f0f0f0f <end+0xf0e4812>
    1e9c:	00000013          	nop
    1ea0:	00000013          	nop
    1ea4:	0020f1b3          	and	gp,ra,sp
    1ea8:	00120213          	addi	tp,tp,1 # 1 <reset_vec+0x1>
    1eac:	00200293          	li	t0,2
    1eb0:	fc521ee3          	bne	tp,t0,1e8c <test_14+0x4>
    1eb4:	000f0eb7          	lui	t4,0xf0
    1eb8:	00fe8e93          	addi	t4,t4,15 # f000f <end+0xe3912>
    1ebc:	00e00e13          	li	t3,14
    1ec0:	27d19863          	bne	gp,t4,2130 <fail>

00001ec4 <test_15>:
    1ec4:	00000213          	li	tp,0
    1ec8:	ff0100b7          	lui	ra,0xff010
    1ecc:	f0008093          	addi	ra,ra,-256 # ff00ff00 <end+0xff003803>
    1ed0:	00000013          	nop
    1ed4:	0f0f1137          	lui	sp,0xf0f1
    1ed8:	f0f10113          	addi	sp,sp,-241 # f0f0f0f <end+0xf0e4812>
    1edc:	0020f1b3          	and	gp,ra,sp
    1ee0:	00120213          	addi	tp,tp,1 # 1 <reset_vec+0x1>
    1ee4:	00200293          	li	t0,2
    1ee8:	fe5210e3          	bne	tp,t0,1ec8 <test_15+0x4>
    1eec:	0f001eb7          	lui	t4,0xf001
    1ef0:	f00e8e93          	addi	t4,t4,-256 # f000f00 <end+0xeff4803>
    1ef4:	00f00e13          	li	t3,15
    1ef8:	23d19c63          	bne	gp,t4,2130 <fail>

00001efc <test_16>:
    1efc:	00000213          	li	tp,0
    1f00:	0ff010b7          	lui	ra,0xff01
    1f04:	ff008093          	addi	ra,ra,-16 # ff00ff0 <end+0xfef48f3>
    1f08:	00000013          	nop
    1f0c:	f0f0f137          	lui	sp,0xf0f0f
    1f10:	0f010113          	addi	sp,sp,240 # f0f0f0f0 <end+0xf0f029f3>
    1f14:	00000013          	nop
    1f18:	0020f1b3          	and	gp,ra,sp
    1f1c:	00120213          	addi	tp,tp,1 # 1 <reset_vec+0x1>
    1f20:	00200293          	li	t0,2
    1f24:	fc521ee3          	bne	tp,t0,1f00 <test_16+0x4>
    1f28:	00f00eb7          	lui	t4,0xf00
    1f2c:	0f0e8e93          	addi	t4,t4,240 # f000f0 <end+0xef39f3>
    1f30:	01000e13          	li	t3,16
    1f34:	1fd19e63          	bne	gp,t4,2130 <fail>

00001f38 <test_17>:
    1f38:	00000213          	li	tp,0
    1f3c:	00ff00b7          	lui	ra,0xff0
    1f40:	0ff08093          	addi	ra,ra,255 # ff00ff <end+0xfe3a02>
    1f44:	00000013          	nop
    1f48:	00000013          	nop
    1f4c:	0f0f1137          	lui	sp,0xf0f1
    1f50:	f0f10113          	addi	sp,sp,-241 # f0f0f0f <end+0xf0e4812>
    1f54:	0020f1b3          	and	gp,ra,sp
    1f58:	00120213          	addi	tp,tp,1 # 1 <reset_vec+0x1>
    1f5c:	00200293          	li	t0,2
    1f60:	fc521ee3          	bne	tp,t0,1f3c <test_17+0x4>
    1f64:	000f0eb7          	lui	t4,0xf0
    1f68:	00fe8e93          	addi	t4,t4,15 # f000f <end+0xe3912>
    1f6c:	01100e13          	li	t3,17
    1f70:	1dd19063          	bne	gp,t4,2130 <fail>

00001f74 <test_18>:
    1f74:	00000213          	li	tp,0
    1f78:	0f0f1137          	lui	sp,0xf0f1
    1f7c:	f0f10113          	addi	sp,sp,-241 # f0f0f0f <end+0xf0e4812>
    1f80:	ff0100b7          	lui	ra,0xff010
    1f84:	f0008093          	addi	ra,ra,-256 # ff00ff00 <end+0xff003803>
    1f88:	0020f1b3          	and	gp,ra,sp
    1f8c:	00120213          	addi	tp,tp,1 # 1 <reset_vec+0x1>
    1f90:	00200293          	li	t0,2
    1f94:	fe5212e3          	bne	tp,t0,1f78 <test_18+0x4>
    1f98:	0f001eb7          	lui	t4,0xf001
    1f9c:	f00e8e93          	addi	t4,t4,-256 # f000f00 <end+0xeff4803>
    1fa0:	01200e13          	li	t3,18
    1fa4:	19d19663          	bne	gp,t4,2130 <fail>

00001fa8 <test_19>:
    1fa8:	00000213          	li	tp,0
    1fac:	f0f0f137          	lui	sp,0xf0f0f
    1fb0:	0f010113          	addi	sp,sp,240 # f0f0f0f0 <end+0xf0f029f3>
    1fb4:	0ff010b7          	lui	ra,0xff01
    1fb8:	ff008093          	addi	ra,ra,-16 # ff00ff0 <end+0xfef48f3>
    1fbc:	00000013          	nop
    1fc0:	0020f1b3          	and	gp,ra,sp
    1fc4:	00120213          	addi	tp,tp,1 # 1 <reset_vec+0x1>
    1fc8:	00200293          	li	t0,2
    1fcc:	fe5210e3          	bne	tp,t0,1fac <test_19+0x4>
    1fd0:	00f00eb7          	lui	t4,0xf00
    1fd4:	0f0e8e93          	addi	t4,t4,240 # f000f0 <end+0xef39f3>
    1fd8:	01300e13          	li	t3,19
    1fdc:	15d19a63          	bne	gp,t4,2130 <fail>

00001fe0 <test_20>:
    1fe0:	00000213          	li	tp,0
    1fe4:	0f0f1137          	lui	sp,0xf0f1
    1fe8:	f0f10113          	addi	sp,sp,-241 # f0f0f0f <end+0xf0e4812>
    1fec:	00ff00b7          	lui	ra,0xff0
    1ff0:	0ff08093          	addi	ra,ra,255 # ff00ff <end+0xfe3a02>
    1ff4:	00000013          	nop
    1ff8:	00000013          	nop
    1ffc:	0020f1b3          	and	gp,ra,sp
    2000:	00120213          	addi	tp,tp,1 # 1 <reset_vec+0x1>
    2004:	00200293          	li	t0,2
    2008:	fc521ee3          	bne	tp,t0,1fe4 <test_20+0x4>
    200c:	000f0eb7          	lui	t4,0xf0
    2010:	00fe8e93          	addi	t4,t4,15 # f000f <end+0xe3912>
    2014:	01400e13          	li	t3,20
    2018:	11d19c63          	bne	gp,t4,2130 <fail>

0000201c <test_21>:
    201c:	00000213          	li	tp,0
    2020:	0f0f1137          	lui	sp,0xf0f1
    2024:	f0f10113          	addi	sp,sp,-241 # f0f0f0f <end+0xf0e4812>
    2028:	00000013          	nop
    202c:	ff0100b7          	lui	ra,0xff010
    2030:	f0008093          	addi	ra,ra,-256 # ff00ff00 <end+0xff003803>
    2034:	0020f1b3          	and	gp,ra,sp
    2038:	00120213          	addi	tp,tp,1 # 1 <reset_vec+0x1>
    203c:	00200293          	li	t0,2
    2040:	fe5210e3          	bne	tp,t0,2020 <test_21+0x4>
    2044:	0f001eb7          	lui	t4,0xf001
    2048:	f00e8e93          	addi	t4,t4,-256 # f000f00 <end+0xeff4803>
    204c:	01500e13          	li	t3,21
    2050:	0fd19063          	bne	gp,t4,2130 <fail>

00002054 <test_22>:
    2054:	00000213          	li	tp,0
    2058:	f0f0f137          	lui	sp,0xf0f0f
    205c:	0f010113          	addi	sp,sp,240 # f0f0f0f0 <end+0xf0f029f3>
    2060:	00000013          	nop
    2064:	0ff010b7          	lui	ra,0xff01
    2068:	ff008093          	addi	ra,ra,-16 # ff00ff0 <end+0xfef48f3>
    206c:	00000013          	nop
    2070:	0020f1b3          	and	gp,ra,sp
    2074:	00120213          	addi	tp,tp,1 # 1 <reset_vec+0x1>
    2078:	00200293          	li	t0,2
    207c:	fc521ee3          	bne	tp,t0,2058 <test_22+0x4>
    2080:	00f00eb7          	lui	t4,0xf00
    2084:	0f0e8e93          	addi	t4,t4,240 # f000f0 <end+0xef39f3>
    2088:	01600e13          	li	t3,22
    208c:	0bd19263          	bne	gp,t4,2130 <fail>

00002090 <test_23>:
    2090:	00000213          	li	tp,0
    2094:	0f0f1137          	lui	sp,0xf0f1
    2098:	f0f10113          	addi	sp,sp,-241 # f0f0f0f <end+0xf0e4812>
    209c:	00000013          	nop
    20a0:	00000013          	nop
    20a4:	00ff00b7          	lui	ra,0xff0
    20a8:	0ff08093          	addi	ra,ra,255 # ff00ff <end+0xfe3a02>
    20ac:	0020f1b3          	and	gp,ra,sp
    20b0:	00120213          	addi	tp,tp,1 # 1 <reset_vec+0x1>
    20b4:	00200293          	li	t0,2
    20b8:	fc521ee3          	bne	tp,t0,2094 <test_23+0x4>
    20bc:	000f0eb7          	lui	t4,0xf0
    20c0:	00fe8e93          	addi	t4,t4,15 # f000f <end+0xe3912>
    20c4:	01700e13          	li	t3,23
    20c8:	07d19463          	bne	gp,t4,2130 <fail>

000020cc <test_24>:
    20cc:	ff0100b7          	lui	ra,0xff010
    20d0:	f0008093          	addi	ra,ra,-256 # ff00ff00 <end+0xff003803>
    20d4:	00107133          	and	sp,zero,ra
    20d8:	00000e93          	li	t4,0
    20dc:	01800e13          	li	t3,24
    20e0:	05d11863          	bne	sp,t4,2130 <fail>

000020e4 <test_25>:
    20e4:	00ff00b7          	lui	ra,0xff0
    20e8:	0ff08093          	addi	ra,ra,255 # ff00ff <end+0xfe3a02>
    20ec:	0000f133          	and	sp,ra,zero
    20f0:	00000e93          	li	t4,0
    20f4:	01900e13          	li	t3,25
    20f8:	03d11c63          	bne	sp,t4,2130 <fail>

000020fc <test_26>:
    20fc:	000070b3          	and	ra,zero,zero
    2100:	00000e93          	li	t4,0
    2104:	01a00e13          	li	t3,26
    2108:	03d09463          	bne	ra,t4,2130 <fail>

0000210c <test_27>:
    210c:	111110b7          	lui	ra,0x11111
    2110:	11108093          	addi	ra,ra,273 # 11111111 <end+0x11104a14>
    2114:	22222137          	lui	sp,0x22222
    2118:	22210113          	addi	sp,sp,546 # 22222222 <end+0x22215b25>
    211c:	0020f033          	and	zero,ra,sp
    2120:	00000e93          	li	t4,0
    2124:	01b00e13          	li	t3,27
    2128:	01d01463          	bne	zero,t4,2130 <fail>
    212c:	05c01863          	bne	zero,t3,217c <pass>

00002130 <fail>:
    2130:	00000513          	li	a0,0
    2134:	10000537          	lui	a0,0x10000
    2138:	04500593          	li	a1,69
    213c:	05200613          	li	a2,82
    2140:	04f00693          	li	a3,79
    2144:	00b52023          	sw	a1,0(a0) # 10000000 <end+0xfff3903>
    2148:	00c52023          	sw	a2,0(a0)
    214c:	00c52023          	sw	a2,0(a0)
    2150:	00d52023          	sw	a3,0(a0)
    2154:	00c52023          	sw	a2,0(a0)
    2158:	030e0593          	addi	a1,t3,48
    215c:	02000613          	li	a2,32
    2160:	03a00693          	li	a3,58
    2164:	00d52023          	sw	a3,0(a0)
    2168:	00c52023          	sw	a2,0(a0)
    216c:	00b52023          	sw	a1,0(a0)
    2170:	00a00713          	li	a4,10
    2174:	00e52023          	sw	a4,0(a0)
    2178:	8b4fe06f          	j	22c <and_ret>

0000217c <pass>:
    217c:	00000513          	li	a0,0
    2180:	10000537          	lui	a0,0x10000
    2184:	04f00593          	li	a1,79
    2188:	04b00613          	li	a2,75
    218c:	00a00693          	li	a3,10
    2190:	00b52023          	sw	a1,0(a0) # 10000000 <end+0xfff3903>
    2194:	00c52023          	sw	a2,0(a0)
    2198:	00d52023          	sw	a3,0(a0)
    219c:	890fe06f          	j	22c <and_ret>

000021a0 <andi>:
    21a0:	00002537          	lui	a0,0x2
    21a4:	1c450513          	addi	a0,a0,452 # 21c4 <.test_name>
    21a8:	00000613          	li	a2,0
    21ac:	10000637          	lui	a2,0x10000

000021b0 <.prname_next>:
    21b0:	00050583          	lb	a1,0(a0)
    21b4:	00058c63          	beqz	a1,21cc <.prname_done>
    21b8:	00b62023          	sw	a1,0(a2) # 10000000 <end+0xfff3903>
    21bc:	00150513          	addi	a0,a0,1
    21c0:	ff1ff06f          	j	21b0 <.prname_next>

000021c4 <.test_name>:
    21c4:	69646e61          	.word	0x69646e61
    21c8:	00000000          	.word	0x00000000

000021cc <.prname_done>:
    21cc:	00000613          	li	a2,0
    21d0:	10000637          	lui	a2,0x10000
    21d4:	02e00593          	li	a1,46
    21d8:	00b62023          	sw	a1,0(a2) # 10000000 <end+0xfff3903>
    21dc:	00b62023          	sw	a1,0(a2)

000021e0 <test_2>:
    21e0:	ff0100b7          	lui	ra,0xff010
    21e4:	f0008093          	addi	ra,ra,-256 # ff00ff00 <end+0xff003803>
    21e8:	f0f0f193          	andi	gp,ra,-241
    21ec:	ff010eb7          	lui	t4,0xff010
    21f0:	f00e8e93          	addi	t4,t4,-256 # ff00ff00 <end+0xff003803>
    21f4:	00200e13          	li	t3,2
    21f8:	1bd19463          	bne	gp,t4,23a0 <fail>

000021fc <test_3>:
    21fc:	0ff010b7          	lui	ra,0xff01
    2200:	ff008093          	addi	ra,ra,-16 # ff00ff0 <end+0xfef48f3>
    2204:	0f00f193          	andi	gp,ra,240
    2208:	0f000e93          	li	t4,240
    220c:	00300e13          	li	t3,3
    2210:	19d19863          	bne	gp,t4,23a0 <fail>

00002214 <test_4>:
    2214:	00ff00b7          	lui	ra,0xff0
    2218:	0ff08093          	addi	ra,ra,255 # ff00ff <end+0xfe3a02>
    221c:	70f0f193          	andi	gp,ra,1807
    2220:	00f00e93          	li	t4,15
    2224:	00400e13          	li	t3,4
    2228:	17d19c63          	bne	gp,t4,23a0 <fail>

0000222c <test_5>:
    222c:	f00ff0b7          	lui	ra,0xf00ff
    2230:	00f08093          	addi	ra,ra,15 # f00ff00f <end+0xf00f2912>
    2234:	0f00f193          	andi	gp,ra,240
    2238:	00000e93          	li	t4,0
    223c:	00500e13          	li	t3,5
    2240:	17d19063          	bne	gp,t4,23a0 <fail>

00002244 <test_6>:
    2244:	ff0100b7          	lui	ra,0xff010
    2248:	f0008093          	addi	ra,ra,-256 # ff00ff00 <end+0xff003803>
    224c:	0f00f093          	andi	ra,ra,240
    2250:	00000e93          	li	t4,0
    2254:	00600e13          	li	t3,6
    2258:	15d09463          	bne	ra,t4,23a0 <fail>

0000225c <test_7>:
    225c:	00000213          	li	tp,0
    2260:	0ff010b7          	lui	ra,0xff01
    2264:	ff008093          	addi	ra,ra,-16 # ff00ff0 <end+0xfef48f3>
    2268:	70f0f193          	andi	gp,ra,1807
    226c:	00018313          	mv	t1,gp
    2270:	00120213          	addi	tp,tp,1 # 1 <reset_vec+0x1>
    2274:	00200293          	li	t0,2
    2278:	fe5214e3          	bne	tp,t0,2260 <test_7+0x4>
    227c:	70000e93          	li	t4,1792
    2280:	00700e13          	li	t3,7
    2284:	11d31e63          	bne	t1,t4,23a0 <fail>

00002288 <test_8>:
    2288:	00000213          	li	tp,0
    228c:	00ff00b7          	lui	ra,0xff0
    2290:	0ff08093          	addi	ra,ra,255 # ff00ff <end+0xfe3a02>
    2294:	0f00f193          	andi	gp,ra,240
    2298:	00000013          	nop
    229c:	00018313          	mv	t1,gp
    22a0:	00120213          	addi	tp,tp,1 # 1 <reset_vec+0x1>
    22a4:	00200293          	li	t0,2
    22a8:	fe5212e3          	bne	tp,t0,228c <test_8+0x4>
    22ac:	0f000e93          	li	t4,240
    22b0:	00800e13          	li	t3,8
    22b4:	0fd31663          	bne	t1,t4,23a0 <fail>

000022b8 <test_9>:
    22b8:	00000213          	li	tp,0
    22bc:	f00ff0b7          	lui	ra,0xf00ff
    22c0:	00f08093          	addi	ra,ra,15 # f00ff00f <end+0xf00f2912>
    22c4:	f0f0f193          	andi	gp,ra,-241
    22c8:	00000013          	nop
    22cc:	00000013          	nop
    22d0:	00018313          	mv	t1,gp
    22d4:	00120213          	addi	tp,tp,1 # 1 <reset_vec+0x1>
    22d8:	00200293          	li	t0,2
    22dc:	fe5210e3          	bne	tp,t0,22bc <test_9+0x4>
    22e0:	f00ffeb7          	lui	t4,0xf00ff
    22e4:	00fe8e93          	addi	t4,t4,15 # f00ff00f <end+0xf00f2912>
    22e8:	00900e13          	li	t3,9
    22ec:	0bd31a63          	bne	t1,t4,23a0 <fail>

000022f0 <test_10>:
    22f0:	00000213          	li	tp,0
    22f4:	0ff010b7          	lui	ra,0xff01
    22f8:	ff008093          	addi	ra,ra,-16 # ff00ff0 <end+0xfef48f3>
    22fc:	70f0f193          	andi	gp,ra,1807
    2300:	00120213          	addi	tp,tp,1 # 1 <reset_vec+0x1>
    2304:	00200293          	li	t0,2
    2308:	fe5216e3          	bne	tp,t0,22f4 <test_10+0x4>
    230c:	70000e93          	li	t4,1792
    2310:	00a00e13          	li	t3,10
    2314:	09d19663          	bne	gp,t4,23a0 <fail>

00002318 <test_11>:
    2318:	00000213          	li	tp,0
    231c:	00ff00b7          	lui	ra,0xff0
    2320:	0ff08093          	addi	ra,ra,255 # ff00ff <end+0xfe3a02>
    2324:	00000013          	nop
    2328:	0f00f193          	andi	gp,ra,240
    232c:	00120213          	addi	tp,tp,1 # 1 <reset_vec+0x1>
    2330:	00200293          	li	t0,2
    2334:	fe5214e3          	bne	tp,t0,231c <test_11+0x4>
    2338:	0f000e93          	li	t4,240
    233c:	00b00e13          	li	t3,11
    2340:	07d19063          	bne	gp,t4,23a0 <fail>

00002344 <test_12>:
    2344:	00000213          	li	tp,0
    2348:	f00ff0b7          	lui	ra,0xf00ff
    234c:	00f08093          	addi	ra,ra,15 # f00ff00f <end+0xf00f2912>
    2350:	00000013          	nop
    2354:	00000013          	nop
    2358:	70f0f193          	andi	gp,ra,1807
    235c:	00120213          	addi	tp,tp,1 # 1 <reset_vec+0x1>
    2360:	00200293          	li	t0,2
    2364:	fe5212e3          	bne	tp,t0,2348 <test_12+0x4>
    2368:	00f00e93          	li	t4,15
    236c:	00c00e13          	li	t3,12
    2370:	03d19863          	bne	gp,t4,23a0 <fail>

00002374 <test_13>:
    2374:	0f007093          	andi	ra,zero,240
    2378:	00000e93          	li	t4,0
    237c:	00d00e13          	li	t3,13
    2380:	03d09063          	bne	ra,t4,23a0 <fail>

00002384 <test_14>:
    2384:	00ff00b7          	lui	ra,0xff0
    2388:	0ff08093          	addi	ra,ra,255 # ff00ff <end+0xfe3a02>
    238c:	70f0f013          	andi	zero,ra,1807
    2390:	00000e93          	li	t4,0
    2394:	00e00e13          	li	t3,14
    2398:	01d01463          	bne	zero,t4,23a0 <fail>
    239c:	05c01863          	bne	zero,t3,23ec <pass>

000023a0 <fail>:
    23a0:	00000513          	li	a0,0
    23a4:	10000537          	lui	a0,0x10000
    23a8:	04500593          	li	a1,69
    23ac:	05200613          	li	a2,82
    23b0:	04f00693          	li	a3,79
    23b4:	00b52023          	sw	a1,0(a0) # 10000000 <end+0xfff3903>
    23b8:	00c52023          	sw	a2,0(a0)
    23bc:	00c52023          	sw	a2,0(a0)
    23c0:	00d52023          	sw	a3,0(a0)
    23c4:	00c52023          	sw	a2,0(a0)
    23c8:	030e0593          	addi	a1,t3,48
    23cc:	02000613          	li	a2,32
    23d0:	03a00693          	li	a3,58
    23d4:	00d52023          	sw	a3,0(a0)
    23d8:	00c52023          	sw	a2,0(a0)
    23dc:	00b52023          	sw	a1,0(a0)
    23e0:	00a00713          	li	a4,10
    23e4:	00e52023          	sw	a4,0(a0)
    23e8:	de5fd06f          	j	1cc <andi_ret>

000023ec <pass>:
    23ec:	00000513          	li	a0,0
    23f0:	10000537          	lui	a0,0x10000
    23f4:	04f00593          	li	a1,79
    23f8:	04b00613          	li	a2,75
    23fc:	00a00693          	li	a3,10
    2400:	00b52023          	sw	a1,0(a0) # 10000000 <end+0xfff3903>
    2404:	00c52023          	sw	a2,0(a0)
    2408:	00d52023          	sw	a3,0(a0)
    240c:	dc1fd06f          	j	1cc <andi_ret>

00002410 <auipc>:
    2410:	00002537          	lui	a0,0x2
    2414:	43450513          	addi	a0,a0,1076 # 2434 <.test_name>
    2418:	00000613          	li	a2,0
    241c:	10000637          	lui	a2,0x10000

00002420 <.prname_next>:
    2420:	00050583          	lb	a1,0(a0)
    2424:	00058c63          	beqz	a1,243c <.prname_done>
    2428:	00b62023          	sw	a1,0(a2) # 10000000 <end+0xfff3903>
    242c:	00150513          	addi	a0,a0,1
    2430:	ff1ff06f          	j	2420 <.prname_next>

00002434 <.test_name>:
    2434:	70697561          	.word	0x70697561
    2438:	00000063          	.word	0x00000063

0000243c <.prname_done>:
    243c:	00000613          	li	a2,0
    2440:	10000637          	lui	a2,0x10000
    2444:	02e00593          	li	a1,46
    2448:	00b62023          	sw	a1,0(a2) # 10000000 <end+0xfff3903>
    244c:	00b62023          	sw	a1,0(a2)

00002450 <test_2>:
    2450:	00002517          	auipc	a0,0x2
    2454:	71c50513          	addi	a0,a0,1820 # 4b6c <test_8+0x10>
    2458:	004005ef          	jal	a1,245c <test_2+0xc>
    245c:	40b50533          	sub	a0,a0,a1
    2460:	00002eb7          	lui	t4,0x2
    2464:	710e8e93          	addi	t4,t4,1808 # 2710 <test_15+0x1c>
    2468:	00200e13          	li	t3,2
    246c:	03d51463          	bne	a0,t4,2494 <fail>

00002470 <test_3>:
    2470:	ffffe517          	auipc	a0,0xffffe
    2474:	8fc50513          	addi	a0,a0,-1796 # fffffd6c <end+0xffff366f>
    2478:	004005ef          	jal	a1,247c <test_3+0xc>
    247c:	40b50533          	sub	a0,a0,a1
    2480:	ffffeeb7          	lui	t4,0xffffe
    2484:	8f0e8e93          	addi	t4,t4,-1808 # ffffd8f0 <end+0xffff11f3>
    2488:	00300e13          	li	t3,3
    248c:	01d51463          	bne	a0,t4,2494 <fail>
    2490:	05c01863          	bne	zero,t3,24e0 <pass>

00002494 <fail>:
    2494:	00000513          	li	a0,0
    2498:	10000537          	lui	a0,0x10000
    249c:	04500593          	li	a1,69
    24a0:	05200613          	li	a2,82
    24a4:	04f00693          	li	a3,79
    24a8:	00b52023          	sw	a1,0(a0) # 10000000 <end+0xfff3903>
    24ac:	00c52023          	sw	a2,0(a0)
    24b0:	00c52023          	sw	a2,0(a0)
    24b4:	00d52023          	sw	a3,0(a0)
    24b8:	00c52023          	sw	a2,0(a0)
    24bc:	030e0593          	addi	a1,t3,48
    24c0:	02000613          	li	a2,32
    24c4:	03a00693          	li	a3,58
    24c8:	00d52023          	sw	a3,0(a0)
    24cc:	00c52023          	sw	a2,0(a0)
    24d0:	00b52023          	sw	a1,0(a0)
    24d4:	00a00713          	li	a4,10
    24d8:	00e52023          	sw	a4,0(a0)
    24dc:	c41fd06f          	j	11c <auipc_ret>

000024e0 <pass>:
    24e0:	00000513          	li	a0,0
    24e4:	10000537          	lui	a0,0x10000
    24e8:	04f00593          	li	a1,79
    24ec:	04b00613          	li	a2,75
    24f0:	00a00693          	li	a3,10
    24f4:	00b52023          	sw	a1,0(a0) # 10000000 <end+0xfff3903>
    24f8:	00c52023          	sw	a2,0(a0)
    24fc:	00d52023          	sw	a3,0(a0)
    2500:	c1dfd06f          	j	11c <auipc_ret>
    2504:	00000013          	nop

00002508 <beq>:
    2508:	00002537          	lui	a0,0x2
    250c:	52c50513          	addi	a0,a0,1324 # 252c <.test_name>
    2510:	00000613          	li	a2,0
    2514:	10000637          	lui	a2,0x10000

00002518 <.prname_next>:
    2518:	00050583          	lb	a1,0(a0)
    251c:	00058a63          	beqz	a1,2530 <.prname_done>
    2520:	00b62023          	sw	a1,0(a2) # 10000000 <end+0xfff3903>
    2524:	00150513          	addi	a0,a0,1
    2528:	ff1ff06f          	j	2518 <.prname_next>

0000252c <.test_name>:
    252c:	00716562          	.word	0x00716562

00002530 <.prname_done>:
    2530:	00000613          	li	a2,0
    2534:	10000637          	lui	a2,0x10000
    2538:	02e00593          	li	a1,46
    253c:	00b62023          	sw	a1,0(a2) # 10000000 <end+0xfff3903>
    2540:	00b62023          	sw	a1,0(a2)

00002544 <test_2>:
    2544:	00200e13          	li	t3,2
    2548:	00000093          	li	ra,0
    254c:	00000113          	li	sp,0
    2550:	00208663          	beq	ra,sp,255c <test_2+0x18>
    2554:	2bc01863          	bne	zero,t3,2804 <fail>
    2558:	01c01663          	bne	zero,t3,2564 <test_3>
    255c:	fe208ee3          	beq	ra,sp,2558 <test_2+0x14>
    2560:	2bc01263          	bne	zero,t3,2804 <fail>

00002564 <test_3>:
    2564:	00300e13          	li	t3,3
    2568:	00100093          	li	ra,1
    256c:	00100113          	li	sp,1
    2570:	00208663          	beq	ra,sp,257c <test_3+0x18>
    2574:	29c01863          	bne	zero,t3,2804 <fail>
    2578:	01c01663          	bne	zero,t3,2584 <test_4>
    257c:	fe208ee3          	beq	ra,sp,2578 <test_3+0x14>
    2580:	29c01263          	bne	zero,t3,2804 <fail>

00002584 <test_4>:
    2584:	00400e13          	li	t3,4
    2588:	fff00093          	li	ra,-1
    258c:	fff00113          	li	sp,-1
    2590:	00208663          	beq	ra,sp,259c <test_4+0x18>
    2594:	27c01863          	bne	zero,t3,2804 <fail>
    2598:	01c01663          	bne	zero,t3,25a4 <test_5>
    259c:	fe208ee3          	beq	ra,sp,2598 <test_4+0x14>
    25a0:	27c01263          	bne	zero,t3,2804 <fail>

000025a4 <test_5>:
    25a4:	00500e13          	li	t3,5
    25a8:	00000093          	li	ra,0
    25ac:	00100113          	li	sp,1
    25b0:	00208463          	beq	ra,sp,25b8 <test_5+0x14>
    25b4:	01c01463          	bne	zero,t3,25bc <test_5+0x18>
    25b8:	25c01663          	bne	zero,t3,2804 <fail>
    25bc:	fe208ee3          	beq	ra,sp,25b8 <test_5+0x14>

000025c0 <test_6>:
    25c0:	00600e13          	li	t3,6
    25c4:	00100093          	li	ra,1
    25c8:	00000113          	li	sp,0
    25cc:	00208463          	beq	ra,sp,25d4 <test_6+0x14>
    25d0:	01c01463          	bne	zero,t3,25d8 <test_6+0x18>
    25d4:	23c01863          	bne	zero,t3,2804 <fail>
    25d8:	fe208ee3          	beq	ra,sp,25d4 <test_6+0x14>

000025dc <test_7>:
    25dc:	00700e13          	li	t3,7
    25e0:	fff00093          	li	ra,-1
    25e4:	00100113          	li	sp,1
    25e8:	00208463          	beq	ra,sp,25f0 <test_7+0x14>
    25ec:	01c01463          	bne	zero,t3,25f4 <test_7+0x18>
    25f0:	21c01a63          	bne	zero,t3,2804 <fail>
    25f4:	fe208ee3          	beq	ra,sp,25f0 <test_7+0x14>

000025f8 <test_8>:
    25f8:	00800e13          	li	t3,8
    25fc:	00100093          	li	ra,1
    2600:	fff00113          	li	sp,-1
    2604:	00208463          	beq	ra,sp,260c <test_8+0x14>
    2608:	01c01463          	bne	zero,t3,2610 <test_8+0x18>
    260c:	1fc01c63          	bne	zero,t3,2804 <fail>
    2610:	fe208ee3          	beq	ra,sp,260c <test_8+0x14>

00002614 <test_9>:
    2614:	00900e13          	li	t3,9
    2618:	00000213          	li	tp,0
    261c:	00000093          	li	ra,0
    2620:	fff00113          	li	sp,-1
    2624:	1e208063          	beq	ra,sp,2804 <fail>
    2628:	00120213          	addi	tp,tp,1 # 1 <reset_vec+0x1>
    262c:	00200293          	li	t0,2
    2630:	fe5216e3          	bne	tp,t0,261c <test_9+0x8>

00002634 <test_10>:
    2634:	00a00e13          	li	t3,10
    2638:	00000213          	li	tp,0
    263c:	00000093          	li	ra,0
    2640:	fff00113          	li	sp,-1
    2644:	00000013          	nop
    2648:	1a208e63          	beq	ra,sp,2804 <fail>
    264c:	00120213          	addi	tp,tp,1 # 1 <reset_vec+0x1>
    2650:	00200293          	li	t0,2
    2654:	fe5214e3          	bne	tp,t0,263c <test_10+0x8>

00002658 <test_11>:
    2658:	00b00e13          	li	t3,11
    265c:	00000213          	li	tp,0
    2660:	00000093          	li	ra,0
    2664:	fff00113          	li	sp,-1
    2668:	00000013          	nop
    266c:	00000013          	nop
    2670:	18208a63          	beq	ra,sp,2804 <fail>
    2674:	00120213          	addi	tp,tp,1 # 1 <reset_vec+0x1>
    2678:	00200293          	li	t0,2
    267c:	fe5212e3          	bne	tp,t0,2660 <test_11+0x8>

00002680 <test_12>:
    2680:	00c00e13          	li	t3,12
    2684:	00000213          	li	tp,0
    2688:	00000093          	li	ra,0
    268c:	00000013          	nop
    2690:	fff00113          	li	sp,-1
    2694:	16208863          	beq	ra,sp,2804 <fail>
    2698:	00120213          	addi	tp,tp,1 # 1 <reset_vec+0x1>
    269c:	00200293          	li	t0,2
    26a0:	fe5214e3          	bne	tp,t0,2688 <test_12+0x8>

000026a4 <test_13>:
    26a4:	00d00e13          	li	t3,13
    26a8:	00000213          	li	tp,0
    26ac:	00000093          	li	ra,0
    26b0:	00000013          	nop
    26b4:	fff00113          	li	sp,-1
    26b8:	00000013          	nop
    26bc:	14208463          	beq	ra,sp,2804 <fail>
    26c0:	00120213          	addi	tp,tp,1 # 1 <reset_vec+0x1>
    26c4:	00200293          	li	t0,2
    26c8:	fe5212e3          	bne	tp,t0,26ac <test_13+0x8>

000026cc <test_14>:
    26cc:	00e00e13          	li	t3,14
    26d0:	00000213          	li	tp,0
    26d4:	00000093          	li	ra,0
    26d8:	00000013          	nop
    26dc:	00000013          	nop
    26e0:	fff00113          	li	sp,-1
    26e4:	12208063          	beq	ra,sp,2804 <fail>
    26e8:	00120213          	addi	tp,tp,1 # 1 <reset_vec+0x1>
    26ec:	00200293          	li	t0,2
    26f0:	fe5212e3          	bne	tp,t0,26d4 <test_14+0x8>

000026f4 <test_15>:
    26f4:	00f00e13          	li	t3,15
    26f8:	00000213          	li	tp,0
    26fc:	00000093          	li	ra,0
    2700:	fff00113          	li	sp,-1
    2704:	10208063          	beq	ra,sp,2804 <fail>
    2708:	00120213          	addi	tp,tp,1 # 1 <reset_vec+0x1>
    270c:	00200293          	li	t0,2
    2710:	fe5216e3          	bne	tp,t0,26fc <test_15+0x8>

00002714 <test_16>:
    2714:	01000e13          	li	t3,16
    2718:	00000213          	li	tp,0
    271c:	00000093          	li	ra,0
    2720:	fff00113          	li	sp,-1
    2724:	00000013          	nop
    2728:	0c208e63          	beq	ra,sp,2804 <fail>
    272c:	00120213          	addi	tp,tp,1 # 1 <reset_vec+0x1>
    2730:	00200293          	li	t0,2
    2734:	fe5214e3          	bne	tp,t0,271c <test_16+0x8>

00002738 <test_17>:
    2738:	01100e13          	li	t3,17
    273c:	00000213          	li	tp,0
    2740:	00000093          	li	ra,0
    2744:	fff00113          	li	sp,-1
    2748:	00000013          	nop
    274c:	00000013          	nop
    2750:	0a208a63          	beq	ra,sp,2804 <fail>
    2754:	00120213          	addi	tp,tp,1 # 1 <reset_vec+0x1>
    2758:	00200293          	li	t0,2
    275c:	fe5212e3          	bne	tp,t0,2740 <test_17+0x8>

00002760 <test_18>:
    2760:	01200e13          	li	t3,18
    2764:	00000213          	li	tp,0
    2768:	00000093          	li	ra,0
    276c:	00000013          	nop
    2770:	fff00113          	li	sp,-1
    2774:	08208863          	beq	ra,sp,2804 <fail>
    2778:	00120213          	addi	tp,tp,1 # 1 <reset_vec+0x1>
    277c:	00200293          	li	t0,2
    2780:	fe5214e3          	bne	tp,t0,2768 <test_18+0x8>

00002784 <test_19>:
    2784:	01300e13          	li	t3,19
    2788:	00000213          	li	tp,0
    278c:	00000093          	li	ra,0
    2790:	00000013          	nop
    2794:	fff00113          	li	sp,-1
    2798:	00000013          	nop
    279c:	06208463          	beq	ra,sp,2804 <fail>
    27a0:	00120213          	addi	tp,tp,1 # 1 <reset_vec+0x1>
    27a4:	00200293          	li	t0,2
    27a8:	fe5212e3          	bne	tp,t0,278c <test_19+0x8>

000027ac <test_20>:
    27ac:	01400e13          	li	t3,20
    27b0:	00000213          	li	tp,0
    27b4:	00000093          	li	ra,0
    27b8:	00000013          	nop
    27bc:	00000013          	nop
    27c0:	fff00113          	li	sp,-1
    27c4:	04208063          	beq	ra,sp,2804 <fail>
    27c8:	00120213          	addi	tp,tp,1 # 1 <reset_vec+0x1>
    27cc:	00200293          	li	t0,2
    27d0:	fe5212e3          	bne	tp,t0,27b4 <test_20+0x8>

000027d4 <test_21>:
    27d4:	00100093          	li	ra,1
    27d8:	00000a63          	beqz	zero,27ec <test_21+0x18>
    27dc:	00108093          	addi	ra,ra,1
    27e0:	00108093          	addi	ra,ra,1
    27e4:	00108093          	addi	ra,ra,1
    27e8:	00108093          	addi	ra,ra,1
    27ec:	00108093          	addi	ra,ra,1
    27f0:	00108093          	addi	ra,ra,1
    27f4:	00300e93          	li	t4,3
    27f8:	01500e13          	li	t3,21
    27fc:	01d09463          	bne	ra,t4,2804 <fail>
    2800:	05c01863          	bne	zero,t3,2850 <pass>

00002804 <fail>:
    2804:	00000513          	li	a0,0
    2808:	10000537          	lui	a0,0x10000
    280c:	04500593          	li	a1,69
    2810:	05200613          	li	a2,82
    2814:	04f00693          	li	a3,79
    2818:	00b52023          	sw	a1,0(a0) # 10000000 <end+0xfff3903>
    281c:	00c52023          	sw	a2,0(a0)
    2820:	00c52023          	sw	a2,0(a0)
    2824:	00d52023          	sw	a3,0(a0)
    2828:	00c52023          	sw	a2,0(a0)
    282c:	030e0593          	addi	a1,t3,48
    2830:	02000613          	li	a2,32
    2834:	03a00693          	li	a3,58
    2838:	00d52023          	sw	a3,0(a0)
    283c:	00c52023          	sw	a2,0(a0)
    2840:	00b52023          	sw	a1,0(a0)
    2844:	00a00713          	li	a4,10
    2848:	00e52023          	sw	a4,0(a0)
    284c:	8f1fd06f          	j	13c <beq_ret>

00002850 <pass>:
    2850:	00000513          	li	a0,0
    2854:	10000537          	lui	a0,0x10000
    2858:	04f00593          	li	a1,79
    285c:	04b00613          	li	a2,75
    2860:	00a00693          	li	a3,10
    2864:	00b52023          	sw	a1,0(a0) # 10000000 <end+0xfff3903>
    2868:	00c52023          	sw	a2,0(a0)
    286c:	00d52023          	sw	a3,0(a0)
    2870:	8cdfd06f          	j	13c <beq_ret>

00002874 <bge>:
    2874:	00003537          	lui	a0,0x3
    2878:	89850513          	addi	a0,a0,-1896 # 2898 <.test_name>
    287c:	00000613          	li	a2,0
    2880:	10000637          	lui	a2,0x10000

00002884 <.prname_next>:
    2884:	00050583          	lb	a1,0(a0)
    2888:	00058a63          	beqz	a1,289c <.prname_done>
    288c:	00b62023          	sw	a1,0(a2) # 10000000 <end+0xfff3903>
    2890:	00150513          	addi	a0,a0,1
    2894:	ff1ff06f          	j	2884 <.prname_next>

00002898 <.test_name>:
    2898:	00656762          	.word	0x00656762

0000289c <.prname_done>:
    289c:	00000613          	li	a2,0
    28a0:	10000637          	lui	a2,0x10000
    28a4:	02e00593          	li	a1,46
    28a8:	00b62023          	sw	a1,0(a2) # 10000000 <end+0xfff3903>
    28ac:	00b62023          	sw	a1,0(a2)

000028b0 <test_2>:
    28b0:	00200e13          	li	t3,2
    28b4:	00000093          	li	ra,0
    28b8:	00000113          	li	sp,0
    28bc:	0020d663          	bge	ra,sp,28c8 <test_2+0x18>
    28c0:	31c01863          	bne	zero,t3,2bd0 <fail>
    28c4:	01c01663          	bne	zero,t3,28d0 <test_3>
    28c8:	fe20dee3          	bge	ra,sp,28c4 <test_2+0x14>
    28cc:	31c01263          	bne	zero,t3,2bd0 <fail>

000028d0 <test_3>:
    28d0:	00300e13          	li	t3,3
    28d4:	00100093          	li	ra,1
    28d8:	00100113          	li	sp,1
    28dc:	0020d663          	bge	ra,sp,28e8 <test_3+0x18>
    28e0:	2fc01863          	bne	zero,t3,2bd0 <fail>
    28e4:	01c01663          	bne	zero,t3,28f0 <test_4>
    28e8:	fe20dee3          	bge	ra,sp,28e4 <test_3+0x14>
    28ec:	2fc01263          	bne	zero,t3,2bd0 <fail>

000028f0 <test_4>:
    28f0:	00400e13          	li	t3,4
    28f4:	fff00093          	li	ra,-1
    28f8:	fff00113          	li	sp,-1
    28fc:	0020d663          	bge	ra,sp,2908 <test_4+0x18>
    2900:	2dc01863          	bne	zero,t3,2bd0 <fail>
    2904:	01c01663          	bne	zero,t3,2910 <test_5>
    2908:	fe20dee3          	bge	ra,sp,2904 <test_4+0x14>
    290c:	2dc01263          	bne	zero,t3,2bd0 <fail>

00002910 <test_5>:
    2910:	00500e13          	li	t3,5
    2914:	00100093          	li	ra,1
    2918:	00000113          	li	sp,0
    291c:	0020d663          	bge	ra,sp,2928 <test_5+0x18>
    2920:	2bc01863          	bne	zero,t3,2bd0 <fail>
    2924:	01c01663          	bne	zero,t3,2930 <test_6>
    2928:	fe20dee3          	bge	ra,sp,2924 <test_5+0x14>
    292c:	2bc01263          	bne	zero,t3,2bd0 <fail>

00002930 <test_6>:
    2930:	00600e13          	li	t3,6
    2934:	00100093          	li	ra,1
    2938:	fff00113          	li	sp,-1
    293c:	0020d663          	bge	ra,sp,2948 <test_6+0x18>
    2940:	29c01863          	bne	zero,t3,2bd0 <fail>
    2944:	01c01663          	bne	zero,t3,2950 <test_7>
    2948:	fe20dee3          	bge	ra,sp,2944 <test_6+0x14>
    294c:	29c01263          	bne	zero,t3,2bd0 <fail>

00002950 <test_7>:
    2950:	00700e13          	li	t3,7
    2954:	fff00093          	li	ra,-1
    2958:	ffe00113          	li	sp,-2
    295c:	0020d663          	bge	ra,sp,2968 <test_7+0x18>
    2960:	27c01863          	bne	zero,t3,2bd0 <fail>
    2964:	01c01663          	bne	zero,t3,2970 <test_8>
    2968:	fe20dee3          	bge	ra,sp,2964 <test_7+0x14>
    296c:	27c01263          	bne	zero,t3,2bd0 <fail>

00002970 <test_8>:
    2970:	00800e13          	li	t3,8
    2974:	00000093          	li	ra,0
    2978:	00100113          	li	sp,1
    297c:	0020d463          	bge	ra,sp,2984 <test_8+0x14>
    2980:	01c01463          	bne	zero,t3,2988 <test_8+0x18>
    2984:	25c01663          	bne	zero,t3,2bd0 <fail>
    2988:	fe20dee3          	bge	ra,sp,2984 <test_8+0x14>

0000298c <test_9>:
    298c:	00900e13          	li	t3,9
    2990:	fff00093          	li	ra,-1
    2994:	00100113          	li	sp,1
    2998:	0020d463          	bge	ra,sp,29a0 <test_9+0x14>
    299c:	01c01463          	bne	zero,t3,29a4 <test_9+0x18>
    29a0:	23c01863          	bne	zero,t3,2bd0 <fail>
    29a4:	fe20dee3          	bge	ra,sp,29a0 <test_9+0x14>

000029a8 <test_10>:
    29a8:	00a00e13          	li	t3,10
    29ac:	ffe00093          	li	ra,-2
    29b0:	fff00113          	li	sp,-1
    29b4:	0020d463          	bge	ra,sp,29bc <test_10+0x14>
    29b8:	01c01463          	bne	zero,t3,29c0 <test_10+0x18>
    29bc:	21c01a63          	bne	zero,t3,2bd0 <fail>
    29c0:	fe20dee3          	bge	ra,sp,29bc <test_10+0x14>

000029c4 <test_11>:
    29c4:	00b00e13          	li	t3,11
    29c8:	ffe00093          	li	ra,-2
    29cc:	00100113          	li	sp,1
    29d0:	0020d463          	bge	ra,sp,29d8 <test_11+0x14>
    29d4:	01c01463          	bne	zero,t3,29dc <test_11+0x18>
    29d8:	1fc01c63          	bne	zero,t3,2bd0 <fail>
    29dc:	fe20dee3          	bge	ra,sp,29d8 <test_11+0x14>

000029e0 <test_12>:
    29e0:	00c00e13          	li	t3,12
    29e4:	00000213          	li	tp,0
    29e8:	fff00093          	li	ra,-1
    29ec:	00000113          	li	sp,0
    29f0:	1e20d063          	bge	ra,sp,2bd0 <fail>
    29f4:	00120213          	addi	tp,tp,1 # 1 <reset_vec+0x1>
    29f8:	00200293          	li	t0,2
    29fc:	fe5216e3          	bne	tp,t0,29e8 <test_12+0x8>

00002a00 <test_13>:
    2a00:	00d00e13          	li	t3,13
    2a04:	00000213          	li	tp,0
    2a08:	fff00093          	li	ra,-1
    2a0c:	00000113          	li	sp,0
    2a10:	00000013          	nop
    2a14:	1a20de63          	bge	ra,sp,2bd0 <fail>
    2a18:	00120213          	addi	tp,tp,1 # 1 <reset_vec+0x1>
    2a1c:	00200293          	li	t0,2
    2a20:	fe5214e3          	bne	tp,t0,2a08 <test_13+0x8>

00002a24 <test_14>:
    2a24:	00e00e13          	li	t3,14
    2a28:	00000213          	li	tp,0
    2a2c:	fff00093          	li	ra,-1
    2a30:	00000113          	li	sp,0
    2a34:	00000013          	nop
    2a38:	00000013          	nop
    2a3c:	1820da63          	bge	ra,sp,2bd0 <fail>
    2a40:	00120213          	addi	tp,tp,1 # 1 <reset_vec+0x1>
    2a44:	00200293          	li	t0,2
    2a48:	fe5212e3          	bne	tp,t0,2a2c <test_14+0x8>

00002a4c <test_15>:
    2a4c:	00f00e13          	li	t3,15
    2a50:	00000213          	li	tp,0
    2a54:	fff00093          	li	ra,-1
    2a58:	00000013          	nop
    2a5c:	00000113          	li	sp,0
    2a60:	1620d863          	bge	ra,sp,2bd0 <fail>
    2a64:	00120213          	addi	tp,tp,1 # 1 <reset_vec+0x1>
    2a68:	00200293          	li	t0,2
    2a6c:	fe5214e3          	bne	tp,t0,2a54 <test_15+0x8>

00002a70 <test_16>:
    2a70:	01000e13          	li	t3,16
    2a74:	00000213          	li	tp,0
    2a78:	fff00093          	li	ra,-1
    2a7c:	00000013          	nop
    2a80:	00000113          	li	sp,0
    2a84:	00000013          	nop
    2a88:	1420d463          	bge	ra,sp,2bd0 <fail>
    2a8c:	00120213          	addi	tp,tp,1 # 1 <reset_vec+0x1>
    2a90:	00200293          	li	t0,2
    2a94:	fe5212e3          	bne	tp,t0,2a78 <test_16+0x8>

00002a98 <test_17>:
    2a98:	01100e13          	li	t3,17
    2a9c:	00000213          	li	tp,0
    2aa0:	fff00093          	li	ra,-1
    2aa4:	00000013          	nop
    2aa8:	00000013          	nop
    2aac:	00000113          	li	sp,0
    2ab0:	1220d063          	bge	ra,sp,2bd0 <fail>
    2ab4:	00120213          	addi	tp,tp,1 # 1 <reset_vec+0x1>
    2ab8:	00200293          	li	t0,2
    2abc:	fe5212e3          	bne	tp,t0,2aa0 <test_17+0x8>

00002ac0 <test_18>:
    2ac0:	01200e13          	li	t3,18
    2ac4:	00000213          	li	tp,0
    2ac8:	fff00093          	li	ra,-1
    2acc:	00000113          	li	sp,0
    2ad0:	1020d063          	bge	ra,sp,2bd0 <fail>
    2ad4:	00120213          	addi	tp,tp,1 # 1 <reset_vec+0x1>
    2ad8:	00200293          	li	t0,2
    2adc:	fe5216e3          	bne	tp,t0,2ac8 <test_18+0x8>

00002ae0 <test_19>:
    2ae0:	01300e13          	li	t3,19
    2ae4:	00000213          	li	tp,0
    2ae8:	fff00093          	li	ra,-1
    2aec:	00000113          	li	sp,0
    2af0:	00000013          	nop
    2af4:	0c20de63          	bge	ra,sp,2bd0 <fail>
    2af8:	00120213          	addi	tp,tp,1 # 1 <reset_vec+0x1>
    2afc:	00200293          	li	t0,2
    2b00:	fe5214e3          	bne	tp,t0,2ae8 <test_19+0x8>

00002b04 <test_20>:
    2b04:	01400e13          	li	t3,20
    2b08:	00000213          	li	tp,0
    2b0c:	fff00093          	li	ra,-1
    2b10:	00000113          	li	sp,0
    2b14:	00000013          	nop
    2b18:	00000013          	nop
    2b1c:	0a20da63          	bge	ra,sp,2bd0 <fail>
    2b20:	00120213          	addi	tp,tp,1 # 1 <reset_vec+0x1>
    2b24:	00200293          	li	t0,2
    2b28:	fe5212e3          	bne	tp,t0,2b0c <test_20+0x8>

00002b2c <test_21>:
    2b2c:	01500e13          	li	t3,21
    2b30:	00000213          	li	tp,0
    2b34:	fff00093          	li	ra,-1
    2b38:	00000013          	nop
    2b3c:	00000113          	li	sp,0
    2b40:	0820d863          	bge	ra,sp,2bd0 <fail>
    2b44:	00120213          	addi	tp,tp,1 # 1 <reset_vec+0x1>
    2b48:	00200293          	li	t0,2
    2b4c:	fe5214e3          	bne	tp,t0,2b34 <test_21+0x8>

00002b50 <test_22>:
    2b50:	01600e13          	li	t3,22
    2b54:	00000213          	li	tp,0
    2b58:	fff00093          	li	ra,-1
    2b5c:	00000013          	nop
    2b60:	00000113          	li	sp,0
    2b64:	00000013          	nop
    2b68:	0620d463          	bge	ra,sp,2bd0 <fail>
    2b6c:	00120213          	addi	tp,tp,1 # 1 <reset_vec+0x1>
    2b70:	00200293          	li	t0,2
    2b74:	fe5212e3          	bne	tp,t0,2b58 <test_22+0x8>

00002b78 <test_23>:
    2b78:	01700e13          	li	t3,23
    2b7c:	00000213          	li	tp,0
    2b80:	fff00093          	li	ra,-1
    2b84:	00000013          	nop
    2b88:	00000013          	nop
    2b8c:	00000113          	li	sp,0
    2b90:	0420d063          	bge	ra,sp,2bd0 <fail>
    2b94:	00120213          	addi	tp,tp,1 # 1 <reset_vec+0x1>
    2b98:	00200293          	li	t0,2
    2b9c:	fe5212e3          	bne	tp,t0,2b80 <test_23+0x8>

00002ba0 <test_24>:
    2ba0:	00100093          	li	ra,1
    2ba4:	0000da63          	bgez	ra,2bb8 <test_24+0x18>
    2ba8:	00108093          	addi	ra,ra,1
    2bac:	00108093          	addi	ra,ra,1
    2bb0:	00108093          	addi	ra,ra,1
    2bb4:	00108093          	addi	ra,ra,1
    2bb8:	00108093          	addi	ra,ra,1
    2bbc:	00108093          	addi	ra,ra,1
    2bc0:	00300e93          	li	t4,3
    2bc4:	01800e13          	li	t3,24
    2bc8:	01d09463          	bne	ra,t4,2bd0 <fail>
    2bcc:	05c01863          	bne	zero,t3,2c1c <pass>

00002bd0 <fail>:
    2bd0:	00000513          	li	a0,0
    2bd4:	10000537          	lui	a0,0x10000
    2bd8:	04500593          	li	a1,69
    2bdc:	05200613          	li	a2,82
    2be0:	04f00693          	li	a3,79
    2be4:	00b52023          	sw	a1,0(a0) # 10000000 <end+0xfff3903>
    2be8:	00c52023          	sw	a2,0(a0)
    2bec:	00c52023          	sw	a2,0(a0)
    2bf0:	00d52023          	sw	a3,0(a0)
    2bf4:	00c52023          	sw	a2,0(a0)
    2bf8:	030e0593          	addi	a1,t3,48
    2bfc:	02000613          	li	a2,32
    2c00:	03a00693          	li	a3,58
    2c04:	00d52023          	sw	a3,0(a0)
    2c08:	00c52023          	sw	a2,0(a0)
    2c0c:	00b52023          	sw	a1,0(a0)
    2c10:	00a00713          	li	a4,10
    2c14:	00e52023          	sw	a4,0(a0)
    2c18:	d3cfd06f          	j	154 <bge_ret>

00002c1c <pass>:
    2c1c:	00000513          	li	a0,0
    2c20:	10000537          	lui	a0,0x10000
    2c24:	04f00593          	li	a1,79
    2c28:	04b00613          	li	a2,75
    2c2c:	00a00693          	li	a3,10
    2c30:	00b52023          	sw	a1,0(a0) # 10000000 <end+0xfff3903>
    2c34:	00c52023          	sw	a2,0(a0)
    2c38:	00d52023          	sw	a3,0(a0)
    2c3c:	d18fd06f          	j	154 <bge_ret>

00002c40 <bgeu>:
    2c40:	00003537          	lui	a0,0x3
    2c44:	c6450513          	addi	a0,a0,-924 # 2c64 <.test_name>
    2c48:	00000613          	li	a2,0
    2c4c:	10000637          	lui	a2,0x10000

00002c50 <.prname_next>:
    2c50:	00050583          	lb	a1,0(a0)
    2c54:	00058c63          	beqz	a1,2c6c <.prname_done>
    2c58:	00b62023          	sw	a1,0(a2) # 10000000 <end+0xfff3903>
    2c5c:	00150513          	addi	a0,a0,1
    2c60:	ff1ff06f          	j	2c50 <.prname_next>

00002c64 <.test_name>:
    2c64:	75656762          	.word	0x75656762
    2c68:	00000000          	.word	0x00000000

00002c6c <.prname_done>:
    2c6c:	00000613          	li	a2,0
    2c70:	10000637          	lui	a2,0x10000
    2c74:	02e00593          	li	a1,46
    2c78:	00b62023          	sw	a1,0(a2) # 10000000 <end+0xfff3903>
    2c7c:	00b62023          	sw	a1,0(a2)

00002c80 <test_2>:
    2c80:	00200e13          	li	t3,2
    2c84:	00000093          	li	ra,0
    2c88:	00000113          	li	sp,0
    2c8c:	0020f663          	bgeu	ra,sp,2c98 <test_2+0x18>
    2c90:	35c01263          	bne	zero,t3,2fd4 <fail>
    2c94:	01c01663          	bne	zero,t3,2ca0 <test_3>
    2c98:	fe20fee3          	bgeu	ra,sp,2c94 <test_2+0x14>
    2c9c:	33c01c63          	bne	zero,t3,2fd4 <fail>

00002ca0 <test_3>:
    2ca0:	00300e13          	li	t3,3
    2ca4:	00100093          	li	ra,1
    2ca8:	00100113          	li	sp,1
    2cac:	0020f663          	bgeu	ra,sp,2cb8 <test_3+0x18>
    2cb0:	33c01263          	bne	zero,t3,2fd4 <fail>
    2cb4:	01c01663          	bne	zero,t3,2cc0 <test_4>
    2cb8:	fe20fee3          	bgeu	ra,sp,2cb4 <test_3+0x14>
    2cbc:	31c01c63          	bne	zero,t3,2fd4 <fail>

00002cc0 <test_4>:
    2cc0:	00400e13          	li	t3,4
    2cc4:	fff00093          	li	ra,-1
    2cc8:	fff00113          	li	sp,-1
    2ccc:	0020f663          	bgeu	ra,sp,2cd8 <test_4+0x18>
    2cd0:	31c01263          	bne	zero,t3,2fd4 <fail>
    2cd4:	01c01663          	bne	zero,t3,2ce0 <test_5>
    2cd8:	fe20fee3          	bgeu	ra,sp,2cd4 <test_4+0x14>
    2cdc:	2fc01c63          	bne	zero,t3,2fd4 <fail>

00002ce0 <test_5>:
    2ce0:	00500e13          	li	t3,5
    2ce4:	00100093          	li	ra,1
    2ce8:	00000113          	li	sp,0
    2cec:	0020f663          	bgeu	ra,sp,2cf8 <test_5+0x18>
    2cf0:	2fc01263          	bne	zero,t3,2fd4 <fail>
    2cf4:	01c01663          	bne	zero,t3,2d00 <test_6>
    2cf8:	fe20fee3          	bgeu	ra,sp,2cf4 <test_5+0x14>
    2cfc:	2dc01c63          	bne	zero,t3,2fd4 <fail>

00002d00 <test_6>:
    2d00:	00600e13          	li	t3,6
    2d04:	fff00093          	li	ra,-1
    2d08:	ffe00113          	li	sp,-2
    2d0c:	0020f663          	bgeu	ra,sp,2d18 <test_6+0x18>
    2d10:	2dc01263          	bne	zero,t3,2fd4 <fail>
    2d14:	01c01663          	bne	zero,t3,2d20 <test_7>
    2d18:	fe20fee3          	bgeu	ra,sp,2d14 <test_6+0x14>
    2d1c:	2bc01c63          	bne	zero,t3,2fd4 <fail>

00002d20 <test_7>:
    2d20:	00700e13          	li	t3,7
    2d24:	fff00093          	li	ra,-1
    2d28:	00000113          	li	sp,0
    2d2c:	0020f663          	bgeu	ra,sp,2d38 <test_7+0x18>
    2d30:	2bc01263          	bne	zero,t3,2fd4 <fail>
    2d34:	01c01663          	bne	zero,t3,2d40 <test_8>
    2d38:	fe20fee3          	bgeu	ra,sp,2d34 <test_7+0x14>
    2d3c:	29c01c63          	bne	zero,t3,2fd4 <fail>

00002d40 <test_8>:
    2d40:	00800e13          	li	t3,8
    2d44:	00000093          	li	ra,0
    2d48:	00100113          	li	sp,1
    2d4c:	0020f463          	bgeu	ra,sp,2d54 <test_8+0x14>
    2d50:	01c01463          	bne	zero,t3,2d58 <test_8+0x18>
    2d54:	29c01063          	bne	zero,t3,2fd4 <fail>
    2d58:	fe20fee3          	bgeu	ra,sp,2d54 <test_8+0x14>

00002d5c <test_9>:
    2d5c:	00900e13          	li	t3,9
    2d60:	ffe00093          	li	ra,-2
    2d64:	fff00113          	li	sp,-1
    2d68:	0020f463          	bgeu	ra,sp,2d70 <test_9+0x14>
    2d6c:	01c01463          	bne	zero,t3,2d74 <test_9+0x18>
    2d70:	27c01263          	bne	zero,t3,2fd4 <fail>
    2d74:	fe20fee3          	bgeu	ra,sp,2d70 <test_9+0x14>

00002d78 <test_10>:
    2d78:	00a00e13          	li	t3,10
    2d7c:	00000093          	li	ra,0
    2d80:	fff00113          	li	sp,-1
    2d84:	0020f463          	bgeu	ra,sp,2d8c <test_10+0x14>
    2d88:	01c01463          	bne	zero,t3,2d90 <test_10+0x18>
    2d8c:	25c01463          	bne	zero,t3,2fd4 <fail>
    2d90:	fe20fee3          	bgeu	ra,sp,2d8c <test_10+0x14>

00002d94 <test_11>:
    2d94:	00b00e13          	li	t3,11
    2d98:	800000b7          	lui	ra,0x80000
    2d9c:	fff08093          	addi	ra,ra,-1 # 7fffffff <end+0x7fff3902>
    2da0:	80000137          	lui	sp,0x80000
    2da4:	0020f463          	bgeu	ra,sp,2dac <test_11+0x18>
    2da8:	01c01463          	bne	zero,t3,2db0 <test_11+0x1c>
    2dac:	23c01463          	bne	zero,t3,2fd4 <fail>
    2db0:	fe20fee3          	bgeu	ra,sp,2dac <test_11+0x18>

00002db4 <test_12>:
    2db4:	00c00e13          	li	t3,12
    2db8:	00000213          	li	tp,0
    2dbc:	f00000b7          	lui	ra,0xf0000
    2dc0:	fff08093          	addi	ra,ra,-1 # efffffff <end+0xefff3902>
    2dc4:	f0000137          	lui	sp,0xf0000
    2dc8:	2020f663          	bgeu	ra,sp,2fd4 <fail>
    2dcc:	00120213          	addi	tp,tp,1 # 1 <reset_vec+0x1>
    2dd0:	00200293          	li	t0,2
    2dd4:	fe5214e3          	bne	tp,t0,2dbc <test_12+0x8>

00002dd8 <test_13>:
    2dd8:	00d00e13          	li	t3,13
    2ddc:	00000213          	li	tp,0
    2de0:	f00000b7          	lui	ra,0xf0000
    2de4:	fff08093          	addi	ra,ra,-1 # efffffff <end+0xefff3902>
    2de8:	f0000137          	lui	sp,0xf0000
    2dec:	00000013          	nop
    2df0:	1e20f263          	bgeu	ra,sp,2fd4 <fail>
    2df4:	00120213          	addi	tp,tp,1 # 1 <reset_vec+0x1>
    2df8:	00200293          	li	t0,2
    2dfc:	fe5212e3          	bne	tp,t0,2de0 <test_13+0x8>

00002e00 <test_14>:
    2e00:	00e00e13          	li	t3,14
    2e04:	00000213          	li	tp,0
    2e08:	f00000b7          	lui	ra,0xf0000
    2e0c:	fff08093          	addi	ra,ra,-1 # efffffff <end+0xefff3902>
    2e10:	f0000137          	lui	sp,0xf0000
    2e14:	00000013          	nop
    2e18:	00000013          	nop
    2e1c:	1a20fc63          	bgeu	ra,sp,2fd4 <fail>
    2e20:	00120213          	addi	tp,tp,1 # 1 <reset_vec+0x1>
    2e24:	00200293          	li	t0,2
    2e28:	fe5210e3          	bne	tp,t0,2e08 <test_14+0x8>

00002e2c <test_15>:
    2e2c:	00f00e13          	li	t3,15
    2e30:	00000213          	li	tp,0
    2e34:	f00000b7          	lui	ra,0xf0000
    2e38:	fff08093          	addi	ra,ra,-1 # efffffff <end+0xefff3902>
    2e3c:	00000013          	nop
    2e40:	f0000137          	lui	sp,0xf0000
    2e44:	1820f863          	bgeu	ra,sp,2fd4 <fail>
    2e48:	00120213          	addi	tp,tp,1 # 1 <reset_vec+0x1>
    2e4c:	00200293          	li	t0,2
    2e50:	fe5212e3          	bne	tp,t0,2e34 <test_15+0x8>

00002e54 <test_16>:
    2e54:	01000e13          	li	t3,16
    2e58:	00000213          	li	tp,0
    2e5c:	f00000b7          	lui	ra,0xf0000
    2e60:	fff08093          	addi	ra,ra,-1 # efffffff <end+0xefff3902>
    2e64:	00000013          	nop
    2e68:	f0000137          	lui	sp,0xf0000
    2e6c:	00000013          	nop
    2e70:	1620f263          	bgeu	ra,sp,2fd4 <fail>
    2e74:	00120213          	addi	tp,tp,1 # 1 <reset_vec+0x1>
    2e78:	00200293          	li	t0,2
    2e7c:	fe5210e3          	bne	tp,t0,2e5c <test_16+0x8>

00002e80 <test_17>:
    2e80:	01100e13          	li	t3,17
    2e84:	00000213          	li	tp,0
    2e88:	f00000b7          	lui	ra,0xf0000
    2e8c:	fff08093          	addi	ra,ra,-1 # efffffff <end+0xefff3902>
    2e90:	00000013          	nop
    2e94:	00000013          	nop
    2e98:	f0000137          	lui	sp,0xf0000
    2e9c:	1220fc63          	bgeu	ra,sp,2fd4 <fail>
    2ea0:	00120213          	addi	tp,tp,1 # 1 <reset_vec+0x1>
    2ea4:	00200293          	li	t0,2
    2ea8:	fe5210e3          	bne	tp,t0,2e88 <test_17+0x8>

00002eac <test_18>:
    2eac:	01200e13          	li	t3,18
    2eb0:	00000213          	li	tp,0
    2eb4:	f00000b7          	lui	ra,0xf0000
    2eb8:	fff08093          	addi	ra,ra,-1 # efffffff <end+0xefff3902>
    2ebc:	f0000137          	lui	sp,0xf0000
    2ec0:	1020fa63          	bgeu	ra,sp,2fd4 <fail>
    2ec4:	00120213          	addi	tp,tp,1 # 1 <reset_vec+0x1>
    2ec8:	00200293          	li	t0,2
    2ecc:	fe5214e3          	bne	tp,t0,2eb4 <test_18+0x8>

00002ed0 <test_19>:
    2ed0:	01300e13          	li	t3,19
    2ed4:	00000213          	li	tp,0
    2ed8:	f00000b7          	lui	ra,0xf0000
    2edc:	fff08093          	addi	ra,ra,-1 # efffffff <end+0xefff3902>
    2ee0:	f0000137          	lui	sp,0xf0000
    2ee4:	00000013          	nop
    2ee8:	0e20f663          	bgeu	ra,sp,2fd4 <fail>
    2eec:	00120213          	addi	tp,tp,1 # 1 <reset_vec+0x1>
    2ef0:	00200293          	li	t0,2
    2ef4:	fe5212e3          	bne	tp,t0,2ed8 <test_19+0x8>

00002ef8 <test_20>:
    2ef8:	01400e13          	li	t3,20
    2efc:	00000213          	li	tp,0
    2f00:	f00000b7          	lui	ra,0xf0000
    2f04:	fff08093          	addi	ra,ra,-1 # efffffff <end+0xefff3902>
    2f08:	f0000137          	lui	sp,0xf0000
    2f0c:	00000013          	nop
    2f10:	00000013          	nop
    2f14:	0c20f063          	bgeu	ra,sp,2fd4 <fail>
    2f18:	00120213          	addi	tp,tp,1 # 1 <reset_vec+0x1>
    2f1c:	00200293          	li	t0,2
    2f20:	fe5210e3          	bne	tp,t0,2f00 <test_20+0x8>

00002f24 <test_21>:
    2f24:	01500e13          	li	t3,21
    2f28:	00000213          	li	tp,0
    2f2c:	f00000b7          	lui	ra,0xf0000
    2f30:	fff08093          	addi	ra,ra,-1 # efffffff <end+0xefff3902>
    2f34:	00000013          	nop
    2f38:	f0000137          	lui	sp,0xf0000
    2f3c:	0820fc63          	bgeu	ra,sp,2fd4 <fail>
    2f40:	00120213          	addi	tp,tp,1 # 1 <reset_vec+0x1>
    2f44:	00200293          	li	t0,2
    2f48:	fe5212e3          	bne	tp,t0,2f2c <test_21+0x8>

00002f4c <test_22>:
    2f4c:	01600e13          	li	t3,22
    2f50:	00000213          	li	tp,0
    2f54:	f00000b7          	lui	ra,0xf0000
    2f58:	fff08093          	addi	ra,ra,-1 # efffffff <end+0xefff3902>
    2f5c:	00000013          	nop
    2f60:	f0000137          	lui	sp,0xf0000
    2f64:	00000013          	nop
    2f68:	0620f663          	bgeu	ra,sp,2fd4 <fail>
    2f6c:	00120213          	addi	tp,tp,1 # 1 <reset_vec+0x1>
    2f70:	00200293          	li	t0,2
    2f74:	fe5210e3          	bne	tp,t0,2f54 <test_22+0x8>

00002f78 <test_23>:
    2f78:	01700e13          	li	t3,23
    2f7c:	00000213          	li	tp,0
    2f80:	f00000b7          	lui	ra,0xf0000
    2f84:	fff08093          	addi	ra,ra,-1 # efffffff <end+0xefff3902>
    2f88:	00000013          	nop
    2f8c:	00000013          	nop
    2f90:	f0000137          	lui	sp,0xf0000
    2f94:	0420f063          	bgeu	ra,sp,2fd4 <fail>
    2f98:	00120213          	addi	tp,tp,1 # 1 <reset_vec+0x1>
    2f9c:	00200293          	li	t0,2
    2fa0:	fe5210e3          	bne	tp,t0,2f80 <test_23+0x8>

00002fa4 <test_24>:
    2fa4:	00100093          	li	ra,1
    2fa8:	0000fa63          	bgeu	ra,zero,2fbc <test_24+0x18>
    2fac:	00108093          	addi	ra,ra,1
    2fb0:	00108093          	addi	ra,ra,1
    2fb4:	00108093          	addi	ra,ra,1
    2fb8:	00108093          	addi	ra,ra,1
    2fbc:	00108093          	addi	ra,ra,1
    2fc0:	00108093          	addi	ra,ra,1
    2fc4:	00300e93          	li	t4,3
    2fc8:	01800e13          	li	t3,24
    2fcc:	01d09463          	bne	ra,t4,2fd4 <fail>
    2fd0:	05c01863          	bne	zero,t3,3020 <pass>

00002fd4 <fail>:
    2fd4:	00000513          	li	a0,0
    2fd8:	10000537          	lui	a0,0x10000
    2fdc:	04500593          	li	a1,69
    2fe0:	05200613          	li	a2,82
    2fe4:	04f00693          	li	a3,79
    2fe8:	00b52023          	sw	a1,0(a0) # 10000000 <end+0xfff3903>
    2fec:	00c52023          	sw	a2,0(a0)
    2ff0:	00c52023          	sw	a2,0(a0)
    2ff4:	00d52023          	sw	a3,0(a0)
    2ff8:	00c52023          	sw	a2,0(a0)
    2ffc:	030e0593          	addi	a1,t3,48
    3000:	02000613          	li	a2,32
    3004:	03a00693          	li	a3,58
    3008:	00d52023          	sw	a3,0(a0)
    300c:	00c52023          	sw	a2,0(a0)
    3010:	00b52023          	sw	a1,0(a0)
    3014:	00a00713          	li	a4,10
    3018:	00e52023          	sw	a4,0(a0)
    301c:	948fd06f          	j	164 <bgeu_ret>

00003020 <pass>:
    3020:	00000513          	li	a0,0
    3024:	10000537          	lui	a0,0x10000
    3028:	04f00593          	li	a1,79
    302c:	04b00613          	li	a2,75
    3030:	00a00693          	li	a3,10
    3034:	00b52023          	sw	a1,0(a0) # 10000000 <end+0xfff3903>
    3038:	00c52023          	sw	a2,0(a0)
    303c:	00d52023          	sw	a3,0(a0)
    3040:	924fd06f          	j	164 <bgeu_ret>

00003044 <blt>:
    3044:	00003537          	lui	a0,0x3
    3048:	06850513          	addi	a0,a0,104 # 3068 <.test_name>
    304c:	00000613          	li	a2,0
    3050:	10000637          	lui	a2,0x10000

00003054 <.prname_next>:
    3054:	00050583          	lb	a1,0(a0)
    3058:	00058a63          	beqz	a1,306c <.prname_done>
    305c:	00b62023          	sw	a1,0(a2) # 10000000 <end+0xfff3903>
    3060:	00150513          	addi	a0,a0,1
    3064:	ff1ff06f          	j	3054 <.prname_next>

00003068 <.test_name>:
    3068:	00746c62          	.word	0x00746c62

0000306c <.prname_done>:
    306c:	00000613          	li	a2,0
    3070:	10000637          	lui	a2,0x10000
    3074:	02e00593          	li	a1,46
    3078:	00b62023          	sw	a1,0(a2) # 10000000 <end+0xfff3903>
    307c:	00b62023          	sw	a1,0(a2)

00003080 <test_2>:
    3080:	00200e13          	li	t3,2
    3084:	00000093          	li	ra,0
    3088:	00100113          	li	sp,1
    308c:	0020c663          	blt	ra,sp,3098 <test_2+0x18>
    3090:	2bc01863          	bne	zero,t3,3340 <fail>
    3094:	01c01663          	bne	zero,t3,30a0 <test_3>
    3098:	fe20cee3          	blt	ra,sp,3094 <test_2+0x14>
    309c:	2bc01263          	bne	zero,t3,3340 <fail>

000030a0 <test_3>:
    30a0:	00300e13          	li	t3,3
    30a4:	fff00093          	li	ra,-1
    30a8:	00100113          	li	sp,1
    30ac:	0020c663          	blt	ra,sp,30b8 <test_3+0x18>
    30b0:	29c01863          	bne	zero,t3,3340 <fail>
    30b4:	01c01663          	bne	zero,t3,30c0 <test_4>
    30b8:	fe20cee3          	blt	ra,sp,30b4 <test_3+0x14>
    30bc:	29c01263          	bne	zero,t3,3340 <fail>

000030c0 <test_4>:
    30c0:	00400e13          	li	t3,4
    30c4:	ffe00093          	li	ra,-2
    30c8:	fff00113          	li	sp,-1
    30cc:	0020c663          	blt	ra,sp,30d8 <test_4+0x18>
    30d0:	27c01863          	bne	zero,t3,3340 <fail>
    30d4:	01c01663          	bne	zero,t3,30e0 <test_5>
    30d8:	fe20cee3          	blt	ra,sp,30d4 <test_4+0x14>
    30dc:	27c01263          	bne	zero,t3,3340 <fail>

000030e0 <test_5>:
    30e0:	00500e13          	li	t3,5
    30e4:	00100093          	li	ra,1
    30e8:	00000113          	li	sp,0
    30ec:	0020c463          	blt	ra,sp,30f4 <test_5+0x14>
    30f0:	01c01463          	bne	zero,t3,30f8 <test_5+0x18>
    30f4:	25c01663          	bne	zero,t3,3340 <fail>
    30f8:	fe20cee3          	blt	ra,sp,30f4 <test_5+0x14>

000030fc <test_6>:
    30fc:	00600e13          	li	t3,6
    3100:	00100093          	li	ra,1
    3104:	fff00113          	li	sp,-1
    3108:	0020c463          	blt	ra,sp,3110 <test_6+0x14>
    310c:	01c01463          	bne	zero,t3,3114 <test_6+0x18>
    3110:	23c01863          	bne	zero,t3,3340 <fail>
    3114:	fe20cee3          	blt	ra,sp,3110 <test_6+0x14>

00003118 <test_7>:
    3118:	00700e13          	li	t3,7
    311c:	fff00093          	li	ra,-1
    3120:	ffe00113          	li	sp,-2
    3124:	0020c463          	blt	ra,sp,312c <test_7+0x14>
    3128:	01c01463          	bne	zero,t3,3130 <test_7+0x18>
    312c:	21c01a63          	bne	zero,t3,3340 <fail>
    3130:	fe20cee3          	blt	ra,sp,312c <test_7+0x14>

00003134 <test_8>:
    3134:	00800e13          	li	t3,8
    3138:	00100093          	li	ra,1
    313c:	ffe00113          	li	sp,-2
    3140:	0020c463          	blt	ra,sp,3148 <test_8+0x14>
    3144:	01c01463          	bne	zero,t3,314c <test_8+0x18>
    3148:	1fc01c63          	bne	zero,t3,3340 <fail>
    314c:	fe20cee3          	blt	ra,sp,3148 <test_8+0x14>

00003150 <test_9>:
    3150:	00900e13          	li	t3,9
    3154:	00000213          	li	tp,0
    3158:	00000093          	li	ra,0
    315c:	fff00113          	li	sp,-1
    3160:	1e20c063          	blt	ra,sp,3340 <fail>
    3164:	00120213          	addi	tp,tp,1 # 1 <reset_vec+0x1>
    3168:	00200293          	li	t0,2
    316c:	fe5216e3          	bne	tp,t0,3158 <test_9+0x8>

00003170 <test_10>:
    3170:	00a00e13          	li	t3,10
    3174:	00000213          	li	tp,0
    3178:	00000093          	li	ra,0
    317c:	fff00113          	li	sp,-1
    3180:	00000013          	nop
    3184:	1a20ce63          	blt	ra,sp,3340 <fail>
    3188:	00120213          	addi	tp,tp,1 # 1 <reset_vec+0x1>
    318c:	00200293          	li	t0,2
    3190:	fe5214e3          	bne	tp,t0,3178 <test_10+0x8>

00003194 <test_11>:
    3194:	00b00e13          	li	t3,11
    3198:	00000213          	li	tp,0
    319c:	00000093          	li	ra,0
    31a0:	fff00113          	li	sp,-1
    31a4:	00000013          	nop
    31a8:	00000013          	nop
    31ac:	1820ca63          	blt	ra,sp,3340 <fail>
    31b0:	00120213          	addi	tp,tp,1 # 1 <reset_vec+0x1>
    31b4:	00200293          	li	t0,2
    31b8:	fe5212e3          	bne	tp,t0,319c <test_11+0x8>

000031bc <test_12>:
    31bc:	00c00e13          	li	t3,12
    31c0:	00000213          	li	tp,0
    31c4:	00000093          	li	ra,0
    31c8:	00000013          	nop
    31cc:	fff00113          	li	sp,-1
    31d0:	1620c863          	blt	ra,sp,3340 <fail>
    31d4:	00120213          	addi	tp,tp,1 # 1 <reset_vec+0x1>
    31d8:	00200293          	li	t0,2
    31dc:	fe5214e3          	bne	tp,t0,31c4 <test_12+0x8>

000031e0 <test_13>:
    31e0:	00d00e13          	li	t3,13
    31e4:	00000213          	li	tp,0
    31e8:	00000093          	li	ra,0
    31ec:	00000013          	nop
    31f0:	fff00113          	li	sp,-1
    31f4:	00000013          	nop
    31f8:	1420c463          	blt	ra,sp,3340 <fail>
    31fc:	00120213          	addi	tp,tp,1 # 1 <reset_vec+0x1>
    3200:	00200293          	li	t0,2
    3204:	fe5212e3          	bne	tp,t0,31e8 <test_13+0x8>

00003208 <test_14>:
    3208:	00e00e13          	li	t3,14
    320c:	00000213          	li	tp,0
    3210:	00000093          	li	ra,0
    3214:	00000013          	nop
    3218:	00000013          	nop
    321c:	fff00113          	li	sp,-1
    3220:	1220c063          	blt	ra,sp,3340 <fail>
    3224:	00120213          	addi	tp,tp,1 # 1 <reset_vec+0x1>
    3228:	00200293          	li	t0,2
    322c:	fe5212e3          	bne	tp,t0,3210 <test_14+0x8>

00003230 <test_15>:
    3230:	00f00e13          	li	t3,15
    3234:	00000213          	li	tp,0
    3238:	00000093          	li	ra,0
    323c:	fff00113          	li	sp,-1
    3240:	1020c063          	blt	ra,sp,3340 <fail>
    3244:	00120213          	addi	tp,tp,1 # 1 <reset_vec+0x1>
    3248:	00200293          	li	t0,2
    324c:	fe5216e3          	bne	tp,t0,3238 <test_15+0x8>

00003250 <test_16>:
    3250:	01000e13          	li	t3,16
    3254:	00000213          	li	tp,0
    3258:	00000093          	li	ra,0
    325c:	fff00113          	li	sp,-1
    3260:	00000013          	nop
    3264:	0c20ce63          	blt	ra,sp,3340 <fail>
    3268:	00120213          	addi	tp,tp,1 # 1 <reset_vec+0x1>
    326c:	00200293          	li	t0,2
    3270:	fe5214e3          	bne	tp,t0,3258 <test_16+0x8>

00003274 <test_17>:
    3274:	01100e13          	li	t3,17
    3278:	00000213          	li	tp,0
    327c:	00000093          	li	ra,0
    3280:	fff00113          	li	sp,-1
    3284:	00000013          	nop
    3288:	00000013          	nop
    328c:	0a20ca63          	blt	ra,sp,3340 <fail>
    3290:	00120213          	addi	tp,tp,1 # 1 <reset_vec+0x1>
    3294:	00200293          	li	t0,2
    3298:	fe5212e3          	bne	tp,t0,327c <test_17+0x8>

0000329c <test_18>:
    329c:	01200e13          	li	t3,18
    32a0:	00000213          	li	tp,0
    32a4:	00000093          	li	ra,0
    32a8:	00000013          	nop
    32ac:	fff00113          	li	sp,-1
    32b0:	0820c863          	blt	ra,sp,3340 <fail>
    32b4:	00120213          	addi	tp,tp,1 # 1 <reset_vec+0x1>
    32b8:	00200293          	li	t0,2
    32bc:	fe5214e3          	bne	tp,t0,32a4 <test_18+0x8>

000032c0 <test_19>:
    32c0:	01300e13          	li	t3,19
    32c4:	00000213          	li	tp,0
    32c8:	00000093          	li	ra,0
    32cc:	00000013          	nop
    32d0:	fff00113          	li	sp,-1
    32d4:	00000013          	nop
    32d8:	0620c463          	blt	ra,sp,3340 <fail>
    32dc:	00120213          	addi	tp,tp,1 # 1 <reset_vec+0x1>
    32e0:	00200293          	li	t0,2
    32e4:	fe5212e3          	bne	tp,t0,32c8 <test_19+0x8>

000032e8 <test_20>:
    32e8:	01400e13          	li	t3,20
    32ec:	00000213          	li	tp,0
    32f0:	00000093          	li	ra,0
    32f4:	00000013          	nop
    32f8:	00000013          	nop
    32fc:	fff00113          	li	sp,-1
    3300:	0420c063          	blt	ra,sp,3340 <fail>
    3304:	00120213          	addi	tp,tp,1 # 1 <reset_vec+0x1>
    3308:	00200293          	li	t0,2
    330c:	fe5212e3          	bne	tp,t0,32f0 <test_20+0x8>

00003310 <test_21>:
    3310:	00100093          	li	ra,1
    3314:	00104a63          	bgtz	ra,3328 <test_21+0x18>
    3318:	00108093          	addi	ra,ra,1
    331c:	00108093          	addi	ra,ra,1
    3320:	00108093          	addi	ra,ra,1
    3324:	00108093          	addi	ra,ra,1
    3328:	00108093          	addi	ra,ra,1
    332c:	00108093          	addi	ra,ra,1
    3330:	00300e93          	li	t4,3
    3334:	01500e13          	li	t3,21
    3338:	01d09463          	bne	ra,t4,3340 <fail>
    333c:	05c01863          	bne	zero,t3,338c <pass>

00003340 <fail>:
    3340:	00000513          	li	a0,0
    3344:	10000537          	lui	a0,0x10000
    3348:	04500593          	li	a1,69
    334c:	05200613          	li	a2,82
    3350:	04f00693          	li	a3,79
    3354:	00b52023          	sw	a1,0(a0) # 10000000 <end+0xfff3903>
    3358:	00c52023          	sw	a2,0(a0)
    335c:	00c52023          	sw	a2,0(a0)
    3360:	00d52023          	sw	a3,0(a0)
    3364:	00c52023          	sw	a2,0(a0)
    3368:	030e0593          	addi	a1,t3,48
    336c:	02000613          	li	a2,32
    3370:	03a00693          	li	a3,58
    3374:	00d52023          	sw	a3,0(a0)
    3378:	00c52023          	sw	a2,0(a0)
    337c:	00b52023          	sw	a1,0(a0)
    3380:	00a00713          	li	a4,10
    3384:	00e52023          	sw	a4,0(a0)
    3388:	dc5fc06f          	j	14c <blt_ret>

0000338c <pass>:
    338c:	00000513          	li	a0,0
    3390:	10000537          	lui	a0,0x10000
    3394:	04f00593          	li	a1,79
    3398:	04b00613          	li	a2,75
    339c:	00a00693          	li	a3,10
    33a0:	00b52023          	sw	a1,0(a0) # 10000000 <end+0xfff3903>
    33a4:	00c52023          	sw	a2,0(a0)
    33a8:	00d52023          	sw	a3,0(a0)
    33ac:	da1fc06f          	j	14c <blt_ret>

000033b0 <bltu>:
    33b0:	00003537          	lui	a0,0x3
    33b4:	3d450513          	addi	a0,a0,980 # 33d4 <.test_name>
    33b8:	00000613          	li	a2,0
    33bc:	10000637          	lui	a2,0x10000

000033c0 <.prname_next>:
    33c0:	00050583          	lb	a1,0(a0)
    33c4:	00058c63          	beqz	a1,33dc <.prname_done>
    33c8:	00b62023          	sw	a1,0(a2) # 10000000 <end+0xfff3903>
    33cc:	00150513          	addi	a0,a0,1
    33d0:	ff1ff06f          	j	33c0 <.prname_next>

000033d4 <.test_name>:
    33d4:	75746c62          	.word	0x75746c62
    33d8:	00000000          	.word	0x00000000

000033dc <.prname_done>:
    33dc:	00000613          	li	a2,0
    33e0:	10000637          	lui	a2,0x10000
    33e4:	02e00593          	li	a1,46
    33e8:	00b62023          	sw	a1,0(a2) # 10000000 <end+0xfff3903>
    33ec:	00b62023          	sw	a1,0(a2)

000033f0 <test_2>:
    33f0:	00200e13          	li	t3,2
    33f4:	00000093          	li	ra,0
    33f8:	00100113          	li	sp,1
    33fc:	0020e663          	bltu	ra,sp,3408 <test_2+0x18>
    3400:	2fc01263          	bne	zero,t3,36e4 <fail>
    3404:	01c01663          	bne	zero,t3,3410 <test_3>
    3408:	fe20eee3          	bltu	ra,sp,3404 <test_2+0x14>
    340c:	2dc01c63          	bne	zero,t3,36e4 <fail>

00003410 <test_3>:
    3410:	00300e13          	li	t3,3
    3414:	ffe00093          	li	ra,-2
    3418:	fff00113          	li	sp,-1
    341c:	0020e663          	bltu	ra,sp,3428 <test_3+0x18>
    3420:	2dc01263          	bne	zero,t3,36e4 <fail>
    3424:	01c01663          	bne	zero,t3,3430 <test_4>
    3428:	fe20eee3          	bltu	ra,sp,3424 <test_3+0x14>
    342c:	2bc01c63          	bne	zero,t3,36e4 <fail>

00003430 <test_4>:
    3430:	00400e13          	li	t3,4
    3434:	00000093          	li	ra,0
    3438:	fff00113          	li	sp,-1
    343c:	0020e663          	bltu	ra,sp,3448 <test_4+0x18>
    3440:	2bc01263          	bne	zero,t3,36e4 <fail>
    3444:	01c01663          	bne	zero,t3,3450 <test_5>
    3448:	fe20eee3          	bltu	ra,sp,3444 <test_4+0x14>
    344c:	29c01c63          	bne	zero,t3,36e4 <fail>

00003450 <test_5>:
    3450:	00500e13          	li	t3,5
    3454:	00100093          	li	ra,1
    3458:	00000113          	li	sp,0
    345c:	0020e463          	bltu	ra,sp,3464 <test_5+0x14>
    3460:	01c01463          	bne	zero,t3,3468 <test_5+0x18>
    3464:	29c01063          	bne	zero,t3,36e4 <fail>
    3468:	fe20eee3          	bltu	ra,sp,3464 <test_5+0x14>

0000346c <test_6>:
    346c:	00600e13          	li	t3,6
    3470:	fff00093          	li	ra,-1
    3474:	ffe00113          	li	sp,-2
    3478:	0020e463          	bltu	ra,sp,3480 <test_6+0x14>
    347c:	01c01463          	bne	zero,t3,3484 <test_6+0x18>
    3480:	27c01263          	bne	zero,t3,36e4 <fail>
    3484:	fe20eee3          	bltu	ra,sp,3480 <test_6+0x14>

00003488 <test_7>:
    3488:	00700e13          	li	t3,7
    348c:	fff00093          	li	ra,-1
    3490:	00000113          	li	sp,0
    3494:	0020e463          	bltu	ra,sp,349c <test_7+0x14>
    3498:	01c01463          	bne	zero,t3,34a0 <test_7+0x18>
    349c:	25c01463          	bne	zero,t3,36e4 <fail>
    34a0:	fe20eee3          	bltu	ra,sp,349c <test_7+0x14>

000034a4 <test_8>:
    34a4:	00800e13          	li	t3,8
    34a8:	800000b7          	lui	ra,0x80000
    34ac:	80000137          	lui	sp,0x80000
    34b0:	fff10113          	addi	sp,sp,-1 # 7fffffff <end+0x7fff3902>
    34b4:	0020e463          	bltu	ra,sp,34bc <test_8+0x18>
    34b8:	01c01463          	bne	zero,t3,34c0 <test_8+0x1c>
    34bc:	23c01463          	bne	zero,t3,36e4 <fail>
    34c0:	fe20eee3          	bltu	ra,sp,34bc <test_8+0x18>

000034c4 <test_9>:
    34c4:	00900e13          	li	t3,9
    34c8:	00000213          	li	tp,0
    34cc:	f00000b7          	lui	ra,0xf0000
    34d0:	f0000137          	lui	sp,0xf0000
    34d4:	fff10113          	addi	sp,sp,-1 # efffffff <end+0xefff3902>
    34d8:	2020e663          	bltu	ra,sp,36e4 <fail>
    34dc:	00120213          	addi	tp,tp,1 # 1 <reset_vec+0x1>
    34e0:	00200293          	li	t0,2
    34e4:	fe5214e3          	bne	tp,t0,34cc <test_9+0x8>

000034e8 <test_10>:
    34e8:	00a00e13          	li	t3,10
    34ec:	00000213          	li	tp,0
    34f0:	f00000b7          	lui	ra,0xf0000
    34f4:	f0000137          	lui	sp,0xf0000
    34f8:	fff10113          	addi	sp,sp,-1 # efffffff <end+0xefff3902>
    34fc:	00000013          	nop
    3500:	1e20e263          	bltu	ra,sp,36e4 <fail>
    3504:	00120213          	addi	tp,tp,1 # 1 <reset_vec+0x1>
    3508:	00200293          	li	t0,2
    350c:	fe5212e3          	bne	tp,t0,34f0 <test_10+0x8>

00003510 <test_11>:
    3510:	00b00e13          	li	t3,11
    3514:	00000213          	li	tp,0
    3518:	f00000b7          	lui	ra,0xf0000
    351c:	f0000137          	lui	sp,0xf0000
    3520:	fff10113          	addi	sp,sp,-1 # efffffff <end+0xefff3902>
    3524:	00000013          	nop
    3528:	00000013          	nop
    352c:	1a20ec63          	bltu	ra,sp,36e4 <fail>
    3530:	00120213          	addi	tp,tp,1 # 1 <reset_vec+0x1>
    3534:	00200293          	li	t0,2
    3538:	fe5210e3          	bne	tp,t0,3518 <test_11+0x8>

0000353c <test_12>:
    353c:	00c00e13          	li	t3,12
    3540:	00000213          	li	tp,0
    3544:	f00000b7          	lui	ra,0xf0000
    3548:	00000013          	nop
    354c:	f0000137          	lui	sp,0xf0000
    3550:	fff10113          	addi	sp,sp,-1 # efffffff <end+0xefff3902>
    3554:	1820e863          	bltu	ra,sp,36e4 <fail>
    3558:	00120213          	addi	tp,tp,1 # 1 <reset_vec+0x1>
    355c:	00200293          	li	t0,2
    3560:	fe5212e3          	bne	tp,t0,3544 <test_12+0x8>

00003564 <test_13>:
    3564:	00d00e13          	li	t3,13
    3568:	00000213          	li	tp,0
    356c:	f00000b7          	lui	ra,0xf0000
    3570:	00000013          	nop
    3574:	f0000137          	lui	sp,0xf0000
    3578:	fff10113          	addi	sp,sp,-1 # efffffff <end+0xefff3902>
    357c:	00000013          	nop
    3580:	1620e263          	bltu	ra,sp,36e4 <fail>
    3584:	00120213          	addi	tp,tp,1 # 1 <reset_vec+0x1>
    3588:	00200293          	li	t0,2
    358c:	fe5210e3          	bne	tp,t0,356c <test_13+0x8>

00003590 <test_14>:
    3590:	00e00e13          	li	t3,14
    3594:	00000213          	li	tp,0
    3598:	f00000b7          	lui	ra,0xf0000
    359c:	00000013          	nop
    35a0:	00000013          	nop
    35a4:	f0000137          	lui	sp,0xf0000
    35a8:	fff10113          	addi	sp,sp,-1 # efffffff <end+0xefff3902>
    35ac:	1220ec63          	bltu	ra,sp,36e4 <fail>
    35b0:	00120213          	addi	tp,tp,1 # 1 <reset_vec+0x1>
    35b4:	00200293          	li	t0,2
    35b8:	fe5210e3          	bne	tp,t0,3598 <test_14+0x8>

000035bc <test_15>:
    35bc:	00f00e13          	li	t3,15
    35c0:	00000213          	li	tp,0
    35c4:	f00000b7          	lui	ra,0xf0000
    35c8:	f0000137          	lui	sp,0xf0000
    35cc:	fff10113          	addi	sp,sp,-1 # efffffff <end+0xefff3902>
    35d0:	1020ea63          	bltu	ra,sp,36e4 <fail>
    35d4:	00120213          	addi	tp,tp,1 # 1 <reset_vec+0x1>
    35d8:	00200293          	li	t0,2
    35dc:	fe5214e3          	bne	tp,t0,35c4 <test_15+0x8>

000035e0 <test_16>:
    35e0:	01000e13          	li	t3,16
    35e4:	00000213          	li	tp,0
    35e8:	f00000b7          	lui	ra,0xf0000
    35ec:	f0000137          	lui	sp,0xf0000
    35f0:	fff10113          	addi	sp,sp,-1 # efffffff <end+0xefff3902>
    35f4:	00000013          	nop
    35f8:	0e20e663          	bltu	ra,sp,36e4 <fail>
    35fc:	00120213          	addi	tp,tp,1 # 1 <reset_vec+0x1>
    3600:	00200293          	li	t0,2
    3604:	fe5212e3          	bne	tp,t0,35e8 <test_16+0x8>

00003608 <test_17>:
    3608:	01100e13          	li	t3,17
    360c:	00000213          	li	tp,0
    3610:	f00000b7          	lui	ra,0xf0000
    3614:	f0000137          	lui	sp,0xf0000
    3618:	fff10113          	addi	sp,sp,-1 # efffffff <end+0xefff3902>
    361c:	00000013          	nop
    3620:	00000013          	nop
    3624:	0c20e063          	bltu	ra,sp,36e4 <fail>
    3628:	00120213          	addi	tp,tp,1 # 1 <reset_vec+0x1>
    362c:	00200293          	li	t0,2
    3630:	fe5210e3          	bne	tp,t0,3610 <test_17+0x8>

00003634 <test_18>:
    3634:	01200e13          	li	t3,18
    3638:	00000213          	li	tp,0
    363c:	f00000b7          	lui	ra,0xf0000
    3640:	00000013          	nop
    3644:	f0000137          	lui	sp,0xf0000
    3648:	fff10113          	addi	sp,sp,-1 # efffffff <end+0xefff3902>
    364c:	0820ec63          	bltu	ra,sp,36e4 <fail>
    3650:	00120213          	addi	tp,tp,1 # 1 <reset_vec+0x1>
    3654:	00200293          	li	t0,2
    3658:	fe5212e3          	bne	tp,t0,363c <test_18+0x8>

0000365c <test_19>:
    365c:	01300e13          	li	t3,19
    3660:	00000213          	li	tp,0
    3664:	f00000b7          	lui	ra,0xf0000
    3668:	00000013          	nop
    366c:	f0000137          	lui	sp,0xf0000
    3670:	fff10113          	addi	sp,sp,-1 # efffffff <end+0xefff3902>
    3674:	00000013          	nop
    3678:	0620e663          	bltu	ra,sp,36e4 <fail>
    367c:	00120213          	addi	tp,tp,1 # 1 <reset_vec+0x1>
    3680:	00200293          	li	t0,2
    3684:	fe5210e3          	bne	tp,t0,3664 <test_19+0x8>

00003688 <test_20>:
    3688:	01400e13          	li	t3,20
    368c:	00000213          	li	tp,0
    3690:	f00000b7          	lui	ra,0xf0000
    3694:	00000013          	nop
    3698:	00000013          	nop
    369c:	f0000137          	lui	sp,0xf0000
    36a0:	fff10113          	addi	sp,sp,-1 # efffffff <end+0xefff3902>
    36a4:	0420e063          	bltu	ra,sp,36e4 <fail>
    36a8:	00120213          	addi	tp,tp,1 # 1 <reset_vec+0x1>
    36ac:	00200293          	li	t0,2
    36b0:	fe5210e3          	bne	tp,t0,3690 <test_20+0x8>

000036b4 <test_21>:
    36b4:	00100093          	li	ra,1
    36b8:	00106a63          	bltu	zero,ra,36cc <test_21+0x18>
    36bc:	00108093          	addi	ra,ra,1 # f0000001 <end+0xefff3904>
    36c0:	00108093          	addi	ra,ra,1
    36c4:	00108093          	addi	ra,ra,1
    36c8:	00108093          	addi	ra,ra,1
    36cc:	00108093          	addi	ra,ra,1
    36d0:	00108093          	addi	ra,ra,1
    36d4:	00300e93          	li	t4,3
    36d8:	01500e13          	li	t3,21
    36dc:	01d09463          	bne	ra,t4,36e4 <fail>
    36e0:	05c01863          	bne	zero,t3,3730 <pass>

000036e4 <fail>:
    36e4:	00000513          	li	a0,0
    36e8:	10000537          	lui	a0,0x10000
    36ec:	04500593          	li	a1,69
    36f0:	05200613          	li	a2,82
    36f4:	04f00693          	li	a3,79
    36f8:	00b52023          	sw	a1,0(a0) # 10000000 <end+0xfff3903>
    36fc:	00c52023          	sw	a2,0(a0)
    3700:	00c52023          	sw	a2,0(a0)
    3704:	00d52023          	sw	a3,0(a0)
    3708:	00c52023          	sw	a2,0(a0)
    370c:	030e0593          	addi	a1,t3,48
    3710:	02000613          	li	a2,32
    3714:	03a00693          	li	a3,58
    3718:	00d52023          	sw	a3,0(a0)
    371c:	00c52023          	sw	a2,0(a0)
    3720:	00b52023          	sw	a1,0(a0)
    3724:	00a00713          	li	a4,10
    3728:	00e52023          	sw	a4,0(a0)
    372c:	a31fc06f          	j	15c <bltu_ret>

00003730 <pass>:
    3730:	00000513          	li	a0,0
    3734:	10000537          	lui	a0,0x10000
    3738:	04f00593          	li	a1,79
    373c:	04b00613          	li	a2,75
    3740:	00a00693          	li	a3,10
    3744:	00b52023          	sw	a1,0(a0) # 10000000 <end+0xfff3903>
    3748:	00c52023          	sw	a2,0(a0)
    374c:	00d52023          	sw	a3,0(a0)
    3750:	a0dfc06f          	j	15c <bltu_ret>

00003754 <bne>:
    3754:	00003537          	lui	a0,0x3
    3758:	77850513          	addi	a0,a0,1912 # 3778 <.test_name>
    375c:	00000613          	li	a2,0
    3760:	10000637          	lui	a2,0x10000

00003764 <.prname_next>:
    3764:	00050583          	lb	a1,0(a0)
    3768:	00058a63          	beqz	a1,377c <.prname_done>
    376c:	00b62023          	sw	a1,0(a2) # 10000000 <end+0xfff3903>
    3770:	00150513          	addi	a0,a0,1
    3774:	ff1ff06f          	j	3764 <.prname_next>

00003778 <.test_name>:
    3778:	00656e62          	.word	0x00656e62

0000377c <.prname_done>:
    377c:	00000613          	li	a2,0
    3780:	10000637          	lui	a2,0x10000
    3784:	02e00593          	li	a1,46
    3788:	00b62023          	sw	a1,0(a2) # 10000000 <end+0xfff3903>
    378c:	00b62023          	sw	a1,0(a2)

00003790 <test_2>:
    3790:	00200e13          	li	t3,2
    3794:	00000093          	li	ra,0
    3798:	00100113          	li	sp,1
    379c:	00209663          	bne	ra,sp,37a8 <test_2+0x18>
    37a0:	2bc01a63          	bne	zero,t3,3a54 <fail>
    37a4:	01c01663          	bne	zero,t3,37b0 <test_3>
    37a8:	fe209ee3          	bne	ra,sp,37a4 <test_2+0x14>
    37ac:	2bc01463          	bne	zero,t3,3a54 <fail>

000037b0 <test_3>:
    37b0:	00300e13          	li	t3,3
    37b4:	00100093          	li	ra,1
    37b8:	00000113          	li	sp,0
    37bc:	00209663          	bne	ra,sp,37c8 <test_3+0x18>
    37c0:	29c01a63          	bne	zero,t3,3a54 <fail>
    37c4:	01c01663          	bne	zero,t3,37d0 <test_4>
    37c8:	fe209ee3          	bne	ra,sp,37c4 <test_3+0x14>
    37cc:	29c01463          	bne	zero,t3,3a54 <fail>

000037d0 <test_4>:
    37d0:	00400e13          	li	t3,4
    37d4:	fff00093          	li	ra,-1
    37d8:	00100113          	li	sp,1
    37dc:	00209663          	bne	ra,sp,37e8 <test_4+0x18>
    37e0:	27c01a63          	bne	zero,t3,3a54 <fail>
    37e4:	01c01663          	bne	zero,t3,37f0 <test_5>
    37e8:	fe209ee3          	bne	ra,sp,37e4 <test_4+0x14>
    37ec:	27c01463          	bne	zero,t3,3a54 <fail>

000037f0 <test_5>:
    37f0:	00500e13          	li	t3,5
    37f4:	00100093          	li	ra,1
    37f8:	fff00113          	li	sp,-1
    37fc:	00209663          	bne	ra,sp,3808 <test_5+0x18>
    3800:	25c01a63          	bne	zero,t3,3a54 <fail>
    3804:	01c01663          	bne	zero,t3,3810 <test_6>
    3808:	fe209ee3          	bne	ra,sp,3804 <test_5+0x14>
    380c:	25c01463          	bne	zero,t3,3a54 <fail>

00003810 <test_6>:
    3810:	00600e13          	li	t3,6
    3814:	00000093          	li	ra,0
    3818:	00000113          	li	sp,0
    381c:	00209463          	bne	ra,sp,3824 <test_6+0x14>
    3820:	01c01463          	bne	zero,t3,3828 <test_6+0x18>
    3824:	23c01863          	bne	zero,t3,3a54 <fail>
    3828:	fe209ee3          	bne	ra,sp,3824 <test_6+0x14>

0000382c <test_7>:
    382c:	00700e13          	li	t3,7
    3830:	00100093          	li	ra,1
    3834:	00100113          	li	sp,1
    3838:	00209463          	bne	ra,sp,3840 <test_7+0x14>
    383c:	01c01463          	bne	zero,t3,3844 <test_7+0x18>
    3840:	21c01a63          	bne	zero,t3,3a54 <fail>
    3844:	fe209ee3          	bne	ra,sp,3840 <test_7+0x14>

00003848 <test_8>:
    3848:	00800e13          	li	t3,8
    384c:	fff00093          	li	ra,-1
    3850:	fff00113          	li	sp,-1
    3854:	00209463          	bne	ra,sp,385c <test_8+0x14>
    3858:	01c01463          	bne	zero,t3,3860 <test_8+0x18>
    385c:	1fc01c63          	bne	zero,t3,3a54 <fail>
    3860:	fe209ee3          	bne	ra,sp,385c <test_8+0x14>

00003864 <test_9>:
    3864:	00900e13          	li	t3,9
    3868:	00000213          	li	tp,0
    386c:	00000093          	li	ra,0
    3870:	00000113          	li	sp,0
    3874:	1e209063          	bne	ra,sp,3a54 <fail>
    3878:	00120213          	addi	tp,tp,1 # 1 <reset_vec+0x1>
    387c:	00200293          	li	t0,2
    3880:	fe5216e3          	bne	tp,t0,386c <test_9+0x8>

00003884 <test_10>:
    3884:	00a00e13          	li	t3,10
    3888:	00000213          	li	tp,0
    388c:	00000093          	li	ra,0
    3890:	00000113          	li	sp,0
    3894:	00000013          	nop
    3898:	1a209e63          	bne	ra,sp,3a54 <fail>
    389c:	00120213          	addi	tp,tp,1 # 1 <reset_vec+0x1>
    38a0:	00200293          	li	t0,2
    38a4:	fe5214e3          	bne	tp,t0,388c <test_10+0x8>

000038a8 <test_11>:
    38a8:	00b00e13          	li	t3,11
    38ac:	00000213          	li	tp,0
    38b0:	00000093          	li	ra,0
    38b4:	00000113          	li	sp,0
    38b8:	00000013          	nop
    38bc:	00000013          	nop
    38c0:	18209a63          	bne	ra,sp,3a54 <fail>
    38c4:	00120213          	addi	tp,tp,1 # 1 <reset_vec+0x1>
    38c8:	00200293          	li	t0,2
    38cc:	fe5212e3          	bne	tp,t0,38b0 <test_11+0x8>

000038d0 <test_12>:
    38d0:	00c00e13          	li	t3,12
    38d4:	00000213          	li	tp,0
    38d8:	00000093          	li	ra,0
    38dc:	00000013          	nop
    38e0:	00000113          	li	sp,0
    38e4:	16209863          	bne	ra,sp,3a54 <fail>
    38e8:	00120213          	addi	tp,tp,1 # 1 <reset_vec+0x1>
    38ec:	00200293          	li	t0,2
    38f0:	fe5214e3          	bne	tp,t0,38d8 <test_12+0x8>

000038f4 <test_13>:
    38f4:	00d00e13          	li	t3,13
    38f8:	00000213          	li	tp,0
    38fc:	00000093          	li	ra,0
    3900:	00000013          	nop
    3904:	00000113          	li	sp,0
    3908:	00000013          	nop
    390c:	14209463          	bne	ra,sp,3a54 <fail>
    3910:	00120213          	addi	tp,tp,1 # 1 <reset_vec+0x1>
    3914:	00200293          	li	t0,2
    3918:	fe5212e3          	bne	tp,t0,38fc <test_13+0x8>

0000391c <test_14>:
    391c:	00e00e13          	li	t3,14
    3920:	00000213          	li	tp,0
    3924:	00000093          	li	ra,0
    3928:	00000013          	nop
    392c:	00000013          	nop
    3930:	00000113          	li	sp,0
    3934:	12209063          	bne	ra,sp,3a54 <fail>
    3938:	00120213          	addi	tp,tp,1 # 1 <reset_vec+0x1>
    393c:	00200293          	li	t0,2
    3940:	fe5212e3          	bne	tp,t0,3924 <test_14+0x8>

00003944 <test_15>:
    3944:	00f00e13          	li	t3,15
    3948:	00000213          	li	tp,0
    394c:	00000093          	li	ra,0
    3950:	00000113          	li	sp,0
    3954:	10209063          	bne	ra,sp,3a54 <fail>
    3958:	00120213          	addi	tp,tp,1 # 1 <reset_vec+0x1>
    395c:	00200293          	li	t0,2
    3960:	fe5216e3          	bne	tp,t0,394c <test_15+0x8>

00003964 <test_16>:
    3964:	01000e13          	li	t3,16
    3968:	00000213          	li	tp,0
    396c:	00000093          	li	ra,0
    3970:	00000113          	li	sp,0
    3974:	00000013          	nop
    3978:	0c209e63          	bne	ra,sp,3a54 <fail>
    397c:	00120213          	addi	tp,tp,1 # 1 <reset_vec+0x1>
    3980:	00200293          	li	t0,2
    3984:	fe5214e3          	bne	tp,t0,396c <test_16+0x8>

00003988 <test_17>:
    3988:	01100e13          	li	t3,17
    398c:	00000213          	li	tp,0
    3990:	00000093          	li	ra,0
    3994:	00000113          	li	sp,0
    3998:	00000013          	nop
    399c:	00000013          	nop
    39a0:	0a209a63          	bne	ra,sp,3a54 <fail>
    39a4:	00120213          	addi	tp,tp,1 # 1 <reset_vec+0x1>
    39a8:	00200293          	li	t0,2
    39ac:	fe5212e3          	bne	tp,t0,3990 <test_17+0x8>

000039b0 <test_18>:
    39b0:	01200e13          	li	t3,18
    39b4:	00000213          	li	tp,0
    39b8:	00000093          	li	ra,0
    39bc:	00000013          	nop
    39c0:	00000113          	li	sp,0
    39c4:	08209863          	bne	ra,sp,3a54 <fail>
    39c8:	00120213          	addi	tp,tp,1 # 1 <reset_vec+0x1>
    39cc:	00200293          	li	t0,2
    39d0:	fe5214e3          	bne	tp,t0,39b8 <test_18+0x8>

000039d4 <test_19>:
    39d4:	01300e13          	li	t3,19
    39d8:	00000213          	li	tp,0
    39dc:	00000093          	li	ra,0
    39e0:	00000013          	nop
    39e4:	00000113          	li	sp,0
    39e8:	00000013          	nop
    39ec:	06209463          	bne	ra,sp,3a54 <fail>
    39f0:	00120213          	addi	tp,tp,1 # 1 <reset_vec+0x1>
    39f4:	00200293          	li	t0,2
    39f8:	fe5212e3          	bne	tp,t0,39dc <test_19+0x8>

000039fc <test_20>:
    39fc:	01400e13          	li	t3,20
    3a00:	00000213          	li	tp,0
    3a04:	00000093          	li	ra,0
    3a08:	00000013          	nop
    3a0c:	00000013          	nop
    3a10:	00000113          	li	sp,0
    3a14:	04209063          	bne	ra,sp,3a54 <fail>
    3a18:	00120213          	addi	tp,tp,1 # 1 <reset_vec+0x1>
    3a1c:	00200293          	li	t0,2
    3a20:	fe5212e3          	bne	tp,t0,3a04 <test_20+0x8>

00003a24 <test_21>:
    3a24:	00100093          	li	ra,1
    3a28:	00009a63          	bnez	ra,3a3c <test_21+0x18>
    3a2c:	00108093          	addi	ra,ra,1
    3a30:	00108093          	addi	ra,ra,1
    3a34:	00108093          	addi	ra,ra,1
    3a38:	00108093          	addi	ra,ra,1
    3a3c:	00108093          	addi	ra,ra,1
    3a40:	00108093          	addi	ra,ra,1
    3a44:	00300e93          	li	t4,3
    3a48:	01500e13          	li	t3,21
    3a4c:	01d09463          	bne	ra,t4,3a54 <fail>
    3a50:	05c01863          	bne	zero,t3,3aa0 <pass>

00003a54 <fail>:
    3a54:	00000513          	li	a0,0
    3a58:	10000537          	lui	a0,0x10000
    3a5c:	04500593          	li	a1,69
    3a60:	05200613          	li	a2,82
    3a64:	04f00693          	li	a3,79
    3a68:	00b52023          	sw	a1,0(a0) # 10000000 <end+0xfff3903>
    3a6c:	00c52023          	sw	a2,0(a0)
    3a70:	00c52023          	sw	a2,0(a0)
    3a74:	00d52023          	sw	a3,0(a0)
    3a78:	00c52023          	sw	a2,0(a0)
    3a7c:	030e0593          	addi	a1,t3,48
    3a80:	02000613          	li	a2,32
    3a84:	03a00693          	li	a3,58
    3a88:	00d52023          	sw	a3,0(a0)
    3a8c:	00c52023          	sw	a2,0(a0)
    3a90:	00b52023          	sw	a1,0(a0)
    3a94:	00a00713          	li	a4,10
    3a98:	00e52023          	sw	a4,0(a0)
    3a9c:	ea8fc06f          	j	144 <bne_ret>

00003aa0 <pass>:
    3aa0:	00000513          	li	a0,0
    3aa4:	10000537          	lui	a0,0x10000
    3aa8:	04f00593          	li	a1,79
    3aac:	04b00613          	li	a2,75
    3ab0:	00a00693          	li	a3,10
    3ab4:	00b52023          	sw	a1,0(a0) # 10000000 <end+0xfff3903>
    3ab8:	00c52023          	sw	a2,0(a0)
    3abc:	00d52023          	sw	a3,0(a0)
    3ac0:	e84fc06f          	j	144 <bne_ret>

00003ac4 <div>:
    3ac4:	00004537          	lui	a0,0x4
    3ac8:	ae850513          	addi	a0,a0,-1304 # 3ae8 <.test_name>
    3acc:	00000613          	li	a2,0
    3ad0:	10000637          	lui	a2,0x10000

00003ad4 <.prname_next>:
    3ad4:	00050583          	lb	a1,0(a0)
    3ad8:	00058a63          	beqz	a1,3aec <.prname_done>
    3adc:	00b62023          	sw	a1,0(a2) # 10000000 <end+0xfff3903>
    3ae0:	00150513          	addi	a0,a0,1
    3ae4:	ff1ff06f          	j	3ad4 <.prname_next>

00003ae8 <.test_name>:
    3ae8:	00766964          	.word	0x00766964

00003aec <.prname_done>:
    3aec:	00000613          	li	a2,0
    3af0:	10000637          	lui	a2,0x10000
    3af4:	02e00593          	li	a1,46
    3af8:	00b62023          	sw	a1,0(a2) # 10000000 <end+0xfff3903>
    3afc:	00b62023          	sw	a1,0(a2)

00003b00 <test_2>:
    3b00:	01400093          	li	ra,20
    3b04:	00600113          	li	sp,6
    3b08:	0220c1b3          	div	gp,ra,sp
    3b0c:	00300e93          	li	t4,3
    3b10:	00200e13          	li	t3,2
    3b14:	0dd19463          	bne	gp,t4,3bdc <fail>

00003b18 <test_3>:
    3b18:	fec00093          	li	ra,-20
    3b1c:	00600113          	li	sp,6
    3b20:	0220c1b3          	div	gp,ra,sp
    3b24:	ffd00e93          	li	t4,-3
    3b28:	00300e13          	li	t3,3
    3b2c:	0bd19863          	bne	gp,t4,3bdc <fail>

00003b30 <test_4>:
    3b30:	01400093          	li	ra,20
    3b34:	ffa00113          	li	sp,-6
    3b38:	0220c1b3          	div	gp,ra,sp
    3b3c:	ffd00e93          	li	t4,-3
    3b40:	00400e13          	li	t3,4
    3b44:	09d19c63          	bne	gp,t4,3bdc <fail>

00003b48 <test_5>:
    3b48:	fec00093          	li	ra,-20
    3b4c:	ffa00113          	li	sp,-6
    3b50:	0220c1b3          	div	gp,ra,sp
    3b54:	00300e93          	li	t4,3
    3b58:	00500e13          	li	t3,5
    3b5c:	09d19063          	bne	gp,t4,3bdc <fail>

00003b60 <test_6>:
    3b60:	800000b7          	lui	ra,0x80000
    3b64:	00100113          	li	sp,1
    3b68:	0220c1b3          	div	gp,ra,sp
    3b6c:	80000eb7          	lui	t4,0x80000
    3b70:	00600e13          	li	t3,6
    3b74:	07d19463          	bne	gp,t4,3bdc <fail>

00003b78 <test_7>:
    3b78:	800000b7          	lui	ra,0x80000
    3b7c:	fff00113          	li	sp,-1
    3b80:	0220c1b3          	div	gp,ra,sp
    3b84:	80000eb7          	lui	t4,0x80000
    3b88:	00700e13          	li	t3,7
    3b8c:	05d19863          	bne	gp,t4,3bdc <fail>

00003b90 <test_8>:
    3b90:	800000b7          	lui	ra,0x80000
    3b94:	00000113          	li	sp,0
    3b98:	0220c1b3          	div	gp,ra,sp
    3b9c:	fff00e93          	li	t4,-1
    3ba0:	00800e13          	li	t3,8
    3ba4:	03d19c63          	bne	gp,t4,3bdc <fail>

00003ba8 <test_9>:
    3ba8:	00100093          	li	ra,1
    3bac:	00000113          	li	sp,0
    3bb0:	0220c1b3          	div	gp,ra,sp
    3bb4:	fff00e93          	li	t4,-1
    3bb8:	00900e13          	li	t3,9
    3bbc:	03d19063          	bne	gp,t4,3bdc <fail>

00003bc0 <test_10>:
    3bc0:	00000093          	li	ra,0
    3bc4:	00000113          	li	sp,0
    3bc8:	0220c1b3          	div	gp,ra,sp
    3bcc:	fff00e93          	li	t4,-1
    3bd0:	00a00e13          	li	t3,10
    3bd4:	01d19463          	bne	gp,t4,3bdc <fail>
    3bd8:	05c01863          	bne	zero,t3,3c28 <pass>

00003bdc <fail>:
    3bdc:	00000513          	li	a0,0
    3be0:	10000537          	lui	a0,0x10000
    3be4:	04500593          	li	a1,69
    3be8:	05200613          	li	a2,82
    3bec:	04f00693          	li	a3,79
    3bf0:	00b52023          	sw	a1,0(a0) # 10000000 <end+0xfff3903>
    3bf4:	00c52023          	sw	a2,0(a0)
    3bf8:	00c52023          	sw	a2,0(a0)
    3bfc:	00d52023          	sw	a3,0(a0)
    3c00:	00c52023          	sw	a2,0(a0)
    3c04:	030e0593          	addi	a1,t3,48
    3c08:	02000613          	li	a2,32
    3c0c:	03a00693          	li	a3,58
    3c10:	00d52023          	sw	a3,0(a0)
    3c14:	00c52023          	sw	a2,0(a0)
    3c18:	00b52023          	sw	a1,0(a0)
    3c1c:	00a00713          	li	a4,10
    3c20:	00e52023          	sw	a4,0(a0)
    3c24:	e50fc06f          	j	274 <div_ret>

00003c28 <pass>:
    3c28:	00000513          	li	a0,0
    3c2c:	10000537          	lui	a0,0x10000
    3c30:	04f00593          	li	a1,79
    3c34:	04b00613          	li	a2,75
    3c38:	00a00693          	li	a3,10
    3c3c:	00b52023          	sw	a1,0(a0) # 10000000 <end+0xfff3903>
    3c40:	00c52023          	sw	a2,0(a0)
    3c44:	00d52023          	sw	a3,0(a0)
    3c48:	e2cfc06f          	j	274 <div_ret>

00003c4c <divu>:
    3c4c:	00004537          	lui	a0,0x4
    3c50:	c7050513          	addi	a0,a0,-912 # 3c70 <.test_name>
    3c54:	00000613          	li	a2,0
    3c58:	10000637          	lui	a2,0x10000

00003c5c <.prname_next>:
    3c5c:	00050583          	lb	a1,0(a0)
    3c60:	00058c63          	beqz	a1,3c78 <.prname_done>
    3c64:	00b62023          	sw	a1,0(a2) # 10000000 <end+0xfff3903>
    3c68:	00150513          	addi	a0,a0,1
    3c6c:	ff1ff06f          	j	3c5c <.prname_next>

00003c70 <.test_name>:
    3c70:	75766964          	.word	0x75766964
    3c74:	00000000          	.word	0x00000000

00003c78 <.prname_done>:
    3c78:	00000613          	li	a2,0
    3c7c:	10000637          	lui	a2,0x10000
    3c80:	02e00593          	li	a1,46
    3c84:	00b62023          	sw	a1,0(a2) # 10000000 <end+0xfff3903>
    3c88:	00b62023          	sw	a1,0(a2)

00003c8c <test_2>:
    3c8c:	01400093          	li	ra,20
    3c90:	00600113          	li	sp,6
    3c94:	0220d1b3          	divu	gp,ra,sp
    3c98:	00300e93          	li	t4,3
    3c9c:	00200e13          	li	t3,2
    3ca0:	0dd19663          	bne	gp,t4,3d6c <fail>

00003ca4 <test_3>:
    3ca4:	fec00093          	li	ra,-20
    3ca8:	00600113          	li	sp,6
    3cac:	0220d1b3          	divu	gp,ra,sp
    3cb0:	2aaabeb7          	lui	t4,0x2aaab
    3cb4:	aa7e8e93          	addi	t4,t4,-1369 # 2aaaaaa7 <end+0x2aa9e3aa>
    3cb8:	00300e13          	li	t3,3
    3cbc:	0bd19863          	bne	gp,t4,3d6c <fail>

00003cc0 <test_4>:
    3cc0:	01400093          	li	ra,20
    3cc4:	ffa00113          	li	sp,-6
    3cc8:	0220d1b3          	divu	gp,ra,sp
    3ccc:	00000e93          	li	t4,0
    3cd0:	00400e13          	li	t3,4
    3cd4:	09d19c63          	bne	gp,t4,3d6c <fail>

00003cd8 <test_5>:
    3cd8:	fec00093          	li	ra,-20
    3cdc:	ffa00113          	li	sp,-6
    3ce0:	0220d1b3          	divu	gp,ra,sp
    3ce4:	00000e93          	li	t4,0
    3ce8:	00500e13          	li	t3,5
    3cec:	09d19063          	bne	gp,t4,3d6c <fail>

00003cf0 <test_6>:
    3cf0:	800000b7          	lui	ra,0x80000
    3cf4:	00100113          	li	sp,1
    3cf8:	0220d1b3          	divu	gp,ra,sp
    3cfc:	80000eb7          	lui	t4,0x80000
    3d00:	00600e13          	li	t3,6
    3d04:	07d19463          	bne	gp,t4,3d6c <fail>

00003d08 <test_7>:
    3d08:	800000b7          	lui	ra,0x80000
    3d0c:	fff00113          	li	sp,-1
    3d10:	0220d1b3          	divu	gp,ra,sp
    3d14:	00000e93          	li	t4,0
    3d18:	00700e13          	li	t3,7
    3d1c:	05d19863          	bne	gp,t4,3d6c <fail>

00003d20 <test_8>:
    3d20:	800000b7          	lui	ra,0x80000
    3d24:	00000113          	li	sp,0
    3d28:	0220d1b3          	divu	gp,ra,sp
    3d2c:	fff00e93          	li	t4,-1
    3d30:	00800e13          	li	t3,8
    3d34:	03d19c63          	bne	gp,t4,3d6c <fail>

00003d38 <test_9>:
    3d38:	00100093          	li	ra,1
    3d3c:	00000113          	li	sp,0
    3d40:	0220d1b3          	divu	gp,ra,sp
    3d44:	fff00e93          	li	t4,-1
    3d48:	00900e13          	li	t3,9
    3d4c:	03d19063          	bne	gp,t4,3d6c <fail>

00003d50 <test_10>:
    3d50:	00000093          	li	ra,0
    3d54:	00000113          	li	sp,0
    3d58:	0220d1b3          	divu	gp,ra,sp
    3d5c:	fff00e93          	li	t4,-1
    3d60:	00a00e13          	li	t3,10
    3d64:	01d19463          	bne	gp,t4,3d6c <fail>
    3d68:	05c01863          	bne	zero,t3,3db8 <pass>

00003d6c <fail>:
    3d6c:	00000513          	li	a0,0
    3d70:	10000537          	lui	a0,0x10000
    3d74:	04500593          	li	a1,69
    3d78:	05200613          	li	a2,82
    3d7c:	04f00693          	li	a3,79
    3d80:	00b52023          	sw	a1,0(a0) # 10000000 <end+0xfff3903>
    3d84:	00c52023          	sw	a2,0(a0)
    3d88:	00c52023          	sw	a2,0(a0)
    3d8c:	00d52023          	sw	a3,0(a0)
    3d90:	00c52023          	sw	a2,0(a0)
    3d94:	030e0593          	addi	a1,t3,48
    3d98:	02000613          	li	a2,32
    3d9c:	03a00693          	li	a3,58
    3da0:	00d52023          	sw	a3,0(a0)
    3da4:	00c52023          	sw	a2,0(a0)
    3da8:	00b52023          	sw	a1,0(a0)
    3dac:	00a00713          	li	a4,10
    3db0:	00e52023          	sw	a4,0(a0)
    3db4:	cc8fc06f          	j	27c <divu_ret>

00003db8 <pass>:
    3db8:	00000513          	li	a0,0
    3dbc:	10000537          	lui	a0,0x10000
    3dc0:	04f00593          	li	a1,79
    3dc4:	04b00613          	li	a2,75
    3dc8:	00a00693          	li	a3,10
    3dcc:	00b52023          	sw	a1,0(a0) # 10000000 <end+0xfff3903>
    3dd0:	00c52023          	sw	a2,0(a0)
    3dd4:	00d52023          	sw	a3,0(a0)
    3dd8:	ca4fc06f          	j	27c <divu_ret>

00003ddc <j>:
    3ddc:	00004537          	lui	a0,0x4
    3de0:	e0050513          	addi	a0,a0,-512 # 3e00 <.test_name>
    3de4:	00000613          	li	a2,0
    3de8:	10000637          	lui	a2,0x10000

00003dec <.prname_next>:
    3dec:	00050583          	lb	a1,0(a0)
    3df0:	00058a63          	beqz	a1,3e04 <.prname_done>
    3df4:	00b62023          	sw	a1,0(a2) # 10000000 <end+0xfff3903>
    3df8:	00150513          	addi	a0,a0,1
    3dfc:	ff1ff06f          	j	3dec <.prname_next>

00003e00 <.test_name>:
    3e00:	0000006a          	.word	0x0000006a

00003e04 <.prname_done>:
    3e04:	00000613          	li	a2,0
    3e08:	10000637          	lui	a2,0x10000
    3e0c:	02e00593          	li	a1,46
    3e10:	00b62023          	sw	a1,0(a2) # 10000000 <end+0xfff3903>
    3e14:	00b62023          	sw	a1,0(a2)
    3e18:	00200e13          	li	t3,2
    3e1c:	0080006f          	j	3e24 <test_2>
    3e20:	0340006f          	j	3e54 <fail>

00003e24 <test_2>:
    3e24:	00100093          	li	ra,1
    3e28:	0140006f          	j	3e3c <test_2+0x18>
    3e2c:	00108093          	addi	ra,ra,1 # 80000001 <end+0x7fff3904>
    3e30:	00108093          	addi	ra,ra,1
    3e34:	00108093          	addi	ra,ra,1
    3e38:	00108093          	addi	ra,ra,1
    3e3c:	00108093          	addi	ra,ra,1
    3e40:	00108093          	addi	ra,ra,1
    3e44:	00300e93          	li	t4,3
    3e48:	00300e13          	li	t3,3
    3e4c:	01d09463          	bne	ra,t4,3e54 <fail>
    3e50:	05c01863          	bne	zero,t3,3ea0 <pass>

00003e54 <fail>:
    3e54:	00000513          	li	a0,0
    3e58:	10000537          	lui	a0,0x10000
    3e5c:	04500593          	li	a1,69
    3e60:	05200613          	li	a2,82
    3e64:	04f00693          	li	a3,79
    3e68:	00b52023          	sw	a1,0(a0) # 10000000 <end+0xfff3903>
    3e6c:	00c52023          	sw	a2,0(a0)
    3e70:	00c52023          	sw	a2,0(a0)
    3e74:	00d52023          	sw	a3,0(a0)
    3e78:	00c52023          	sw	a2,0(a0)
    3e7c:	030e0593          	addi	a1,t3,48
    3e80:	02000613          	li	a2,32
    3e84:	03a00693          	li	a3,58
    3e88:	00d52023          	sw	a3,0(a0)
    3e8c:	00c52023          	sw	a2,0(a0)
    3e90:	00b52023          	sw	a1,0(a0)
    3e94:	00a00713          	li	a4,10
    3e98:	00e52023          	sw	a4,0(a0)
    3e9c:	a88fc06f          	j	124 <j_ret>

00003ea0 <pass>:
    3ea0:	00000513          	li	a0,0
    3ea4:	10000537          	lui	a0,0x10000
    3ea8:	04f00593          	li	a1,79
    3eac:	04b00613          	li	a2,75
    3eb0:	00a00693          	li	a3,10
    3eb4:	00b52023          	sw	a1,0(a0) # 10000000 <end+0xfff3903>
    3eb8:	00c52023          	sw	a2,0(a0)
    3ebc:	00d52023          	sw	a3,0(a0)
    3ec0:	a64fc06f          	j	124 <j_ret>

00003ec4 <jal>:
    3ec4:	00004537          	lui	a0,0x4
    3ec8:	ee850513          	addi	a0,a0,-280 # 3ee8 <.test_name>
    3ecc:	00000613          	li	a2,0
    3ed0:	10000637          	lui	a2,0x10000

00003ed4 <.prname_next>:
    3ed4:	00050583          	lb	a1,0(a0)
    3ed8:	00058a63          	beqz	a1,3eec <.prname_done>
    3edc:	00b62023          	sw	a1,0(a2) # 10000000 <end+0xfff3903>
    3ee0:	00150513          	addi	a0,a0,1
    3ee4:	ff1ff06f          	j	3ed4 <.prname_next>

00003ee8 <.test_name>:
    3ee8:	006c616a          	.word	0x006c616a

00003eec <.prname_done>:
    3eec:	00000613          	li	a2,0
    3ef0:	10000637          	lui	a2,0x10000
    3ef4:	02e00593          	li	a1,46
    3ef8:	00b62023          	sw	a1,0(a2) # 10000000 <end+0xfff3903>
    3efc:	00b62023          	sw	a1,0(a2)

00003f00 <test_2>:
    3f00:	00200e13          	li	t3,2
    3f04:	00000093          	li	ra,0

00003f08 <linkaddr_2>:
    3f08:	010000ef          	jal	3f18 <target_2>
    3f0c:	00000013          	nop
    3f10:	00000013          	nop
    3f14:	0440006f          	j	3f58 <fail>

00003f18 <target_2>:
    3f18:	00000117          	auipc	sp,0x0
    3f1c:	ff010113          	addi	sp,sp,-16 # 3f08 <linkaddr_2>
    3f20:	00410113          	addi	sp,sp,4
    3f24:	02111a63          	bne	sp,ra,3f58 <fail>

00003f28 <test_3>:
    3f28:	00100113          	li	sp,1
    3f2c:	014000ef          	jal	3f40 <test_3+0x18>
    3f30:	00110113          	addi	sp,sp,1
    3f34:	00110113          	addi	sp,sp,1
    3f38:	00110113          	addi	sp,sp,1
    3f3c:	00110113          	addi	sp,sp,1
    3f40:	00110113          	addi	sp,sp,1
    3f44:	00110113          	addi	sp,sp,1
    3f48:	00300e93          	li	t4,3
    3f4c:	00300e13          	li	t3,3
    3f50:	01d11463          	bne	sp,t4,3f58 <fail>
    3f54:	05c01863          	bne	zero,t3,3fa4 <pass>

00003f58 <fail>:
    3f58:	00000513          	li	a0,0
    3f5c:	10000537          	lui	a0,0x10000
    3f60:	04500593          	li	a1,69
    3f64:	05200613          	li	a2,82
    3f68:	04f00693          	li	a3,79
    3f6c:	00b52023          	sw	a1,0(a0) # 10000000 <end+0xfff3903>
    3f70:	00c52023          	sw	a2,0(a0)
    3f74:	00c52023          	sw	a2,0(a0)
    3f78:	00d52023          	sw	a3,0(a0)
    3f7c:	00c52023          	sw	a2,0(a0)
    3f80:	030e0593          	addi	a1,t3,48
    3f84:	02000613          	li	a2,32
    3f88:	03a00693          	li	a3,58
    3f8c:	00d52023          	sw	a3,0(a0)
    3f90:	00c52023          	sw	a2,0(a0)
    3f94:	00b52023          	sw	a1,0(a0)
    3f98:	00a00713          	li	a4,10
    3f9c:	00e52023          	sw	a4,0(a0)
    3fa0:	98cfc06f          	j	12c <jal_ret>

00003fa4 <pass>:
    3fa4:	00000513          	li	a0,0
    3fa8:	10000537          	lui	a0,0x10000
    3fac:	04f00593          	li	a1,79
    3fb0:	04b00613          	li	a2,75
    3fb4:	00a00693          	li	a3,10
    3fb8:	00b52023          	sw	a1,0(a0) # 10000000 <end+0xfff3903>
    3fbc:	00c52023          	sw	a2,0(a0)
    3fc0:	00d52023          	sw	a3,0(a0)
    3fc4:	968fc06f          	j	12c <jal_ret>

00003fc8 <jalr>:
    3fc8:	00004537          	lui	a0,0x4
    3fcc:	fec50513          	addi	a0,a0,-20 # 3fec <.test_name>
    3fd0:	00000613          	li	a2,0
    3fd4:	10000637          	lui	a2,0x10000

00003fd8 <.prname_next>:
    3fd8:	00050583          	lb	a1,0(a0)
    3fdc:	00058c63          	beqz	a1,3ff4 <.prname_done>
    3fe0:	00b62023          	sw	a1,0(a2) # 10000000 <end+0xfff3903>
    3fe4:	00150513          	addi	a0,a0,1
    3fe8:	ff1ff06f          	j	3fd8 <.prname_next>

00003fec <.test_name>:
    3fec:	726c616a          	.word	0x726c616a
    3ff0:	00000000          	.word	0x00000000

00003ff4 <.prname_done>:
    3ff4:	00000613          	li	a2,0
    3ff8:	10000637          	lui	a2,0x10000
    3ffc:	02e00593          	li	a1,46
    4000:	00b62023          	sw	a1,0(a2) # 10000000 <end+0xfff3903>
    4004:	00b62023          	sw	a1,0(a2)

00004008 <test_2>:
    4008:	00200e13          	li	t3,2
    400c:	00000f93          	li	t6,0
    4010:	00000117          	auipc	sp,0x0
    4014:	01810113          	addi	sp,sp,24 # 4028 <target_2>

00004018 <linkaddr_2>:
    4018:	000109e7          	jalr	s3,sp
    401c:	00000013          	nop
    4020:	00000013          	nop
    4024:	0e40006f          	j	4108 <fail>

00004028 <target_2>:
    4028:	00000097          	auipc	ra,0x0
    402c:	ff008093          	addi	ra,ra,-16 # 4018 <linkaddr_2>
    4030:	00408093          	addi	ra,ra,4
    4034:	0d309a63          	bne	ra,s3,4108 <fail>

00004038 <test_3>:
    4038:	00300e13          	li	t3,3
    403c:	00000f93          	li	t6,0
    4040:	00000197          	auipc	gp,0x0
    4044:	01418193          	addi	gp,gp,20 # 4054 <target_3>

00004048 <linkaddr_3>:
    4048:	00018067          	jr	gp
    404c:	00000013          	nop
    4050:	0b80006f          	j	4108 <fail>

00004054 <target_3>:
    4054:	0a0f9a63          	bnez	t6,4108 <fail>

00004058 <test_4>:
    4058:	00400e13          	li	t3,4
    405c:	00000213          	li	tp,0
    4060:	00000317          	auipc	t1,0x0
    4064:	01030313          	addi	t1,t1,16 # 4070 <test_4+0x18>
    4068:	000309e7          	jalr	s3,t1
    406c:	09c01e63          	bne	zero,t3,4108 <fail>
    4070:	00120213          	addi	tp,tp,1 # 1 <reset_vec+0x1>
    4074:	00200293          	li	t0,2
    4078:	fe5214e3          	bne	tp,t0,4060 <test_4+0x8>

0000407c <test_5>:
    407c:	00500e13          	li	t3,5
    4080:	00000213          	li	tp,0
    4084:	00000317          	auipc	t1,0x0
    4088:	01430313          	addi	t1,t1,20 # 4098 <test_5+0x1c>
    408c:	00000013          	nop
    4090:	000309e7          	jalr	s3,t1
    4094:	07c01a63          	bne	zero,t3,4108 <fail>
    4098:	00120213          	addi	tp,tp,1 # 1 <reset_vec+0x1>
    409c:	00200293          	li	t0,2
    40a0:	fe5212e3          	bne	tp,t0,4084 <test_5+0x8>

000040a4 <test_6>:
    40a4:	00600e13          	li	t3,6
    40a8:	00000213          	li	tp,0
    40ac:	00000317          	auipc	t1,0x0
    40b0:	01830313          	addi	t1,t1,24 # 40c4 <test_6+0x20>
    40b4:	00000013          	nop
    40b8:	00000013          	nop
    40bc:	000309e7          	jalr	s3,t1
    40c0:	05c01463          	bne	zero,t3,4108 <fail>
    40c4:	00120213          	addi	tp,tp,1 # 1 <reset_vec+0x1>
    40c8:	00200293          	li	t0,2
    40cc:	fe5210e3          	bne	tp,t0,40ac <test_6+0x8>

000040d0 <test_7>:
    40d0:	00100093          	li	ra,1
    40d4:	00000117          	auipc	sp,0x0
    40d8:	01c10113          	addi	sp,sp,28 # 40f0 <test_7+0x20>
    40dc:	ffc109e7          	jalr	s3,-4(sp)
    40e0:	00108093          	addi	ra,ra,1
    40e4:	00108093          	addi	ra,ra,1
    40e8:	00108093          	addi	ra,ra,1
    40ec:	00108093          	addi	ra,ra,1
    40f0:	00108093          	addi	ra,ra,1
    40f4:	00108093          	addi	ra,ra,1
    40f8:	00400e93          	li	t4,4
    40fc:	00700e13          	li	t3,7
    4100:	01d09463          	bne	ra,t4,4108 <fail>
    4104:	05c01863          	bne	zero,t3,4154 <pass>

00004108 <fail>:
    4108:	00000513          	li	a0,0
    410c:	10000537          	lui	a0,0x10000
    4110:	04500593          	li	a1,69
    4114:	05200613          	li	a2,82
    4118:	04f00693          	li	a3,79
    411c:	00b52023          	sw	a1,0(a0) # 10000000 <end+0xfff3903>
    4120:	00c52023          	sw	a2,0(a0)
    4124:	00c52023          	sw	a2,0(a0)
    4128:	00d52023          	sw	a3,0(a0)
    412c:	00c52023          	sw	a2,0(a0)
    4130:	030e0593          	addi	a1,t3,48
    4134:	02000613          	li	a2,32
    4138:	03a00693          	li	a3,58
    413c:	00d52023          	sw	a3,0(a0)
    4140:	00c52023          	sw	a2,0(a0)
    4144:	00b52023          	sw	a1,0(a0)
    4148:	00a00713          	li	a4,10
    414c:	00e52023          	sw	a4,0(a0)
    4150:	fe5fb06f          	j	134 <jalr_ret>

00004154 <pass>:
    4154:	00000513          	li	a0,0
    4158:	10000537          	lui	a0,0x10000
    415c:	04f00593          	li	a1,79
    4160:	04b00613          	li	a2,75
    4164:	00a00693          	li	a3,10
    4168:	00b52023          	sw	a1,0(a0) # 10000000 <end+0xfff3903>
    416c:	00c52023          	sw	a2,0(a0)
    4170:	00d52023          	sw	a3,0(a0)
    4174:	fc1fb06f          	j	134 <jalr_ret>

00004178 <lb>:
    4178:	00004537          	lui	a0,0x4
    417c:	19c50513          	addi	a0,a0,412 # 419c <.test_name>
    4180:	00000613          	li	a2,0
    4184:	10000637          	lui	a2,0x10000

00004188 <.prname_next>:
    4188:	00050583          	lb	a1,0(a0)
    418c:	00058a63          	beqz	a1,41a0 <.prname_done>
    4190:	00b62023          	sw	a1,0(a2) # 10000000 <end+0xfff3903>
    4194:	00150513          	addi	a0,a0,1
    4198:	ff1ff06f          	j	4188 <.prname_next>

0000419c <.test_name>:
    419c:	0000626c          	.word	0x0000626c

000041a0 <.prname_done>:
    41a0:	00000613          	li	a2,0
    41a4:	10000637          	lui	a2,0x10000
    41a8:	02e00593          	li	a1,46
    41ac:	00b62023          	sw	a1,0(a2) # 10000000 <end+0xfff3903>
    41b0:	00b62023          	sw	a1,0(a2)

000041b4 <test_2>:
    41b4:	00008097          	auipc	ra,0x8
    41b8:	eb808093          	addi	ra,ra,-328 # c06c <tdat>
    41bc:	00008183          	lb	gp,0(ra)
    41c0:	fff00e93          	li	t4,-1
    41c4:	00200e13          	li	t3,2
    41c8:	23d19c63          	bne	gp,t4,4400 <fail>

000041cc <test_3>:
    41cc:	00008097          	auipc	ra,0x8
    41d0:	ea008093          	addi	ra,ra,-352 # c06c <tdat>
    41d4:	00108183          	lb	gp,1(ra)
    41d8:	00000e93          	li	t4,0
    41dc:	00300e13          	li	t3,3
    41e0:	23d19063          	bne	gp,t4,4400 <fail>

000041e4 <test_4>:
    41e4:	00008097          	auipc	ra,0x8
    41e8:	e8808093          	addi	ra,ra,-376 # c06c <tdat>
    41ec:	00208183          	lb	gp,2(ra)
    41f0:	ff000e93          	li	t4,-16
    41f4:	00400e13          	li	t3,4
    41f8:	21d19463          	bne	gp,t4,4400 <fail>

000041fc <test_5>:
    41fc:	00008097          	auipc	ra,0x8
    4200:	e7008093          	addi	ra,ra,-400 # c06c <tdat>
    4204:	00308183          	lb	gp,3(ra)
    4208:	00f00e93          	li	t4,15
    420c:	00500e13          	li	t3,5
    4210:	1fd19863          	bne	gp,t4,4400 <fail>

00004214 <test_6>:
    4214:	00008097          	auipc	ra,0x8
    4218:	e5b08093          	addi	ra,ra,-421 # c06f <tdat4>
    421c:	ffd08183          	lb	gp,-3(ra)
    4220:	fff00e93          	li	t4,-1
    4224:	00600e13          	li	t3,6
    4228:	1dd19c63          	bne	gp,t4,4400 <fail>

0000422c <test_7>:
    422c:	00008097          	auipc	ra,0x8
    4230:	e4308093          	addi	ra,ra,-445 # c06f <tdat4>
    4234:	ffe08183          	lb	gp,-2(ra)
    4238:	00000e93          	li	t4,0
    423c:	00700e13          	li	t3,7
    4240:	1dd19063          	bne	gp,t4,4400 <fail>

00004244 <test_8>:
    4244:	00008097          	auipc	ra,0x8
    4248:	e2b08093          	addi	ra,ra,-469 # c06f <tdat4>
    424c:	fff08183          	lb	gp,-1(ra)
    4250:	ff000e93          	li	t4,-16
    4254:	00800e13          	li	t3,8
    4258:	1bd19463          	bne	gp,t4,4400 <fail>

0000425c <test_9>:
    425c:	00008097          	auipc	ra,0x8
    4260:	e1308093          	addi	ra,ra,-493 # c06f <tdat4>
    4264:	00008183          	lb	gp,0(ra)
    4268:	00f00e93          	li	t4,15
    426c:	00900e13          	li	t3,9
    4270:	19d19863          	bne	gp,t4,4400 <fail>

00004274 <test_10>:
    4274:	00008097          	auipc	ra,0x8
    4278:	df808093          	addi	ra,ra,-520 # c06c <tdat>
    427c:	fe008093          	addi	ra,ra,-32
    4280:	02008183          	lb	gp,32(ra)
    4284:	fff00e93          	li	t4,-1
    4288:	00a00e13          	li	t3,10
    428c:	17d19a63          	bne	gp,t4,4400 <fail>

00004290 <test_11>:
    4290:	00008097          	auipc	ra,0x8
    4294:	ddc08093          	addi	ra,ra,-548 # c06c <tdat>
    4298:	ffa08093          	addi	ra,ra,-6
    429c:	00708183          	lb	gp,7(ra)
    42a0:	00000e93          	li	t4,0
    42a4:	00b00e13          	li	t3,11
    42a8:	15d19c63          	bne	gp,t4,4400 <fail>

000042ac <test_12>:
    42ac:	00c00e13          	li	t3,12
    42b0:	00000213          	li	tp,0
    42b4:	00008097          	auipc	ra,0x8
    42b8:	db908093          	addi	ra,ra,-583 # c06d <tdat2>
    42bc:	00108183          	lb	gp,1(ra)
    42c0:	00018313          	mv	t1,gp
    42c4:	ff000e93          	li	t4,-16
    42c8:	13d31c63          	bne	t1,t4,4400 <fail>
    42cc:	00120213          	addi	tp,tp,1 # 1 <reset_vec+0x1>
    42d0:	00200293          	li	t0,2
    42d4:	fe5210e3          	bne	tp,t0,42b4 <test_12+0x8>

000042d8 <test_13>:
    42d8:	00d00e13          	li	t3,13
    42dc:	00000213          	li	tp,0
    42e0:	00008097          	auipc	ra,0x8
    42e4:	d8e08093          	addi	ra,ra,-626 # c06e <tdat3>
    42e8:	00108183          	lb	gp,1(ra)
    42ec:	00000013          	nop
    42f0:	00018313          	mv	t1,gp
    42f4:	00f00e93          	li	t4,15
    42f8:	11d31463          	bne	t1,t4,4400 <fail>
    42fc:	00120213          	addi	tp,tp,1 # 1 <reset_vec+0x1>
    4300:	00200293          	li	t0,2
    4304:	fc521ee3          	bne	tp,t0,42e0 <test_13+0x8>

00004308 <test_14>:
    4308:	00e00e13          	li	t3,14
    430c:	00000213          	li	tp,0
    4310:	00008097          	auipc	ra,0x8
    4314:	d5c08093          	addi	ra,ra,-676 # c06c <tdat>
    4318:	00108183          	lb	gp,1(ra)
    431c:	00000013          	nop
    4320:	00000013          	nop
    4324:	00018313          	mv	t1,gp
    4328:	00000e93          	li	t4,0
    432c:	0dd31a63          	bne	t1,t4,4400 <fail>
    4330:	00120213          	addi	tp,tp,1 # 1 <reset_vec+0x1>
    4334:	00200293          	li	t0,2
    4338:	fc521ce3          	bne	tp,t0,4310 <test_14+0x8>

0000433c <test_15>:
    433c:	00f00e13          	li	t3,15
    4340:	00000213          	li	tp,0
    4344:	00008097          	auipc	ra,0x8
    4348:	d2908093          	addi	ra,ra,-727 # c06d <tdat2>
    434c:	00108183          	lb	gp,1(ra)
    4350:	ff000e93          	li	t4,-16
    4354:	0bd19663          	bne	gp,t4,4400 <fail>
    4358:	00120213          	addi	tp,tp,1 # 1 <reset_vec+0x1>
    435c:	00200293          	li	t0,2
    4360:	fe5212e3          	bne	tp,t0,4344 <test_15+0x8>

00004364 <test_16>:
    4364:	01000e13          	li	t3,16
    4368:	00000213          	li	tp,0
    436c:	00008097          	auipc	ra,0x8
    4370:	d0208093          	addi	ra,ra,-766 # c06e <tdat3>
    4374:	00000013          	nop
    4378:	00108183          	lb	gp,1(ra)
    437c:	00f00e93          	li	t4,15
    4380:	09d19063          	bne	gp,t4,4400 <fail>
    4384:	00120213          	addi	tp,tp,1 # 1 <reset_vec+0x1>
    4388:	00200293          	li	t0,2
    438c:	fe5210e3          	bne	tp,t0,436c <test_16+0x8>

00004390 <test_17>:
    4390:	01100e13          	li	t3,17
    4394:	00000213          	li	tp,0
    4398:	00008097          	auipc	ra,0x8
    439c:	cd408093          	addi	ra,ra,-812 # c06c <tdat>
    43a0:	00000013          	nop
    43a4:	00000013          	nop
    43a8:	00108183          	lb	gp,1(ra)
    43ac:	00000e93          	li	t4,0
    43b0:	05d19863          	bne	gp,t4,4400 <fail>
    43b4:	00120213          	addi	tp,tp,1 # 1 <reset_vec+0x1>
    43b8:	00200293          	li	t0,2
    43bc:	fc521ee3          	bne	tp,t0,4398 <test_17+0x8>

000043c0 <test_18>:
    43c0:	00008197          	auipc	gp,0x8
    43c4:	cac18193          	addi	gp,gp,-852 # c06c <tdat>
    43c8:	00018103          	lb	sp,0(gp)
    43cc:	00200113          	li	sp,2
    43d0:	00200e93          	li	t4,2
    43d4:	01200e13          	li	t3,18
    43d8:	03d11463          	bne	sp,t4,4400 <fail>

000043dc <test_19>:
    43dc:	00008197          	auipc	gp,0x8
    43e0:	c9018193          	addi	gp,gp,-880 # c06c <tdat>
    43e4:	00018103          	lb	sp,0(gp)
    43e8:	00000013          	nop
    43ec:	00200113          	li	sp,2
    43f0:	00200e93          	li	t4,2
    43f4:	01300e13          	li	t3,19
    43f8:	01d11463          	bne	sp,t4,4400 <fail>
    43fc:	05c01863          	bne	zero,t3,444c <pass>

00004400 <fail>:
    4400:	00000513          	li	a0,0
    4404:	10000537          	lui	a0,0x10000
    4408:	04500593          	li	a1,69
    440c:	05200613          	li	a2,82
    4410:	04f00693          	li	a3,79
    4414:	00b52023          	sw	a1,0(a0) # 10000000 <end+0xfff3903>
    4418:	00c52023          	sw	a2,0(a0)
    441c:	00c52023          	sw	a2,0(a0)
    4420:	00d52023          	sw	a3,0(a0)
    4424:	00c52023          	sw	a2,0(a0)
    4428:	030e0593          	addi	a1,t3,48
    442c:	02000613          	li	a2,32
    4430:	03a00693          	li	a3,58
    4434:	00d52023          	sw	a3,0(a0)
    4438:	00c52023          	sw	a2,0(a0)
    443c:	00b52023          	sw	a1,0(a0)
    4440:	00a00713          	li	a4,10
    4444:	00e52023          	sw	a4,0(a0)
    4448:	d25fb06f          	j	16c <lb_ret>

0000444c <pass>:
    444c:	00000513          	li	a0,0
    4450:	10000537          	lui	a0,0x10000
    4454:	04f00593          	li	a1,79
    4458:	04b00613          	li	a2,75
    445c:	00a00693          	li	a3,10
    4460:	00b52023          	sw	a1,0(a0) # 10000000 <end+0xfff3903>
    4464:	00c52023          	sw	a2,0(a0)
    4468:	00d52023          	sw	a3,0(a0)
    446c:	d01fb06f          	j	16c <lb_ret>

00004470 <lbu>:
    4470:	00004537          	lui	a0,0x4
    4474:	49450513          	addi	a0,a0,1172 # 4494 <.test_name>
    4478:	00000613          	li	a2,0
    447c:	10000637          	lui	a2,0x10000

00004480 <.prname_next>:
    4480:	00050583          	lb	a1,0(a0)
    4484:	00058a63          	beqz	a1,4498 <.prname_done>
    4488:	00b62023          	sw	a1,0(a2) # 10000000 <end+0xfff3903>
    448c:	00150513          	addi	a0,a0,1
    4490:	ff1ff06f          	j	4480 <.prname_next>

00004494 <.test_name>:
    4494:	0075626c          	.word	0x0075626c

00004498 <.prname_done>:
    4498:	00000613          	li	a2,0
    449c:	10000637          	lui	a2,0x10000
    44a0:	02e00593          	li	a1,46
    44a4:	00b62023          	sw	a1,0(a2) # 10000000 <end+0xfff3903>
    44a8:	00b62023          	sw	a1,0(a2)

000044ac <test_2>:
    44ac:	00008097          	auipc	ra,0x8
    44b0:	bf808093          	addi	ra,ra,-1032 # c0a4 <tdat>
    44b4:	0000c183          	lbu	gp,0(ra)
    44b8:	0ff00e93          	li	t4,255
    44bc:	00200e13          	li	t3,2
    44c0:	23d19c63          	bne	gp,t4,46f8 <fail>

000044c4 <test_3>:
    44c4:	00008097          	auipc	ra,0x8
    44c8:	be008093          	addi	ra,ra,-1056 # c0a4 <tdat>
    44cc:	0010c183          	lbu	gp,1(ra)
    44d0:	00000e93          	li	t4,0
    44d4:	00300e13          	li	t3,3
    44d8:	23d19063          	bne	gp,t4,46f8 <fail>

000044dc <test_4>:
    44dc:	00008097          	auipc	ra,0x8
    44e0:	bc808093          	addi	ra,ra,-1080 # c0a4 <tdat>
    44e4:	0020c183          	lbu	gp,2(ra)
    44e8:	0f000e93          	li	t4,240
    44ec:	00400e13          	li	t3,4
    44f0:	21d19463          	bne	gp,t4,46f8 <fail>

000044f4 <test_5>:
    44f4:	00008097          	auipc	ra,0x8
    44f8:	bb008093          	addi	ra,ra,-1104 # c0a4 <tdat>
    44fc:	0030c183          	lbu	gp,3(ra)
    4500:	00f00e93          	li	t4,15
    4504:	00500e13          	li	t3,5
    4508:	1fd19863          	bne	gp,t4,46f8 <fail>

0000450c <test_6>:
    450c:	00008097          	auipc	ra,0x8
    4510:	b9b08093          	addi	ra,ra,-1125 # c0a7 <tdat4>
    4514:	ffd0c183          	lbu	gp,-3(ra)
    4518:	0ff00e93          	li	t4,255
    451c:	00600e13          	li	t3,6
    4520:	1dd19c63          	bne	gp,t4,46f8 <fail>

00004524 <test_7>:
    4524:	00008097          	auipc	ra,0x8
    4528:	b8308093          	addi	ra,ra,-1149 # c0a7 <tdat4>
    452c:	ffe0c183          	lbu	gp,-2(ra)
    4530:	00000e93          	li	t4,0
    4534:	00700e13          	li	t3,7
    4538:	1dd19063          	bne	gp,t4,46f8 <fail>

0000453c <test_8>:
    453c:	00008097          	auipc	ra,0x8
    4540:	b6b08093          	addi	ra,ra,-1173 # c0a7 <tdat4>
    4544:	fff0c183          	lbu	gp,-1(ra)
    4548:	0f000e93          	li	t4,240
    454c:	00800e13          	li	t3,8
    4550:	1bd19463          	bne	gp,t4,46f8 <fail>

00004554 <test_9>:
    4554:	00008097          	auipc	ra,0x8
    4558:	b5308093          	addi	ra,ra,-1197 # c0a7 <tdat4>
    455c:	0000c183          	lbu	gp,0(ra)
    4560:	00f00e93          	li	t4,15
    4564:	00900e13          	li	t3,9
    4568:	19d19863          	bne	gp,t4,46f8 <fail>

0000456c <test_10>:
    456c:	00008097          	auipc	ra,0x8
    4570:	b3808093          	addi	ra,ra,-1224 # c0a4 <tdat>
    4574:	fe008093          	addi	ra,ra,-32
    4578:	0200c183          	lbu	gp,32(ra)
    457c:	0ff00e93          	li	t4,255
    4580:	00a00e13          	li	t3,10
    4584:	17d19a63          	bne	gp,t4,46f8 <fail>

00004588 <test_11>:
    4588:	00008097          	auipc	ra,0x8
    458c:	b1c08093          	addi	ra,ra,-1252 # c0a4 <tdat>
    4590:	ffa08093          	addi	ra,ra,-6
    4594:	0070c183          	lbu	gp,7(ra)
    4598:	00000e93          	li	t4,0
    459c:	00b00e13          	li	t3,11
    45a0:	15d19c63          	bne	gp,t4,46f8 <fail>

000045a4 <test_12>:
    45a4:	00c00e13          	li	t3,12
    45a8:	00000213          	li	tp,0
    45ac:	00008097          	auipc	ra,0x8
    45b0:	af908093          	addi	ra,ra,-1287 # c0a5 <tdat2>
    45b4:	0010c183          	lbu	gp,1(ra)
    45b8:	00018313          	mv	t1,gp
    45bc:	0f000e93          	li	t4,240
    45c0:	13d31c63          	bne	t1,t4,46f8 <fail>
    45c4:	00120213          	addi	tp,tp,1 # 1 <reset_vec+0x1>
    45c8:	00200293          	li	t0,2
    45cc:	fe5210e3          	bne	tp,t0,45ac <test_12+0x8>

000045d0 <test_13>:
    45d0:	00d00e13          	li	t3,13
    45d4:	00000213          	li	tp,0
    45d8:	00008097          	auipc	ra,0x8
    45dc:	ace08093          	addi	ra,ra,-1330 # c0a6 <tdat3>
    45e0:	0010c183          	lbu	gp,1(ra)
    45e4:	00000013          	nop
    45e8:	00018313          	mv	t1,gp
    45ec:	00f00e93          	li	t4,15
    45f0:	11d31463          	bne	t1,t4,46f8 <fail>
    45f4:	00120213          	addi	tp,tp,1 # 1 <reset_vec+0x1>
    45f8:	00200293          	li	t0,2
    45fc:	fc521ee3          	bne	tp,t0,45d8 <test_13+0x8>

00004600 <test_14>:
    4600:	00e00e13          	li	t3,14
    4604:	00000213          	li	tp,0
    4608:	00008097          	auipc	ra,0x8
    460c:	a9c08093          	addi	ra,ra,-1380 # c0a4 <tdat>
    4610:	0010c183          	lbu	gp,1(ra)
    4614:	00000013          	nop
    4618:	00000013          	nop
    461c:	00018313          	mv	t1,gp
    4620:	00000e93          	li	t4,0
    4624:	0dd31a63          	bne	t1,t4,46f8 <fail>
    4628:	00120213          	addi	tp,tp,1 # 1 <reset_vec+0x1>
    462c:	00200293          	li	t0,2
    4630:	fc521ce3          	bne	tp,t0,4608 <test_14+0x8>

00004634 <test_15>:
    4634:	00f00e13          	li	t3,15
    4638:	00000213          	li	tp,0
    463c:	00008097          	auipc	ra,0x8
    4640:	a6908093          	addi	ra,ra,-1431 # c0a5 <tdat2>
    4644:	0010c183          	lbu	gp,1(ra)
    4648:	0f000e93          	li	t4,240
    464c:	0bd19663          	bne	gp,t4,46f8 <fail>
    4650:	00120213          	addi	tp,tp,1 # 1 <reset_vec+0x1>
    4654:	00200293          	li	t0,2
    4658:	fe5212e3          	bne	tp,t0,463c <test_15+0x8>

0000465c <test_16>:
    465c:	01000e13          	li	t3,16
    4660:	00000213          	li	tp,0
    4664:	00008097          	auipc	ra,0x8
    4668:	a4208093          	addi	ra,ra,-1470 # c0a6 <tdat3>
    466c:	00000013          	nop
    4670:	0010c183          	lbu	gp,1(ra)
    4674:	00f00e93          	li	t4,15
    4678:	09d19063          	bne	gp,t4,46f8 <fail>
    467c:	00120213          	addi	tp,tp,1 # 1 <reset_vec+0x1>
    4680:	00200293          	li	t0,2
    4684:	fe5210e3          	bne	tp,t0,4664 <test_16+0x8>

00004688 <test_17>:
    4688:	01100e13          	li	t3,17
    468c:	00000213          	li	tp,0
    4690:	00008097          	auipc	ra,0x8
    4694:	a1408093          	addi	ra,ra,-1516 # c0a4 <tdat>
    4698:	00000013          	nop
    469c:	00000013          	nop
    46a0:	0010c183          	lbu	gp,1(ra)
    46a4:	00000e93          	li	t4,0
    46a8:	05d19863          	bne	gp,t4,46f8 <fail>
    46ac:	00120213          	addi	tp,tp,1 # 1 <reset_vec+0x1>
    46b0:	00200293          	li	t0,2
    46b4:	fc521ee3          	bne	tp,t0,4690 <test_17+0x8>

000046b8 <test_18>:
    46b8:	00008197          	auipc	gp,0x8
    46bc:	9ec18193          	addi	gp,gp,-1556 # c0a4 <tdat>
    46c0:	0001c103          	lbu	sp,0(gp)
    46c4:	00200113          	li	sp,2
    46c8:	00200e93          	li	t4,2
    46cc:	01200e13          	li	t3,18
    46d0:	03d11463          	bne	sp,t4,46f8 <fail>

000046d4 <test_19>:
    46d4:	00008197          	auipc	gp,0x8
    46d8:	9d018193          	addi	gp,gp,-1584 # c0a4 <tdat>
    46dc:	0001c103          	lbu	sp,0(gp)
    46e0:	00000013          	nop
    46e4:	00200113          	li	sp,2
    46e8:	00200e93          	li	t4,2
    46ec:	01300e13          	li	t3,19
    46f0:	01d11463          	bne	sp,t4,46f8 <fail>
    46f4:	05c01863          	bne	zero,t3,4744 <pass>

000046f8 <fail>:
    46f8:	00000513          	li	a0,0
    46fc:	10000537          	lui	a0,0x10000
    4700:	04500593          	li	a1,69
    4704:	05200613          	li	a2,82
    4708:	04f00693          	li	a3,79
    470c:	00b52023          	sw	a1,0(a0) # 10000000 <end+0xfff3903>
    4710:	00c52023          	sw	a2,0(a0)
    4714:	00c52023          	sw	a2,0(a0)
    4718:	00d52023          	sw	a3,0(a0)
    471c:	00c52023          	sw	a2,0(a0)
    4720:	030e0593          	addi	a1,t3,48
    4724:	02000613          	li	a2,32
    4728:	03a00693          	li	a3,58
    472c:	00d52023          	sw	a3,0(a0)
    4730:	00c52023          	sw	a2,0(a0)
    4734:	00b52023          	sw	a1,0(a0)
    4738:	00a00713          	li	a4,10
    473c:	00e52023          	sw	a4,0(a0)
    4740:	a45fb06f          	j	184 <lbu_ret>

00004744 <pass>:
    4744:	00000513          	li	a0,0
    4748:	10000537          	lui	a0,0x10000
    474c:	04f00593          	li	a1,79
    4750:	04b00613          	li	a2,75
    4754:	00a00693          	li	a3,10
    4758:	00b52023          	sw	a1,0(a0) # 10000000 <end+0xfff3903>
    475c:	00c52023          	sw	a2,0(a0)
    4760:	00d52023          	sw	a3,0(a0)
    4764:	a21fb06f          	j	184 <lbu_ret>

00004768 <lh>:
    4768:	00004537          	lui	a0,0x4
    476c:	78c50513          	addi	a0,a0,1932 # 478c <.test_name>
    4770:	00000613          	li	a2,0
    4774:	10000637          	lui	a2,0x10000

00004778 <.prname_next>:
    4778:	00050583          	lb	a1,0(a0)
    477c:	00058a63          	beqz	a1,4790 <.prname_done>
    4780:	00b62023          	sw	a1,0(a2) # 10000000 <end+0xfff3903>
    4784:	00150513          	addi	a0,a0,1
    4788:	ff1ff06f          	j	4778 <.prname_next>

0000478c <.test_name>:
    478c:	0000686c          	.word	0x0000686c

00004790 <.prname_done>:
    4790:	00000613          	li	a2,0
    4794:	10000637          	lui	a2,0x10000
    4798:	02e00593          	li	a1,46
    479c:	00b62023          	sw	a1,0(a2) # 10000000 <end+0xfff3903>
    47a0:	00b62023          	sw	a1,0(a2)

000047a4 <test_2>:
    47a4:	00008097          	auipc	ra,0x8
    47a8:	93808093          	addi	ra,ra,-1736 # c0dc <tdat>
    47ac:	00009183          	lh	gp,0(ra)
    47b0:	0ff00e93          	li	t4,255
    47b4:	00200e13          	li	t3,2
    47b8:	25d19c63          	bne	gp,t4,4a10 <fail>

000047bc <test_3>:
    47bc:	00008097          	auipc	ra,0x8
    47c0:	92008093          	addi	ra,ra,-1760 # c0dc <tdat>
    47c4:	00209183          	lh	gp,2(ra)
    47c8:	f0000e93          	li	t4,-256
    47cc:	00300e13          	li	t3,3
    47d0:	25d19063          	bne	gp,t4,4a10 <fail>

000047d4 <test_4>:
    47d4:	00008097          	auipc	ra,0x8
    47d8:	90808093          	addi	ra,ra,-1784 # c0dc <tdat>
    47dc:	00409183          	lh	gp,4(ra)
    47e0:	00001eb7          	lui	t4,0x1
    47e4:	ff0e8e93          	addi	t4,t4,-16 # ff0 <printf+0x4fc>
    47e8:	00400e13          	li	t3,4
    47ec:	23d19263          	bne	gp,t4,4a10 <fail>

000047f0 <test_5>:
    47f0:	00008097          	auipc	ra,0x8
    47f4:	8ec08093          	addi	ra,ra,-1812 # c0dc <tdat>
    47f8:	00609183          	lh	gp,6(ra)
    47fc:	fffffeb7          	lui	t4,0xfffff
    4800:	00fe8e93          	addi	t4,t4,15 # fffff00f <end+0xffff2912>
    4804:	00500e13          	li	t3,5
    4808:	21d19463          	bne	gp,t4,4a10 <fail>

0000480c <test_6>:
    480c:	00008097          	auipc	ra,0x8
    4810:	8d608093          	addi	ra,ra,-1834 # c0e2 <tdat4>
    4814:	ffa09183          	lh	gp,-6(ra)
    4818:	0ff00e93          	li	t4,255
    481c:	00600e13          	li	t3,6
    4820:	1fd19863          	bne	gp,t4,4a10 <fail>

00004824 <test_7>:
    4824:	00008097          	auipc	ra,0x8
    4828:	8be08093          	addi	ra,ra,-1858 # c0e2 <tdat4>
    482c:	ffc09183          	lh	gp,-4(ra)
    4830:	f0000e93          	li	t4,-256
    4834:	00700e13          	li	t3,7
    4838:	1dd19c63          	bne	gp,t4,4a10 <fail>

0000483c <test_8>:
    483c:	00008097          	auipc	ra,0x8
    4840:	8a608093          	addi	ra,ra,-1882 # c0e2 <tdat4>
    4844:	ffe09183          	lh	gp,-2(ra)
    4848:	00001eb7          	lui	t4,0x1
    484c:	ff0e8e93          	addi	t4,t4,-16 # ff0 <printf+0x4fc>
    4850:	00800e13          	li	t3,8
    4854:	1bd19e63          	bne	gp,t4,4a10 <fail>

00004858 <test_9>:
    4858:	00008097          	auipc	ra,0x8
    485c:	88a08093          	addi	ra,ra,-1910 # c0e2 <tdat4>
    4860:	00009183          	lh	gp,0(ra)
    4864:	fffffeb7          	lui	t4,0xfffff
    4868:	00fe8e93          	addi	t4,t4,15 # fffff00f <end+0xffff2912>
    486c:	00900e13          	li	t3,9
    4870:	1bd19063          	bne	gp,t4,4a10 <fail>

00004874 <test_10>:
    4874:	00008097          	auipc	ra,0x8
    4878:	86808093          	addi	ra,ra,-1944 # c0dc <tdat>
    487c:	fe008093          	addi	ra,ra,-32
    4880:	02009183          	lh	gp,32(ra)
    4884:	0ff00e93          	li	t4,255
    4888:	00a00e13          	li	t3,10
    488c:	19d19263          	bne	gp,t4,4a10 <fail>

00004890 <test_11>:
    4890:	00008097          	auipc	ra,0x8
    4894:	84c08093          	addi	ra,ra,-1972 # c0dc <tdat>
    4898:	ffb08093          	addi	ra,ra,-5
    489c:	00709183          	lh	gp,7(ra)
    48a0:	f0000e93          	li	t4,-256
    48a4:	00b00e13          	li	t3,11
    48a8:	17d19463          	bne	gp,t4,4a10 <fail>

000048ac <test_12>:
    48ac:	00c00e13          	li	t3,12
    48b0:	00000213          	li	tp,0
    48b4:	00008097          	auipc	ra,0x8
    48b8:	82a08093          	addi	ra,ra,-2006 # c0de <tdat2>
    48bc:	00209183          	lh	gp,2(ra)
    48c0:	00018313          	mv	t1,gp
    48c4:	00001eb7          	lui	t4,0x1
    48c8:	ff0e8e93          	addi	t4,t4,-16 # ff0 <printf+0x4fc>
    48cc:	15d31263          	bne	t1,t4,4a10 <fail>
    48d0:	00120213          	addi	tp,tp,1 # 1 <reset_vec+0x1>
    48d4:	00200293          	li	t0,2
    48d8:	fc521ee3          	bne	tp,t0,48b4 <test_12+0x8>

000048dc <test_13>:
    48dc:	00d00e13          	li	t3,13
    48e0:	00000213          	li	tp,0
    48e4:	00007097          	auipc	ra,0x7
    48e8:	7fc08093          	addi	ra,ra,2044 # c0e0 <tdat3>
    48ec:	00209183          	lh	gp,2(ra)
    48f0:	00000013          	nop
    48f4:	00018313          	mv	t1,gp
    48f8:	fffffeb7          	lui	t4,0xfffff
    48fc:	00fe8e93          	addi	t4,t4,15 # fffff00f <end+0xffff2912>
    4900:	11d31863          	bne	t1,t4,4a10 <fail>
    4904:	00120213          	addi	tp,tp,1 # 1 <reset_vec+0x1>
    4908:	00200293          	li	t0,2
    490c:	fc521ce3          	bne	tp,t0,48e4 <test_13+0x8>

00004910 <test_14>:
    4910:	00e00e13          	li	t3,14
    4914:	00000213          	li	tp,0
    4918:	00007097          	auipc	ra,0x7
    491c:	7c408093          	addi	ra,ra,1988 # c0dc <tdat>
    4920:	00209183          	lh	gp,2(ra)
    4924:	00000013          	nop
    4928:	00000013          	nop
    492c:	00018313          	mv	t1,gp
    4930:	f0000e93          	li	t4,-256
    4934:	0dd31e63          	bne	t1,t4,4a10 <fail>
    4938:	00120213          	addi	tp,tp,1 # 1 <reset_vec+0x1>
    493c:	00200293          	li	t0,2
    4940:	fc521ce3          	bne	tp,t0,4918 <test_14+0x8>

00004944 <test_15>:
    4944:	00f00e13          	li	t3,15
    4948:	00000213          	li	tp,0
    494c:	00007097          	auipc	ra,0x7
    4950:	79208093          	addi	ra,ra,1938 # c0de <tdat2>
    4954:	00209183          	lh	gp,2(ra)
    4958:	00001eb7          	lui	t4,0x1
    495c:	ff0e8e93          	addi	t4,t4,-16 # ff0 <printf+0x4fc>
    4960:	0bd19863          	bne	gp,t4,4a10 <fail>
    4964:	00120213          	addi	tp,tp,1 # 1 <reset_vec+0x1>
    4968:	00200293          	li	t0,2
    496c:	fe5210e3          	bne	tp,t0,494c <test_15+0x8>

00004970 <test_16>:
    4970:	01000e13          	li	t3,16
    4974:	00000213          	li	tp,0
    4978:	00007097          	auipc	ra,0x7
    497c:	76808093          	addi	ra,ra,1896 # c0e0 <tdat3>
    4980:	00000013          	nop
    4984:	00209183          	lh	gp,2(ra)
    4988:	fffffeb7          	lui	t4,0xfffff
    498c:	00fe8e93          	addi	t4,t4,15 # fffff00f <end+0xffff2912>
    4990:	09d19063          	bne	gp,t4,4a10 <fail>
    4994:	00120213          	addi	tp,tp,1 # 1 <reset_vec+0x1>
    4998:	00200293          	li	t0,2
    499c:	fc521ee3          	bne	tp,t0,4978 <test_16+0x8>

000049a0 <test_17>:
    49a0:	01100e13          	li	t3,17
    49a4:	00000213          	li	tp,0
    49a8:	00007097          	auipc	ra,0x7
    49ac:	73408093          	addi	ra,ra,1844 # c0dc <tdat>
    49b0:	00000013          	nop
    49b4:	00000013          	nop
    49b8:	00209183          	lh	gp,2(ra)
    49bc:	f0000e93          	li	t4,-256
    49c0:	05d19863          	bne	gp,t4,4a10 <fail>
    49c4:	00120213          	addi	tp,tp,1 # 1 <reset_vec+0x1>
    49c8:	00200293          	li	t0,2
    49cc:	fc521ee3          	bne	tp,t0,49a8 <test_17+0x8>

000049d0 <test_18>:
    49d0:	00007197          	auipc	gp,0x7
    49d4:	70c18193          	addi	gp,gp,1804 # c0dc <tdat>
    49d8:	00019103          	lh	sp,0(gp)
    49dc:	00200113          	li	sp,2
    49e0:	00200e93          	li	t4,2
    49e4:	01200e13          	li	t3,18
    49e8:	03d11463          	bne	sp,t4,4a10 <fail>

000049ec <test_19>:
    49ec:	00007197          	auipc	gp,0x7
    49f0:	6f018193          	addi	gp,gp,1776 # c0dc <tdat>
    49f4:	00019103          	lh	sp,0(gp)
    49f8:	00000013          	nop
    49fc:	00200113          	li	sp,2
    4a00:	00200e93          	li	t4,2
    4a04:	01300e13          	li	t3,19
    4a08:	01d11463          	bne	sp,t4,4a10 <fail>
    4a0c:	05c01863          	bne	zero,t3,4a5c <pass>

00004a10 <fail>:
    4a10:	00000513          	li	a0,0
    4a14:	10000537          	lui	a0,0x10000
    4a18:	04500593          	li	a1,69
    4a1c:	05200613          	li	a2,82
    4a20:	04f00693          	li	a3,79
    4a24:	00b52023          	sw	a1,0(a0) # 10000000 <end+0xfff3903>
    4a28:	00c52023          	sw	a2,0(a0)
    4a2c:	00c52023          	sw	a2,0(a0)
    4a30:	00d52023          	sw	a3,0(a0)
    4a34:	00c52023          	sw	a2,0(a0)
    4a38:	030e0593          	addi	a1,t3,48
    4a3c:	02000613          	li	a2,32
    4a40:	03a00693          	li	a3,58
    4a44:	00d52023          	sw	a3,0(a0)
    4a48:	00c52023          	sw	a2,0(a0)
    4a4c:	00b52023          	sw	a1,0(a0)
    4a50:	00a00713          	li	a4,10
    4a54:	00e52023          	sw	a4,0(a0)
    4a58:	f1cfb06f          	j	174 <lh_ret>

00004a5c <pass>:
    4a5c:	00000513          	li	a0,0
    4a60:	10000537          	lui	a0,0x10000
    4a64:	04f00593          	li	a1,79
    4a68:	04b00613          	li	a2,75
    4a6c:	00a00693          	li	a3,10
    4a70:	00b52023          	sw	a1,0(a0) # 10000000 <end+0xfff3903>
    4a74:	00c52023          	sw	a2,0(a0)
    4a78:	00d52023          	sw	a3,0(a0)
    4a7c:	ef8fb06f          	j	174 <lh_ret>

00004a80 <lhu>:
    4a80:	00005537          	lui	a0,0x5
    4a84:	aa450513          	addi	a0,a0,-1372 # 4aa4 <.test_name>
    4a88:	00000613          	li	a2,0
    4a8c:	10000637          	lui	a2,0x10000

00004a90 <.prname_next>:
    4a90:	00050583          	lb	a1,0(a0)
    4a94:	00058a63          	beqz	a1,4aa8 <.prname_done>
    4a98:	00b62023          	sw	a1,0(a2) # 10000000 <end+0xfff3903>
    4a9c:	00150513          	addi	a0,a0,1
    4aa0:	ff1ff06f          	j	4a90 <.prname_next>

00004aa4 <.test_name>:
    4aa4:	0075686c          	.word	0x0075686c

00004aa8 <.prname_done>:
    4aa8:	00000613          	li	a2,0
    4aac:	10000637          	lui	a2,0x10000
    4ab0:	02e00593          	li	a1,46
    4ab4:	00b62023          	sw	a1,0(a2) # 10000000 <end+0xfff3903>
    4ab8:	00b62023          	sw	a1,0(a2)

00004abc <test_2>:
    4abc:	00007097          	auipc	ra,0x7
    4ac0:	65c08093          	addi	ra,ra,1628 # c118 <tdat>
    4ac4:	0000d183          	lhu	gp,0(ra)
    4ac8:	0ff00e93          	li	t4,255
    4acc:	00200e13          	li	t3,2
    4ad0:	27d19663          	bne	gp,t4,4d3c <fail>

00004ad4 <test_3>:
    4ad4:	00007097          	auipc	ra,0x7
    4ad8:	64408093          	addi	ra,ra,1604 # c118 <tdat>
    4adc:	0020d183          	lhu	gp,2(ra)
    4ae0:	00010eb7          	lui	t4,0x10
    4ae4:	f00e8e93          	addi	t4,t4,-256 # ff00 <end+0x3803>
    4ae8:	00300e13          	li	t3,3
    4aec:	25d19863          	bne	gp,t4,4d3c <fail>

00004af0 <test_4>:
    4af0:	00007097          	auipc	ra,0x7
    4af4:	62808093          	addi	ra,ra,1576 # c118 <tdat>
    4af8:	0040d183          	lhu	gp,4(ra)
    4afc:	00001eb7          	lui	t4,0x1
    4b00:	ff0e8e93          	addi	t4,t4,-16 # ff0 <printf+0x4fc>
    4b04:	00400e13          	li	t3,4
    4b08:	23d19a63          	bne	gp,t4,4d3c <fail>

00004b0c <test_5>:
    4b0c:	00007097          	auipc	ra,0x7
    4b10:	60c08093          	addi	ra,ra,1548 # c118 <tdat>
    4b14:	0060d183          	lhu	gp,6(ra)
    4b18:	0000feb7          	lui	t4,0xf
    4b1c:	00fe8e93          	addi	t4,t4,15 # f00f <end+0x2912>
    4b20:	00500e13          	li	t3,5
    4b24:	21d19c63          	bne	gp,t4,4d3c <fail>

00004b28 <test_6>:
    4b28:	00007097          	auipc	ra,0x7
    4b2c:	5f608093          	addi	ra,ra,1526 # c11e <tdat4>
    4b30:	ffa0d183          	lhu	gp,-6(ra)
    4b34:	0ff00e93          	li	t4,255
    4b38:	00600e13          	li	t3,6
    4b3c:	21d19063          	bne	gp,t4,4d3c <fail>

00004b40 <test_7>:
    4b40:	00007097          	auipc	ra,0x7
    4b44:	5de08093          	addi	ra,ra,1502 # c11e <tdat4>
    4b48:	ffc0d183          	lhu	gp,-4(ra)
    4b4c:	00010eb7          	lui	t4,0x10
    4b50:	f00e8e93          	addi	t4,t4,-256 # ff00 <end+0x3803>
    4b54:	00700e13          	li	t3,7
    4b58:	1fd19263          	bne	gp,t4,4d3c <fail>

00004b5c <test_8>:
    4b5c:	00007097          	auipc	ra,0x7
    4b60:	5c208093          	addi	ra,ra,1474 # c11e <tdat4>
    4b64:	ffe0d183          	lhu	gp,-2(ra)
    4b68:	00001eb7          	lui	t4,0x1
    4b6c:	ff0e8e93          	addi	t4,t4,-16 # ff0 <printf+0x4fc>
    4b70:	00800e13          	li	t3,8
    4b74:	1dd19463          	bne	gp,t4,4d3c <fail>

00004b78 <test_9>:
    4b78:	00007097          	auipc	ra,0x7
    4b7c:	5a608093          	addi	ra,ra,1446 # c11e <tdat4>
    4b80:	0000d183          	lhu	gp,0(ra)
    4b84:	0000feb7          	lui	t4,0xf
    4b88:	00fe8e93          	addi	t4,t4,15 # f00f <end+0x2912>
    4b8c:	00900e13          	li	t3,9
    4b90:	1bd19663          	bne	gp,t4,4d3c <fail>

00004b94 <test_10>:
    4b94:	00007097          	auipc	ra,0x7
    4b98:	58408093          	addi	ra,ra,1412 # c118 <tdat>
    4b9c:	fe008093          	addi	ra,ra,-32
    4ba0:	0200d183          	lhu	gp,32(ra)
    4ba4:	0ff00e93          	li	t4,255
    4ba8:	00a00e13          	li	t3,10
    4bac:	19d19863          	bne	gp,t4,4d3c <fail>

00004bb0 <test_11>:
    4bb0:	00007097          	auipc	ra,0x7
    4bb4:	56808093          	addi	ra,ra,1384 # c118 <tdat>
    4bb8:	ffb08093          	addi	ra,ra,-5
    4bbc:	0070d183          	lhu	gp,7(ra)
    4bc0:	00010eb7          	lui	t4,0x10
    4bc4:	f00e8e93          	addi	t4,t4,-256 # ff00 <end+0x3803>
    4bc8:	00b00e13          	li	t3,11
    4bcc:	17d19863          	bne	gp,t4,4d3c <fail>

00004bd0 <test_12>:
    4bd0:	00c00e13          	li	t3,12
    4bd4:	00000213          	li	tp,0
    4bd8:	00007097          	auipc	ra,0x7
    4bdc:	54208093          	addi	ra,ra,1346 # c11a <tdat2>
    4be0:	0020d183          	lhu	gp,2(ra)
    4be4:	00018313          	mv	t1,gp
    4be8:	00001eb7          	lui	t4,0x1
    4bec:	ff0e8e93          	addi	t4,t4,-16 # ff0 <printf+0x4fc>
    4bf0:	15d31663          	bne	t1,t4,4d3c <fail>
    4bf4:	00120213          	addi	tp,tp,1 # 1 <reset_vec+0x1>
    4bf8:	00200293          	li	t0,2
    4bfc:	fc521ee3          	bne	tp,t0,4bd8 <test_12+0x8>

00004c00 <test_13>:
    4c00:	00d00e13          	li	t3,13
    4c04:	00000213          	li	tp,0
    4c08:	00007097          	auipc	ra,0x7
    4c0c:	51408093          	addi	ra,ra,1300 # c11c <tdat3>
    4c10:	0020d183          	lhu	gp,2(ra)
    4c14:	00000013          	nop
    4c18:	00018313          	mv	t1,gp
    4c1c:	0000feb7          	lui	t4,0xf
    4c20:	00fe8e93          	addi	t4,t4,15 # f00f <end+0x2912>
    4c24:	11d31c63          	bne	t1,t4,4d3c <fail>
    4c28:	00120213          	addi	tp,tp,1 # 1 <reset_vec+0x1>
    4c2c:	00200293          	li	t0,2
    4c30:	fc521ce3          	bne	tp,t0,4c08 <test_13+0x8>

00004c34 <test_14>:
    4c34:	00e00e13          	li	t3,14
    4c38:	00000213          	li	tp,0
    4c3c:	00007097          	auipc	ra,0x7
    4c40:	4dc08093          	addi	ra,ra,1244 # c118 <tdat>
    4c44:	0020d183          	lhu	gp,2(ra)
    4c48:	00000013          	nop
    4c4c:	00000013          	nop
    4c50:	00018313          	mv	t1,gp
    4c54:	00010eb7          	lui	t4,0x10
    4c58:	f00e8e93          	addi	t4,t4,-256 # ff00 <end+0x3803>
    4c5c:	0fd31063          	bne	t1,t4,4d3c <fail>
    4c60:	00120213          	addi	tp,tp,1 # 1 <reset_vec+0x1>
    4c64:	00200293          	li	t0,2
    4c68:	fc521ae3          	bne	tp,t0,4c3c <test_14+0x8>

00004c6c <test_15>:
    4c6c:	00f00e13          	li	t3,15
    4c70:	00000213          	li	tp,0
    4c74:	00007097          	auipc	ra,0x7
    4c78:	4a608093          	addi	ra,ra,1190 # c11a <tdat2>
    4c7c:	0020d183          	lhu	gp,2(ra)
    4c80:	00001eb7          	lui	t4,0x1
    4c84:	ff0e8e93          	addi	t4,t4,-16 # ff0 <printf+0x4fc>
    4c88:	0bd19a63          	bne	gp,t4,4d3c <fail>
    4c8c:	00120213          	addi	tp,tp,1 # 1 <reset_vec+0x1>
    4c90:	00200293          	li	t0,2
    4c94:	fe5210e3          	bne	tp,t0,4c74 <test_15+0x8>

00004c98 <test_16>:
    4c98:	01000e13          	li	t3,16
    4c9c:	00000213          	li	tp,0
    4ca0:	00007097          	auipc	ra,0x7
    4ca4:	47c08093          	addi	ra,ra,1148 # c11c <tdat3>
    4ca8:	00000013          	nop
    4cac:	0020d183          	lhu	gp,2(ra)
    4cb0:	0000feb7          	lui	t4,0xf
    4cb4:	00fe8e93          	addi	t4,t4,15 # f00f <end+0x2912>
    4cb8:	09d19263          	bne	gp,t4,4d3c <fail>
    4cbc:	00120213          	addi	tp,tp,1 # 1 <reset_vec+0x1>
    4cc0:	00200293          	li	t0,2
    4cc4:	fc521ee3          	bne	tp,t0,4ca0 <test_16+0x8>

00004cc8 <test_17>:
    4cc8:	01100e13          	li	t3,17
    4ccc:	00000213          	li	tp,0
    4cd0:	00007097          	auipc	ra,0x7
    4cd4:	44808093          	addi	ra,ra,1096 # c118 <tdat>
    4cd8:	00000013          	nop
    4cdc:	00000013          	nop
    4ce0:	0020d183          	lhu	gp,2(ra)
    4ce4:	00010eb7          	lui	t4,0x10
    4ce8:	f00e8e93          	addi	t4,t4,-256 # ff00 <end+0x3803>
    4cec:	05d19863          	bne	gp,t4,4d3c <fail>
    4cf0:	00120213          	addi	tp,tp,1 # 1 <reset_vec+0x1>
    4cf4:	00200293          	li	t0,2
    4cf8:	fc521ce3          	bne	tp,t0,4cd0 <test_17+0x8>

00004cfc <test_18>:
    4cfc:	00007197          	auipc	gp,0x7
    4d00:	41c18193          	addi	gp,gp,1052 # c118 <tdat>
    4d04:	0001d103          	lhu	sp,0(gp)
    4d08:	00200113          	li	sp,2
    4d0c:	00200e93          	li	t4,2
    4d10:	01200e13          	li	t3,18
    4d14:	03d11463          	bne	sp,t4,4d3c <fail>

00004d18 <test_19>:
    4d18:	00007197          	auipc	gp,0x7
    4d1c:	40018193          	addi	gp,gp,1024 # c118 <tdat>
    4d20:	0001d103          	lhu	sp,0(gp)
    4d24:	00000013          	nop
    4d28:	00200113          	li	sp,2
    4d2c:	00200e93          	li	t4,2
    4d30:	01300e13          	li	t3,19
    4d34:	01d11463          	bne	sp,t4,4d3c <fail>
    4d38:	05c01863          	bne	zero,t3,4d88 <pass>

00004d3c <fail>:
    4d3c:	00000513          	li	a0,0
    4d40:	10000537          	lui	a0,0x10000
    4d44:	04500593          	li	a1,69
    4d48:	05200613          	li	a2,82
    4d4c:	04f00693          	li	a3,79
    4d50:	00b52023          	sw	a1,0(a0) # 10000000 <end+0xfff3903>
    4d54:	00c52023          	sw	a2,0(a0)
    4d58:	00c52023          	sw	a2,0(a0)
    4d5c:	00d52023          	sw	a3,0(a0)
    4d60:	00c52023          	sw	a2,0(a0)
    4d64:	030e0593          	addi	a1,t3,48
    4d68:	02000613          	li	a2,32
    4d6c:	03a00693          	li	a3,58
    4d70:	00d52023          	sw	a3,0(a0)
    4d74:	00c52023          	sw	a2,0(a0)
    4d78:	00b52023          	sw	a1,0(a0)
    4d7c:	00a00713          	li	a4,10
    4d80:	00e52023          	sw	a4,0(a0)
    4d84:	c08fb06f          	j	18c <lhu_ret>

00004d88 <pass>:
    4d88:	00000513          	li	a0,0
    4d8c:	10000537          	lui	a0,0x10000
    4d90:	04f00593          	li	a1,79
    4d94:	04b00613          	li	a2,75
    4d98:	00a00693          	li	a3,10
    4d9c:	00b52023          	sw	a1,0(a0) # 10000000 <end+0xfff3903>
    4da0:	00c52023          	sw	a2,0(a0)
    4da4:	00d52023          	sw	a3,0(a0)
    4da8:	be4fb06f          	j	18c <lhu_ret>

00004dac <lui>:
    4dac:	00005537          	lui	a0,0x5
    4db0:	dd050513          	addi	a0,a0,-560 # 4dd0 <.test_name>
    4db4:	00000613          	li	a2,0
    4db8:	10000637          	lui	a2,0x10000

00004dbc <.prname_next>:
    4dbc:	00050583          	lb	a1,0(a0)
    4dc0:	00058a63          	beqz	a1,4dd4 <.prname_done>
    4dc4:	00b62023          	sw	a1,0(a2) # 10000000 <end+0xfff3903>
    4dc8:	00150513          	addi	a0,a0,1
    4dcc:	ff1ff06f          	j	4dbc <.prname_next>

00004dd0 <.test_name>:
    4dd0:	0069756c          	.word	0x0069756c

00004dd4 <.prname_done>:
    4dd4:	00000613          	li	a2,0
    4dd8:	10000637          	lui	a2,0x10000
    4ddc:	02e00593          	li	a1,46
    4de0:	00b62023          	sw	a1,0(a2) # 10000000 <end+0xfff3903>
    4de4:	00b62023          	sw	a1,0(a2)

00004de8 <test_2>:
    4de8:	000000b7          	lui	ra,0x0
    4dec:	00000e93          	li	t4,0
    4df0:	00200e13          	li	t3,2
    4df4:	05d09a63          	bne	ra,t4,4e48 <fail>

00004df8 <test_3>:
    4df8:	fffff0b7          	lui	ra,0xfffff
    4dfc:	4010d093          	srai	ra,ra,0x1
    4e00:	80000e93          	li	t4,-2048
    4e04:	00300e13          	li	t3,3
    4e08:	05d09063          	bne	ra,t4,4e48 <fail>

00004e0c <test_4>:
    4e0c:	7ffff0b7          	lui	ra,0x7ffff
    4e10:	4140d093          	srai	ra,ra,0x14
    4e14:	7ff00e93          	li	t4,2047
    4e18:	00400e13          	li	t3,4
    4e1c:	03d09663          	bne	ra,t4,4e48 <fail>

00004e20 <test_5>:
    4e20:	800000b7          	lui	ra,0x80000
    4e24:	4140d093          	srai	ra,ra,0x14
    4e28:	80000e93          	li	t4,-2048
    4e2c:	00500e13          	li	t3,5
    4e30:	01d09c63          	bne	ra,t4,4e48 <fail>

00004e34 <test_6>:
    4e34:	80000037          	lui	zero,0x80000
    4e38:	00000e93          	li	t4,0
    4e3c:	00600e13          	li	t3,6
    4e40:	01d01463          	bne	zero,t4,4e48 <fail>
    4e44:	05c01863          	bne	zero,t3,4e94 <pass>

00004e48 <fail>:
    4e48:	00000513          	li	a0,0
    4e4c:	10000537          	lui	a0,0x10000
    4e50:	04500593          	li	a1,69
    4e54:	05200613          	li	a2,82
    4e58:	04f00693          	li	a3,79
    4e5c:	00b52023          	sw	a1,0(a0) # 10000000 <end+0xfff3903>
    4e60:	00c52023          	sw	a2,0(a0)
    4e64:	00c52023          	sw	a2,0(a0)
    4e68:	00d52023          	sw	a3,0(a0)
    4e6c:	00c52023          	sw	a2,0(a0)
    4e70:	030e0593          	addi	a1,t3,48
    4e74:	02000613          	li	a2,32
    4e78:	03a00693          	li	a3,58
    4e7c:	00d52023          	sw	a3,0(a0)
    4e80:	00c52023          	sw	a2,0(a0)
    4e84:	00b52023          	sw	a1,0(a0)
    4e88:	00a00713          	li	a4,10
    4e8c:	00e52023          	sw	a4,0(a0)
    4e90:	a84fb06f          	j	114 <lui_ret>

00004e94 <pass>:
    4e94:	00000513          	li	a0,0
    4e98:	10000537          	lui	a0,0x10000
    4e9c:	04f00593          	li	a1,79
    4ea0:	04b00613          	li	a2,75
    4ea4:	00a00693          	li	a3,10
    4ea8:	00b52023          	sw	a1,0(a0) # 10000000 <end+0xfff3903>
    4eac:	00c52023          	sw	a2,0(a0)
    4eb0:	00d52023          	sw	a3,0(a0)
    4eb4:	a60fb06f          	j	114 <lui_ret>

00004eb8 <lw>:
    4eb8:	00005537          	lui	a0,0x5
    4ebc:	edc50513          	addi	a0,a0,-292 # 4edc <.test_name>
    4ec0:	00000613          	li	a2,0
    4ec4:	10000637          	lui	a2,0x10000

00004ec8 <.prname_next>:
    4ec8:	00050583          	lb	a1,0(a0)
    4ecc:	00058a63          	beqz	a1,4ee0 <.prname_done>
    4ed0:	00b62023          	sw	a1,0(a2) # 10000000 <end+0xfff3903>
    4ed4:	00150513          	addi	a0,a0,1
    4ed8:	ff1ff06f          	j	4ec8 <.prname_next>

00004edc <.test_name>:
    4edc:	0000776c          	.word	0x0000776c

00004ee0 <.prname_done>:
    4ee0:	00000613          	li	a2,0
    4ee4:	10000637          	lui	a2,0x10000
    4ee8:	02e00593          	li	a1,46
    4eec:	00b62023          	sw	a1,0(a2) # 10000000 <end+0xfff3903>
    4ef0:	00b62023          	sw	a1,0(a2)

00004ef4 <test_2>:
    4ef4:	00007097          	auipc	ra,0x7
    4ef8:	29408093          	addi	ra,ra,660 # c188 <tdat>
    4efc:	0000a183          	lw	gp,0(ra)
    4f00:	00ff0eb7          	lui	t4,0xff0
    4f04:	0ffe8e93          	addi	t4,t4,255 # ff00ff <end+0xfe3a02>
    4f08:	00200e13          	li	t3,2
    4f0c:	27d19a63          	bne	gp,t4,5180 <fail>

00004f10 <test_3>:
    4f10:	00007097          	auipc	ra,0x7
    4f14:	27808093          	addi	ra,ra,632 # c188 <tdat>
    4f18:	0040a183          	lw	gp,4(ra)
    4f1c:	ff010eb7          	lui	t4,0xff010
    4f20:	f00e8e93          	addi	t4,t4,-256 # ff00ff00 <end+0xff003803>
    4f24:	00300e13          	li	t3,3
    4f28:	25d19c63          	bne	gp,t4,5180 <fail>

00004f2c <test_4>:
    4f2c:	00007097          	auipc	ra,0x7
    4f30:	25c08093          	addi	ra,ra,604 # c188 <tdat>
    4f34:	0080a183          	lw	gp,8(ra)
    4f38:	0ff01eb7          	lui	t4,0xff01
    4f3c:	ff0e8e93          	addi	t4,t4,-16 # ff00ff0 <end+0xfef48f3>
    4f40:	00400e13          	li	t3,4
    4f44:	23d19e63          	bne	gp,t4,5180 <fail>

00004f48 <test_5>:
    4f48:	00007097          	auipc	ra,0x7
    4f4c:	24008093          	addi	ra,ra,576 # c188 <tdat>
    4f50:	00c0a183          	lw	gp,12(ra)
    4f54:	f00ffeb7          	lui	t4,0xf00ff
    4f58:	00fe8e93          	addi	t4,t4,15 # f00ff00f <end+0xf00f2912>
    4f5c:	00500e13          	li	t3,5
    4f60:	23d19063          	bne	gp,t4,5180 <fail>

00004f64 <test_6>:
    4f64:	00007097          	auipc	ra,0x7
    4f68:	23008093          	addi	ra,ra,560 # c194 <tdat4>
    4f6c:	ff40a183          	lw	gp,-12(ra)
    4f70:	00ff0eb7          	lui	t4,0xff0
    4f74:	0ffe8e93          	addi	t4,t4,255 # ff00ff <end+0xfe3a02>
    4f78:	00600e13          	li	t3,6
    4f7c:	21d19263          	bne	gp,t4,5180 <fail>

00004f80 <test_7>:
    4f80:	00007097          	auipc	ra,0x7
    4f84:	21408093          	addi	ra,ra,532 # c194 <tdat4>
    4f88:	ff80a183          	lw	gp,-8(ra)
    4f8c:	ff010eb7          	lui	t4,0xff010
    4f90:	f00e8e93          	addi	t4,t4,-256 # ff00ff00 <end+0xff003803>
    4f94:	00700e13          	li	t3,7
    4f98:	1fd19463          	bne	gp,t4,5180 <fail>

00004f9c <test_8>:
    4f9c:	00007097          	auipc	ra,0x7
    4fa0:	1f808093          	addi	ra,ra,504 # c194 <tdat4>
    4fa4:	ffc0a183          	lw	gp,-4(ra)
    4fa8:	0ff01eb7          	lui	t4,0xff01
    4fac:	ff0e8e93          	addi	t4,t4,-16 # ff00ff0 <end+0xfef48f3>
    4fb0:	00800e13          	li	t3,8
    4fb4:	1dd19663          	bne	gp,t4,5180 <fail>

00004fb8 <test_9>:
    4fb8:	00007097          	auipc	ra,0x7
    4fbc:	1dc08093          	addi	ra,ra,476 # c194 <tdat4>
    4fc0:	0000a183          	lw	gp,0(ra)
    4fc4:	f00ffeb7          	lui	t4,0xf00ff
    4fc8:	00fe8e93          	addi	t4,t4,15 # f00ff00f <end+0xf00f2912>
    4fcc:	00900e13          	li	t3,9
    4fd0:	1bd19863          	bne	gp,t4,5180 <fail>

00004fd4 <test_10>:
    4fd4:	00007097          	auipc	ra,0x7
    4fd8:	1b408093          	addi	ra,ra,436 # c188 <tdat>
    4fdc:	fe008093          	addi	ra,ra,-32
    4fe0:	0200a183          	lw	gp,32(ra)
    4fe4:	00ff0eb7          	lui	t4,0xff0
    4fe8:	0ffe8e93          	addi	t4,t4,255 # ff00ff <end+0xfe3a02>
    4fec:	00a00e13          	li	t3,10
    4ff0:	19d19863          	bne	gp,t4,5180 <fail>

00004ff4 <test_11>:
    4ff4:	00007097          	auipc	ra,0x7
    4ff8:	19408093          	addi	ra,ra,404 # c188 <tdat>
    4ffc:	ffd08093          	addi	ra,ra,-3
    5000:	0070a183          	lw	gp,7(ra)
    5004:	ff010eb7          	lui	t4,0xff010
    5008:	f00e8e93          	addi	t4,t4,-256 # ff00ff00 <end+0xff003803>
    500c:	00b00e13          	li	t3,11
    5010:	17d19863          	bne	gp,t4,5180 <fail>

00005014 <test_12>:
    5014:	00c00e13          	li	t3,12
    5018:	00000213          	li	tp,0
    501c:	00007097          	auipc	ra,0x7
    5020:	17008093          	addi	ra,ra,368 # c18c <tdat2>
    5024:	0040a183          	lw	gp,4(ra)
    5028:	00018313          	mv	t1,gp
    502c:	0ff01eb7          	lui	t4,0xff01
    5030:	ff0e8e93          	addi	t4,t4,-16 # ff00ff0 <end+0xfef48f3>
    5034:	15d31663          	bne	t1,t4,5180 <fail>
    5038:	00120213          	addi	tp,tp,1 # 1 <reset_vec+0x1>
    503c:	00200293          	li	t0,2
    5040:	fc521ee3          	bne	tp,t0,501c <test_12+0x8>

00005044 <test_13>:
    5044:	00d00e13          	li	t3,13
    5048:	00000213          	li	tp,0
    504c:	00007097          	auipc	ra,0x7
    5050:	14408093          	addi	ra,ra,324 # c190 <tdat3>
    5054:	0040a183          	lw	gp,4(ra)
    5058:	00000013          	nop
    505c:	00018313          	mv	t1,gp
    5060:	f00ffeb7          	lui	t4,0xf00ff
    5064:	00fe8e93          	addi	t4,t4,15 # f00ff00f <end+0xf00f2912>
    5068:	11d31c63          	bne	t1,t4,5180 <fail>
    506c:	00120213          	addi	tp,tp,1 # 1 <reset_vec+0x1>
    5070:	00200293          	li	t0,2
    5074:	fc521ce3          	bne	tp,t0,504c <test_13+0x8>

00005078 <test_14>:
    5078:	00e00e13          	li	t3,14
    507c:	00000213          	li	tp,0
    5080:	00007097          	auipc	ra,0x7
    5084:	10808093          	addi	ra,ra,264 # c188 <tdat>
    5088:	0040a183          	lw	gp,4(ra)
    508c:	00000013          	nop
    5090:	00000013          	nop
    5094:	00018313          	mv	t1,gp
    5098:	ff010eb7          	lui	t4,0xff010
    509c:	f00e8e93          	addi	t4,t4,-256 # ff00ff00 <end+0xff003803>
    50a0:	0fd31063          	bne	t1,t4,5180 <fail>
    50a4:	00120213          	addi	tp,tp,1 # 1 <reset_vec+0x1>
    50a8:	00200293          	li	t0,2
    50ac:	fc521ae3          	bne	tp,t0,5080 <test_14+0x8>

000050b0 <test_15>:
    50b0:	00f00e13          	li	t3,15
    50b4:	00000213          	li	tp,0
    50b8:	00007097          	auipc	ra,0x7
    50bc:	0d408093          	addi	ra,ra,212 # c18c <tdat2>
    50c0:	0040a183          	lw	gp,4(ra)
    50c4:	0ff01eb7          	lui	t4,0xff01
    50c8:	ff0e8e93          	addi	t4,t4,-16 # ff00ff0 <end+0xfef48f3>
    50cc:	0bd19a63          	bne	gp,t4,5180 <fail>
    50d0:	00120213          	addi	tp,tp,1 # 1 <reset_vec+0x1>
    50d4:	00200293          	li	t0,2
    50d8:	fe5210e3          	bne	tp,t0,50b8 <test_15+0x8>

000050dc <test_16>:
    50dc:	01000e13          	li	t3,16
    50e0:	00000213          	li	tp,0
    50e4:	00007097          	auipc	ra,0x7
    50e8:	0ac08093          	addi	ra,ra,172 # c190 <tdat3>
    50ec:	00000013          	nop
    50f0:	0040a183          	lw	gp,4(ra)
    50f4:	f00ffeb7          	lui	t4,0xf00ff
    50f8:	00fe8e93          	addi	t4,t4,15 # f00ff00f <end+0xf00f2912>
    50fc:	09d19263          	bne	gp,t4,5180 <fail>
    5100:	00120213          	addi	tp,tp,1 # 1 <reset_vec+0x1>
    5104:	00200293          	li	t0,2
    5108:	fc521ee3          	bne	tp,t0,50e4 <test_16+0x8>

0000510c <test_17>:
    510c:	01100e13          	li	t3,17
    5110:	00000213          	li	tp,0
    5114:	00007097          	auipc	ra,0x7
    5118:	07408093          	addi	ra,ra,116 # c188 <tdat>
    511c:	00000013          	nop
    5120:	00000013          	nop
    5124:	0040a183          	lw	gp,4(ra)
    5128:	ff010eb7          	lui	t4,0xff010
    512c:	f00e8e93          	addi	t4,t4,-256 # ff00ff00 <end+0xff003803>
    5130:	05d19863          	bne	gp,t4,5180 <fail>
    5134:	00120213          	addi	tp,tp,1 # 1 <reset_vec+0x1>
    5138:	00200293          	li	t0,2
    513c:	fc521ce3          	bne	tp,t0,5114 <test_17+0x8>

00005140 <test_18>:
    5140:	00007197          	auipc	gp,0x7
    5144:	04818193          	addi	gp,gp,72 # c188 <tdat>
    5148:	0001a103          	lw	sp,0(gp)
    514c:	00200113          	li	sp,2
    5150:	00200e93          	li	t4,2
    5154:	01200e13          	li	t3,18
    5158:	03d11463          	bne	sp,t4,5180 <fail>

0000515c <test_19>:
    515c:	00007197          	auipc	gp,0x7
    5160:	02c18193          	addi	gp,gp,44 # c188 <tdat>
    5164:	0001a103          	lw	sp,0(gp)
    5168:	00000013          	nop
    516c:	00200113          	li	sp,2
    5170:	00200e93          	li	t4,2
    5174:	01300e13          	li	t3,19
    5178:	01d11463          	bne	sp,t4,5180 <fail>
    517c:	05c01863          	bne	zero,t3,51cc <pass>

00005180 <fail>:
    5180:	00000513          	li	a0,0
    5184:	10000537          	lui	a0,0x10000
    5188:	04500593          	li	a1,69
    518c:	05200613          	li	a2,82
    5190:	04f00693          	li	a3,79
    5194:	00b52023          	sw	a1,0(a0) # 10000000 <end+0xfff3903>
    5198:	00c52023          	sw	a2,0(a0)
    519c:	00c52023          	sw	a2,0(a0)
    51a0:	00d52023          	sw	a3,0(a0)
    51a4:	00c52023          	sw	a2,0(a0)
    51a8:	030e0593          	addi	a1,t3,48
    51ac:	02000613          	li	a2,32
    51b0:	03a00693          	li	a3,58
    51b4:	00d52023          	sw	a3,0(a0)
    51b8:	00c52023          	sw	a2,0(a0)
    51bc:	00b52023          	sw	a1,0(a0)
    51c0:	00a00713          	li	a4,10
    51c4:	00e52023          	sw	a4,0(a0)
    51c8:	fb5fa06f          	j	17c <lw_ret>

000051cc <pass>:
    51cc:	00000513          	li	a0,0
    51d0:	10000537          	lui	a0,0x10000
    51d4:	04f00593          	li	a1,79
    51d8:	04b00613          	li	a2,75
    51dc:	00a00693          	li	a3,10
    51e0:	00b52023          	sw	a1,0(a0) # 10000000 <end+0xfff3903>
    51e4:	00c52023          	sw	a2,0(a0)
    51e8:	00d52023          	sw	a3,0(a0)
    51ec:	f91fa06f          	j	17c <lw_ret>

000051f0 <mul>:
    51f0:	00005537          	lui	a0,0x5
    51f4:	21450513          	addi	a0,a0,532 # 5214 <.test_name>
    51f8:	00000613          	li	a2,0
    51fc:	10000637          	lui	a2,0x10000

00005200 <.prname_next>:
    5200:	00050583          	lb	a1,0(a0)
    5204:	00058a63          	beqz	a1,5218 <.prname_done>
    5208:	00b62023          	sw	a1,0(a2) # 10000000 <end+0xfff3903>
    520c:	00150513          	addi	a0,a0,1
    5210:	ff1ff06f          	j	5200 <.prname_next>

00005214 <.test_name>:
    5214:	006c756d          	.word	0x006c756d

00005218 <.prname_done>:
    5218:	00000613          	li	a2,0
    521c:	10000637          	lui	a2,0x10000
    5220:	02e00593          	li	a1,46
    5224:	00b62023          	sw	a1,0(a2) # 10000000 <end+0xfff3903>
    5228:	00b62023          	sw	a1,0(a2)

0000522c <test_32>:
    522c:	000080b7          	lui	ra,0x8
    5230:	e0008093          	addi	ra,ra,-512 # 7e00 <fail+0x8>
    5234:	b6db7137          	lui	sp,0xb6db7
    5238:	db710113          	addi	sp,sp,-585 # b6db6db7 <end+0xb6daa6ba>
    523c:	022081b3          	mul	gp,ra,sp
    5240:	00001eb7          	lui	t4,0x1
    5244:	200e8e93          	addi	t4,t4,512 # 1200 <putchar>
    5248:	02000e13          	li	t3,32
    524c:	4bd19463          	bne	gp,t4,56f4 <fail>

00005250 <test_33>:
    5250:	000080b7          	lui	ra,0x8
    5254:	fc008093          	addi	ra,ra,-64 # 7fc0 <test_9+0x10>
    5258:	b6db7137          	lui	sp,0xb6db7
    525c:	db710113          	addi	sp,sp,-585 # b6db6db7 <end+0xb6daa6ba>
    5260:	022081b3          	mul	gp,ra,sp
    5264:	00001eb7          	lui	t4,0x1
    5268:	240e8e93          	addi	t4,t4,576 # 1240 <read_timer+0x4>
    526c:	02100e13          	li	t3,33
    5270:	49d19263          	bne	gp,t4,56f4 <fail>

00005274 <test_2>:
    5274:	00000093          	li	ra,0
    5278:	00000113          	li	sp,0
    527c:	022081b3          	mul	gp,ra,sp
    5280:	00000e93          	li	t4,0
    5284:	00200e13          	li	t3,2
    5288:	47d19663          	bne	gp,t4,56f4 <fail>

0000528c <test_3>:
    528c:	00100093          	li	ra,1
    5290:	00100113          	li	sp,1
    5294:	022081b3          	mul	gp,ra,sp
    5298:	00100e93          	li	t4,1
    529c:	00300e13          	li	t3,3
    52a0:	45d19a63          	bne	gp,t4,56f4 <fail>

000052a4 <test_4>:
    52a4:	00300093          	li	ra,3
    52a8:	00700113          	li	sp,7
    52ac:	022081b3          	mul	gp,ra,sp
    52b0:	01500e93          	li	t4,21
    52b4:	00400e13          	li	t3,4
    52b8:	43d19e63          	bne	gp,t4,56f4 <fail>

000052bc <test_5>:
    52bc:	00000093          	li	ra,0
    52c0:	ffff8137          	lui	sp,0xffff8
    52c4:	022081b3          	mul	gp,ra,sp
    52c8:	00000e93          	li	t4,0
    52cc:	00500e13          	li	t3,5
    52d0:	43d19263          	bne	gp,t4,56f4 <fail>

000052d4 <test_6>:
    52d4:	800000b7          	lui	ra,0x80000
    52d8:	00000113          	li	sp,0
    52dc:	022081b3          	mul	gp,ra,sp
    52e0:	00000e93          	li	t4,0
    52e4:	00600e13          	li	t3,6
    52e8:	41d19663          	bne	gp,t4,56f4 <fail>

000052ec <test_7>:
    52ec:	800000b7          	lui	ra,0x80000
    52f0:	ffff8137          	lui	sp,0xffff8
    52f4:	022081b3          	mul	gp,ra,sp
    52f8:	00000e93          	li	t4,0
    52fc:	00700e13          	li	t3,7
    5300:	3fd19a63          	bne	gp,t4,56f4 <fail>

00005304 <test_30>:
    5304:	aaaab0b7          	lui	ra,0xaaaab
    5308:	aab08093          	addi	ra,ra,-1365 # aaaaaaab <end+0xaaa9e3ae>
    530c:	00030137          	lui	sp,0x30
    5310:	e7d10113          	addi	sp,sp,-387 # 2fe7d <end+0x23780>
    5314:	022081b3          	mul	gp,ra,sp
    5318:	00010eb7          	lui	t4,0x10
    531c:	f7fe8e93          	addi	t4,t4,-129 # ff7f <end+0x3882>
    5320:	01e00e13          	li	t3,30
    5324:	3dd19863          	bne	gp,t4,56f4 <fail>

00005328 <test_31>:
    5328:	000300b7          	lui	ra,0x30
    532c:	e7d08093          	addi	ra,ra,-387 # 2fe7d <end+0x23780>
